---
triple:          'arm64-apple-darwin'
binary-path:     silly_debug
relocations:
  - { offsetInCU: 0x3B, offset: 0x3B, size: 0x8, addend: 0x0, symName: _.str, symObjAddr: 0x19880, symBinAddr: 0x100173C80, symSize: 0x0 }
  - { offsetInCU: 0x6B, offset: 0x6B, size: 0x8, addend: 0x0, symName: ___func__._ZNK5Field2asINSt3__112basic_stringIcNS1_11char_traitsIcEENS1_9allocatorIcEEEEEENS1_11conditionalIXsr12is_fast_passINS1_5decayIT_E4typeEEE5valueESC_NS1_20add_lvalue_referenceINS1_9add_constISC_E4typeEE4typeEE4typeEv, symObjAddr: 0x198E0, symBinAddr: 0x100173CE0, symSize: 0x0 }
  - { offsetInCU: 0x88, offset: 0x88, size: 0x8, addend: 0x0, symName: _.str.1, symObjAddr: 0x19900, symBinAddr: 0x100173D00, symSize: 0x0 }
  - { offsetInCU: 0xA5, offset: 0xA5, size: 0x8, addend: 0x0, symName: _.str.2, symObjAddr: 0x19980, symBinAddr: 0x100173D80, symSize: 0x0 }
  - { offsetInCU: 0xB6, offset: 0xB6, size: 0x8, addend: 0x0, symName: _.str.3, symObjAddr: 0x199E0, symBinAddr: 0x100173DE0, symSize: 0x0 }
  - { offsetInCU: 0xC7, offset: 0xC7, size: 0x8, addend: 0x0, symName: _.str.4, symObjAddr: 0x19A60, symBinAddr: 0x100173E60, symSize: 0x0 }
  - { offsetInCU: 0xE4, offset: 0xE4, size: 0x8, addend: 0x0, symName: _.str.5, symObjAddr: 0x19AC0, symBinAddr: 0x100173EC0, symSize: 0x0 }
  - { offsetInCU: 0x101, offset: 0x101, size: 0x8, addend: 0x0, symName: _.str.6, symObjAddr: 0x19B40, symBinAddr: 0x100173F40, symSize: 0x0 }
  - { offsetInCU: 0x112, offset: 0x112, size: 0x8, addend: 0x0, symName: _.str.7, symObjAddr: 0x19BA0, symBinAddr: 0x100173FA0, symSize: 0x0 }
  - { offsetInCU: 0x12F, offset: 0x12F, size: 0x8, addend: 0x0, symName: _.str.13, symObjAddr: 0x19C20, symBinAddr: 0x100174020, symSize: 0x0 }
  - { offsetInCU: 0x14C, offset: 0x14C, size: 0x8, addend: 0x0, symName: ___func__._ZNK5Field7compareINSt3__14lessEEEbRKS_, symObjAddr: 0x19C80, symBinAddr: 0x100174080, symSize: 0x0 }
  - { offsetInCU: 0x169, offset: 0x169, size: 0x8, addend: 0x0, symName: _.str.14, symObjAddr: 0x19CA0, symBinAddr: 0x1001740A0, symSize: 0x0 }
  - { offsetInCU: 0x17A, offset: 0x17A, size: 0x8, addend: 0x0, symName: _.str.15, symObjAddr: 0x19CC0, symBinAddr: 0x1001740C0, symSize: 0x0 }
  - { offsetInCU: 0x30B6, offset: 0x30B6, size: 0x8, addend: 0x0, symName: __ZNSt3__124__put_character_sequenceB7v160006IcNS_11char_traitsIcEEEERNS_13basic_ostreamIT_T0_EES7_PKS4_m, symObjAddr: 0xF590, symBinAddr: 0x100011B60, symSize: 0x103C }
  - { offsetInCU: 0x4E89, offset: 0x4E89, size: 0x8, addend: 0x0, symName: __ZNSt3__1lsB7v160006IcNS_11char_traitsIcEENS_9allocatorIcEEEERNS_13basic_ostreamIT_T0_EES9_RKNS_12basic_stringIS6_S7_T1_EE, symObjAddr: 0x5F24, symBinAddr: 0x1000084F4, symSize: 0x12C }
  - { offsetInCU: 0x4EE1, offset: 0x4EE1, size: 0x8, addend: 0x0, symName: __ZNSt3__119__debug_db_insert_cB7v160006INS_12basic_stringIcNS_11char_traitsIcEENS_9allocatorIcEEEEEEvPT_, symObjAddr: 0x65E8, symBinAddr: 0x100008BB8, symSize: 0x10 }
  - { offsetInCU: 0x4F12, offset: 0x4F12, size: 0x8, addend: 0x0, symName: __ZNSt3__118__constexpr_strlenB7v160006EPKc, symObjAddr: 0x68B4, symBinAddr: 0x100008E84, symSize: 0x24 }
  - { offsetInCU: 0x4F3E, offset: 0x4F3E, size: 0x8, addend: 0x0, symName: __ZNSt3__115__debug_db_swapB7v160006INS_12basic_stringIcNS_11char_traitsIcEENS_9allocatorIcEEEEEEvPT_S8_, symObjAddr: 0x6E80, symBinAddr: 0x100009450, symSize: 0x14 }
  - { offsetInCU: 0x5125, offset: 0x5125, size: 0x8, addend: 0x0, symName: __ZNSt3__1ltB7v160006IcNS_11char_traitsIcEENS_9allocatorIcEEEEbRKNS_12basic_stringIT_T0_T1_EESB_, symObjAddr: 0x76E8, symBinAddr: 0x100009CB8, symSize: 0xAC }
  - { offsetInCU: 0x51A1, offset: 0x51A1, size: 0x8, addend: 0x0, symName: __ZNSt3__13minB7v160006ImEERKT_S3_S3_, symObjAddr: 0x84F4, symBinAddr: 0x10000AAC4, symSize: 0x104 }
  - { offsetInCU: 0x51E4, offset: 0x51E4, size: 0x8, addend: 0x0, symName: __ZNSt3__118__constexpr_memcmpB7v160006IcEEiPKT_S3_m, symObjAddr: 0x8A00, symBinAddr: 0x10000AFD0, symSize: 0x34 }
  - { offsetInCU: 0x5235, offset: 0x5235, size: 0x8, addend: 0x0, symName: __ZNSt3__112__to_addressB7v160006IKcEEPT_S3_, symObjAddr: 0x8A34, symBinAddr: 0x10000B004, symSize: 0x14 }
  - { offsetInCU: 0x529D, offset: 0x529D, size: 0x8, addend: 0x0, symName: __ZNSt3__13minB7v160006ImNS_6__lessImmEEEERKT_S5_S5_T0_, symObjAddr: 0x8EC8, symBinAddr: 0x10000B498, symSize: 0x2C0 }
  - { offsetInCU: 0x5420, offset: 0x5420, size: 0x8, addend: 0x0, symName: __ZNSt3__1gtB7v160006IcNS_11char_traitsIcEENS_9allocatorIcEEEEbRKNS_12basic_stringIT_T0_T1_EESB_, symObjAddr: 0x98D8, symBinAddr: 0x10000BEA8, symSize: 0xC0 }
  - { offsetInCU: 0x5560, offset: 0x5560, size: 0x8, addend: 0x0, symName: __ZNSt3__1eqB7v160006INS_9allocatorIcEEEEbRKNS_12basic_stringIcNS_11char_traitsIcEET_EES9_, symObjAddr: 0x9E4C, symBinAddr: 0x10000C41C, symSize: 0x458 }
  - { offsetInCU: 0x56BB, offset: 0x56BB, size: 0x8, addend: 0x0, symName: __ZNSt3__1neB7v160006IcNS_11char_traitsIcEENS_9allocatorIcEEEEbRKNS_12basic_stringIT_T0_T1_EESB_, symObjAddr: 0xA758, symBinAddr: 0x10000CD28, symSize: 0xC4 }
  - { offsetInCU: 0x5713, offset: 0x5713, size: 0x8, addend: 0x0, symName: __ZNSt3__116__do_string_hashB7v160006IPKcEEmT_S3_, symObjAddr: 0xA81C, symBinAddr: 0x10000CDEC, symSize: 0x1EC }
  - { offsetInCU: 0x575B, offset: 0x575B, size: 0x8, addend: 0x0, symName: __ZNSt3__110__loadwordB7v160006ImEET_PKv, symObjAddr: 0xDF80, symBinAddr: 0x100010550, symSize: 0x214 }
  - { offsetInCU: 0x57A3, offset: 0x57A3, size: 0x8, addend: 0x0, symName: __ZNSt3__14swapB7v160006ImEENS_9enable_ifIXaasr21is_move_constructibleIT_EE5valuesr18is_move_assignableIS2_EE5valueEvE4typeERS2_S5_, symObjAddr: 0xEA14, symBinAddr: 0x100010FE4, symSize: 0x1C0 }
  - { offsetInCU: 0x57F4, offset: 0x57F4, size: 0x8, addend: 0x0, symName: __ZNSt3__110__loadwordB7v160006IjEET_PKv, symObjAddr: 0xED20, symBinAddr: 0x1000112F0, symSize: 0x240 }
  - { offsetInCU: 0x583C, offset: 0x583C, size: 0x8, addend: 0x0, symName: __ZNSt3__116__pad_and_outputB7v160006IcNS_11char_traitsIcEEEENS_19ostreambuf_iteratorIT_T0_EES6_PKS4_S8_S8_RNS_8ios_baseES4_, symObjAddr: 0x106D0, symBinAddr: 0x100012CA0, symSize: 0xB88 }
  - { offsetInCU: 0x5919, offset: 0x5919, size: 0x8, addend: 0x0, symName: __ZNSt3__112__to_addressB7v160006IcEEPT_S2_, symObjAddr: 0x121E8, symBinAddr: 0x1000147B8, symSize: 0x14 }
  - { offsetInCU: 0x5981, offset: 0x5981, size: 0x8, addend: 0x0, symName: __ZNSt3__19use_facetB7v160006INS_5ctypeIcEEEERKT_RKNS_6localeE, symObjAddr: 0x13068, symBinAddr: 0x100015638, symSize: 0x188 }
  - { offsetInCU: 0x8750, offset: 0x8750, size: 0x8, addend: 0x0, symName: __ZN5FieldC2EPKc, symObjAddr: 0x0, symBinAddr: 0x1000025D0, symSize: 0xEC }
  - { offsetInCU: 0x878C, offset: 0x878C, size: 0x8, addend: 0x0, symName: __ZNSt3__112basic_stringIcNS_11char_traitsIcEENS_9allocatorIcEEEC1B7v160006IDnEEPKc, symObjAddr: 0xEC, symBinAddr: 0x1000026BC, symSize: 0x80 }
  - { offsetInCU: 0x87C8, offset: 0x87C8, size: 0x8, addend: 0x0, symName: __ZN5FieldC1EPKc, symObjAddr: 0x16C, symBinAddr: 0x10000273C, symSize: 0x80 }
  - { offsetInCU: 0x87FF, offset: 0x87FF, size: 0x8, addend: 0x0, symName: __ZN5FieldC2ERKNSt3__112basic_stringIcNS0_11char_traitsIcEENS0_9allocatorIcEEEE, symObjAddr: 0x1EC, symBinAddr: 0x1000027BC, symSize: 0x13C }
  - { offsetInCU: 0x8836, offset: 0x8836, size: 0x8, addend: 0x0, symName: __ZN5FieldC1ERKNSt3__112basic_stringIcNS0_11char_traitsIcEENS0_9allocatorIcEEEE, symObjAddr: 0x328, symBinAddr: 0x1000028F8, symSize: 0x80 }
  - { offsetInCU: 0x886D, offset: 0x886D, size: 0x8, addend: 0x0, symName: __ZN5FieldC2EONSt3__112basic_stringIcNS0_11char_traitsIcEENS0_9allocatorIcEEEE, symObjAddr: 0x3A8, symBinAddr: 0x100002978, symSize: 0x13C }
  - { offsetInCU: 0x88A4, offset: 0x88A4, size: 0x8, addend: 0x0, symName: __ZNSt3__112basic_stringIcNS_11char_traitsIcEENS_9allocatorIcEEEC1B7v160006EOS5_, symObjAddr: 0x4E4, symBinAddr: 0x100002AB4, symSize: 0x80 }
  - { offsetInCU: 0x88DB, offset: 0x88DB, size: 0x8, addend: 0x0, symName: __ZN5FieldC1EONSt3__112basic_stringIcNS0_11char_traitsIcEENS0_9allocatorIcEEEE, symObjAddr: 0x564, symBinAddr: 0x100002B34, symSize: 0x80 }
  - { offsetInCU: 0x8912, offset: 0x8912, size: 0x8, addend: 0x0, symName: __ZN5FieldC2Ed, symObjAddr: 0x5E4, symBinAddr: 0x100002BB4, symSize: 0x128 }
  - { offsetInCU: 0x8949, offset: 0x8949, size: 0x8, addend: 0x0, symName: __ZN5FieldC1Ed, symObjAddr: 0x70C, symBinAddr: 0x100002CDC, symSize: 0x80 }
  - { offsetInCU: 0x8980, offset: 0x8980, size: 0x8, addend: 0x0, symName: __ZN5FieldC2Ei, symObjAddr: 0x78C, symBinAddr: 0x100002D5C, symSize: 0x150 }
  - { offsetInCU: 0x89B7, offset: 0x89B7, size: 0x8, addend: 0x0, symName: __ZN5FieldC1Ei, symObjAddr: 0x8DC, symBinAddr: 0x100002EAC, symSize: 0x80 }
  - { offsetInCU: 0x89EE, offset: 0x89EE, size: 0x8, addend: 0x0, symName: __ZN5FieldC2Eb, symObjAddr: 0x95C, symBinAddr: 0x100002F2C, symSize: 0x194 }
  - { offsetInCU: 0x8A25, offset: 0x8A25, size: 0x8, addend: 0x0, symName: __ZN5FieldC1Eb, symObjAddr: 0xAF0, symBinAddr: 0x1000030C0, symSize: 0xBC }
  - { offsetInCU: 0x8A5D, offset: 0x8A5D, size: 0x8, addend: 0x0, symName: __ZN5FieldC2ERKS_, symObjAddr: 0xBAC, symBinAddr: 0x10000317C, symSize: 0x1C8 }
  - { offsetInCU: 0x8A96, offset: 0x8A96, size: 0x8, addend: 0x0, symName: __ZN5Field14construct_fromIRKS_EEvOT_, symObjAddr: 0xD74, symBinAddr: 0x100003344, symSize: 0x684 }
  - { offsetInCU: 0x8AD2, offset: 0x8AD2, size: 0x8, addend: 0x0, symName: __ZN5FieldC1ERKS_, symObjAddr: 0x1408, symBinAddr: 0x1000039D8, symSize: 0x80 }
  - { offsetInCU: 0x8B0B, offset: 0x8B0B, size: 0x8, addend: 0x0, symName: __ZN5FieldC2EOS_, symObjAddr: 0x1488, symBinAddr: 0x100003A58, symSize: 0x1DC }
  - { offsetInCU: 0x8B44, offset: 0x8B44, size: 0x8, addend: 0x0, symName: __ZN5Field14construct_fromIS_EEvOT_, symObjAddr: 0x1664, symBinAddr: 0x100003C34, symSize: 0x684 }
  - { offsetInCU: 0x8B80, offset: 0x8B80, size: 0x8, addend: 0x0, symName: __ZN5FieldC1EOS_, symObjAddr: 0x1D04, symBinAddr: 0x1000042D4, symSize: 0x80 }
  - { offsetInCU: 0x8BB9, offset: 0x8BB9, size: 0x8, addend: 0x0, symName: __ZN5FieldD2Ev, symObjAddr: 0x1D84, symBinAddr: 0x100004354, symSize: 0x144 }
  - { offsetInCU: 0x8BE4, offset: 0x8BE4, size: 0x8, addend: 0x0, symName: __ZN5FieldD1Ev, symObjAddr: 0x1EC8, symBinAddr: 0x100004498, symSize: 0x78 }
  - { offsetInCU: 0x8C0F, offset: 0x8C0F, size: 0x8, addend: 0x0, symName: __ZNK5FieldltERKS_, symObjAddr: 0x1F40, symBinAddr: 0x100004510, symSize: 0xC0 }
  - { offsetInCU: 0x8C44, offset: 0x8C44, size: 0x8, addend: 0x0, symName: __ZNK5Field7compareINSt3__14lessEEEbRKS_, symObjAddr: 0x2000, symBinAddr: 0x1000045D0, symSize: 0x888 }
  - { offsetInCU: 0x8C82, offset: 0x8C82, size: 0x8, addend: 0x0, symName: __ZNK5FieldgtERKS_, symObjAddr: 0x2898, symBinAddr: 0x100004E68, symSize: 0xC0 }
  - { offsetInCU: 0x8CB7, offset: 0x8CB7, size: 0x8, addend: 0x0, symName: __ZNK5Field7compareINSt3__17greaterEEEbRKS_, symObjAddr: 0x2958, symBinAddr: 0x100004F28, symSize: 0x888 }
  - { offsetInCU: 0x8CF5, offset: 0x8CF5, size: 0x8, addend: 0x0, symName: __ZNK5FieldeqERKS_, symObjAddr: 0x31F0, symBinAddr: 0x1000057C0, symSize: 0xC0 }
  - { offsetInCU: 0x8D2A, offset: 0x8D2A, size: 0x8, addend: 0x0, symName: __ZNK5Field7compareINSt3__18equal_toEEEbRKS_, symObjAddr: 0x32B0, symBinAddr: 0x100005880, symSize: 0x888 }
  - { offsetInCU: 0x8D68, offset: 0x8D68, size: 0x8, addend: 0x0, symName: __ZNK5FieldneERKS_, symObjAddr: 0x3B48, symBinAddr: 0x100006118, symSize: 0xC0 }
  - { offsetInCU: 0x8D9D, offset: 0x8D9D, size: 0x8, addend: 0x0, symName: __ZNK5Field7compareINSt3__112not_equal_toEEEbRKS_, symObjAddr: 0x3C08, symBinAddr: 0x1000061D8, symSize: 0x888 }
  - { offsetInCU: 0x8DDB, offset: 0x8DDB, size: 0x8, addend: 0x0, symName: __ZNK5Field2asINSt3__112basic_stringIcNS1_11char_traitsIcEENS1_9allocatorIcEEEEEENS1_11conditionalIXsr12is_fast_passINS1_5decayIT_E4typeEEE5valueESC_NS1_20add_lvalue_referenceINS1_9add_constISC_E4typeEE4typeEE4typeEv, symObjAddr: 0x44A0, symBinAddr: 0x100006A70, symSize: 0x1A8 }
  - { offsetInCU: 0x8E0D, offset: 0x8E0D, size: 0x8, addend: 0x0, symName: __ZNK5Field2asIdEENSt3__111conditionalIXsr12is_fast_passINS1_5decayIT_E4typeEEE5valueES6_NS1_20add_lvalue_referenceINS1_9add_constIS6_E4typeEE4typeEE4typeEv, symObjAddr: 0x4648, symBinAddr: 0x100006C18, symSize: 0x1DC }
  - { offsetInCU: 0x8E3F, offset: 0x8E3F, size: 0x8, addend: 0x0, symName: __ZNK5Field2asIiEENSt3__111conditionalIXsr12is_fast_passINS1_5decayIT_E4typeEEE5valueES6_NS1_20add_lvalue_referenceINS1_9add_constIS6_E4typeEE4typeEE4typeEv, symObjAddr: 0x4824, symBinAddr: 0x100006DF4, symSize: 0x204 }
  - { offsetInCU: 0x8E71, offset: 0x8E71, size: 0x8, addend: 0x0, symName: __ZNK5Field2asIbEENSt3__111conditionalIXsr12is_fast_passINS1_5decayIT_E4typeEEE5valueES6_NS1_20add_lvalue_referenceINS1_9add_constIS6_E4typeEE4typeEE4typeEv, symObjAddr: 0x4A28, symBinAddr: 0x100006FF8, symSize: 0x234 }
  - { offsetInCU: 0x8EAD, offset: 0x8EAD, size: 0x8, addend: 0x0, symName: __ZNKSt3__14hashI5FieldEclERKS1_, symObjAddr: 0x4C5C, symBinAddr: 0x10000722C, symSize: 0x6F0 }
  - { offsetInCU: 0x8EEE, offset: 0x8EEE, size: 0x8, addend: 0x0, symName: __ZNKSt3__113__string_hashIcNS_9allocatorIcEEEclERKNS_12basic_stringIcNS_11char_traitsIcEES2_EE, symObjAddr: 0x535C, symBinAddr: 0x10000792C, symSize: 0x1EC }
  - { offsetInCU: 0x8F36, offset: 0x8F36, size: 0x8, addend: 0x0, symName: __ZNKSt3__14hashIdEclB7v160006Ed, symObjAddr: 0x5548, symBinAddr: 0x100007B18, symSize: 0x80 }
  - { offsetInCU: 0x8F74, offset: 0x8F74, size: 0x8, addend: 0x0, symName: __ZNKSt3__14hashIiEclB7v160006Ei, symObjAddr: 0x55C8, symBinAddr: 0x100007B98, symSize: 0x50 }
  - { offsetInCU: 0x8FB2, offset: 0x8FB2, size: 0x8, addend: 0x0, symName: __ZNKSt3__14hashIbEclB7v160006Eb, symObjAddr: 0x5618, symBinAddr: 0x100007BE8, symSize: 0x8C }
  - { offsetInCU: 0x8FE5, offset: 0x8FE5, size: 0x8, addend: 0x0, symName: __ZlsRNSt3__113basic_ostreamIcNS_11char_traitsIcEEEERK5Field, symObjAddr: 0x56A4, symBinAddr: 0x100007C74, symSize: 0x870 }
  - { offsetInCU: 0x9020, offset: 0x9020, size: 0x8, addend: 0x0, symName: __ZNKSt3__113__scalar_hashIdLm1EEclB7v160006Ed, symObjAddr: 0x6050, symBinAddr: 0x100008620, symSize: 0x250 }
  - { offsetInCU: 0x908A, offset: 0x908A, size: 0x8, addend: 0x0, symName: __ZNSt3__112basic_stringIcNS_11char_traitsIcEENS_9allocatorIcEEEC2B7v160006IDnEEPKc, symObjAddr: 0x62A0, symBinAddr: 0x100008870, symSize: 0x280 }
  - { offsetInCU: 0x90CD, offset: 0x90CD, size: 0x8, addend: 0x0, symName: __ZNSt3__117__compressed_pairINS_12basic_stringIcNS_11char_traitsIcEENS_9allocatorIcEEE5__repES5_EC1B7v160006INS_18__default_init_tagESA_EEOT_OT0_, symObjAddr: 0x6520, symBinAddr: 0x100008AF0, symSize: 0x88 }
  - { offsetInCU: 0x9124, offset: 0x9124, size: 0x8, addend: 0x0, symName: __ZNSt3__111char_traitsIcE6lengthEPKc, symObjAddr: 0x65A8, symBinAddr: 0x100008B78, symSize: 0x40 }
  - { offsetInCU: 0x9146, offset: 0x9146, size: 0x8, addend: 0x0, symName: __ZNSt3__117__compressed_pairINS_12basic_stringIcNS_11char_traitsIcEENS_9allocatorIcEEE5__repES5_EC2B7v160006INS_18__default_init_tagESA_EEOT_OT0_, symObjAddr: 0x65F8, symBinAddr: 0x100008BC8, symSize: 0xF4 }
  - { offsetInCU: 0x919C, offset: 0x919C, size: 0x8, addend: 0x0, symName: __ZNSt3__122__compressed_pair_elemINS_12basic_stringIcNS_11char_traitsIcEENS_9allocatorIcEEE5__repELi0ELb0EEC2B7v160006ENS_18__default_init_tagE, symObjAddr: 0x66EC, symBinAddr: 0x100008CBC, symSize: 0x6C }
  - { offsetInCU: 0x91CF, offset: 0x91CF, size: 0x8, addend: 0x0, symName: __ZNSt3__122__compressed_pair_elemINS_9allocatorIcEELi1ELb1EEC2B7v160006ENS_18__default_init_tagE, symObjAddr: 0x6758, symBinAddr: 0x100008D28, symSize: 0x84 }
  - { offsetInCU: 0x9202, offset: 0x9202, size: 0x8, addend: 0x0, symName: __ZNSt3__19allocatorIcEC2B7v160006Ev, symObjAddr: 0x67DC, symBinAddr: 0x100008DAC, symSize: 0x84 }
  - { offsetInCU: 0x922A, offset: 0x922A, size: 0x8, addend: 0x0, symName: __ZNSt3__116__non_trivial_ifILb1ENS_9allocatorIcEEEC2B7v160006Ev, symObjAddr: 0x6860, symBinAddr: 0x100008E30, symSize: 0x54 }
  - { offsetInCU: 0x9252, offset: 0x9252, size: 0x8, addend: 0x0, symName: __ZNSt3__112basic_stringIcNS_11char_traitsIcEENS_9allocatorIcEEEC2B7v160006EOS5_, symObjAddr: 0x68D8, symBinAddr: 0x100008EA8, symSize: 0xF8 }
  - { offsetInCU: 0x928A, offset: 0x928A, size: 0x8, addend: 0x0, symName: __ZNSt3__112basic_stringIcNS_11char_traitsIcEENS_9allocatorIcEEE14__default_initB7v160006Ev, symObjAddr: 0x69D0, symBinAddr: 0x100008FA0, symSize: 0x2B4 }
  - { offsetInCU: 0x92B0, offset: 0x92B0, size: 0x8, addend: 0x0, symName: __ZNKSt3__112basic_stringIcNS_11char_traitsIcEENS_9allocatorIcEEE9__is_longB7v160006Ev, symObjAddr: 0x6C84, symBinAddr: 0x100009254, symSize: 0x1FC }
  - { offsetInCU: 0x92D5, offset: 0x92D5, size: 0x8, addend: 0x0, symName: __ZNSt3__117__compressed_pairINS_12basic_stringIcNS_11char_traitsIcEENS_9allocatorIcEEE5__repES5_E5firstB7v160006Ev, symObjAddr: 0x6E94, symBinAddr: 0x100009464, symSize: 0x124 }
  - { offsetInCU: 0x92FA, offset: 0x92FA, size: 0x8, addend: 0x0, symName: __ZNSt3__122__compressed_pair_elemINS_12basic_stringIcNS_11char_traitsIcEENS_9allocatorIcEEE5__repELi0ELb0EE5__getB7v160006Ev, symObjAddr: 0x6FB8, symBinAddr: 0x100009588, symSize: 0xAC }
  - { offsetInCU: 0x931F, offset: 0x931F, size: 0x8, addend: 0x0, symName: __ZNKSt3__117__compressed_pairINS_12basic_stringIcNS_11char_traitsIcEENS_9allocatorIcEEE5__repES5_E5firstB7v160006Ev, symObjAddr: 0x7064, symBinAddr: 0x100009634, symSize: 0x124 }
  - { offsetInCU: 0x9344, offset: 0x9344, size: 0x8, addend: 0x0, symName: __ZNKSt3__122__compressed_pair_elemINS_12basic_stringIcNS_11char_traitsIcEENS_9allocatorIcEEE5__repELi0ELb0EE5__getB7v160006Ev, symObjAddr: 0x7188, symBinAddr: 0x100009758, symSize: 0xAC }
  - { offsetInCU: 0x9373, offset: 0x9373, size: 0x8, addend: 0x0, symName: __ZNKSt3__14lessINS_12basic_stringIcNS_11char_traitsIcEENS_9allocatorIcEEEEEclB7v160006ERKS6_S9_, symObjAddr: 0x7234, symBinAddr: 0x100009804, symSize: 0xF0 }
  - { offsetInCU: 0x93CA, offset: 0x93CA, size: 0x8, addend: 0x0, symName: __ZNKSt3__14lessIdEclB7v160006ERKdS3_, symObjAddr: 0x7324, symBinAddr: 0x1000098F4, symSize: 0xEC }
  - { offsetInCU: 0x9421, offset: 0x9421, size: 0x8, addend: 0x0, symName: __ZNKSt3__14lessIiEclB7v160006ERKiS3_, symObjAddr: 0x7410, symBinAddr: 0x1000099E0, symSize: 0x13C }
  - { offsetInCU: 0x9473, offset: 0x9473, size: 0x8, addend: 0x0, symName: __ZNKSt3__14lessIbEclB7v160006ERKbS3_, symObjAddr: 0x754C, symBinAddr: 0x100009B1C, symSize: 0x19C }
  - { offsetInCU: 0x94B6, offset: 0x94B6, size: 0x8, addend: 0x0, symName: __ZNKSt3__112basic_stringIcNS_11char_traitsIcEENS_9allocatorIcEEE7compareB7v160006ERKS5_, symObjAddr: 0x7794, symBinAddr: 0x100009D64, symSize: 0x2A8 }
  - { offsetInCU: 0x94EE, offset: 0x94EE, size: 0x8, addend: 0x0, symName: __ZNKSt3__112basic_stringIcNS_11char_traitsIcEENS_9allocatorIcEEE7compareINS_17basic_string_viewIcS2_EEEENS_9enable_ifIXsr33__can_be_converted_to_string_viewIcS2_T_EE5valueEiE4typeERKSA_, symObjAddr: 0x7A3C, symBinAddr: 0x10000A00C, symSize: 0x570 }
  - { offsetInCU: 0x9578, offset: 0x9578, size: 0x8, addend: 0x0, symName: __ZNKSt3__112basic_stringIcNS_11char_traitsIcEENS_9allocatorIcEEEcvNS_17basic_string_viewIcS2_EEB7v160006Ev, symObjAddr: 0x7FAC, symBinAddr: 0x10000A57C, symSize: 0x26C }
  - { offsetInCU: 0x959E, offset: 0x959E, size: 0x8, addend: 0x0, symName: __ZNKSt3__112basic_stringIcNS_11char_traitsIcEENS_9allocatorIcEEE4sizeB7v160006Ev, symObjAddr: 0x8218, symBinAddr: 0x10000A7E8, symSize: 0x98 }
  - { offsetInCU: 0x95C3, offset: 0x95C3, size: 0x8, addend: 0x0, symName: __ZNKSt3__117basic_string_viewIcNS_11char_traitsIcEEE4sizeB7v160006Ev, symObjAddr: 0x82B0, symBinAddr: 0x10000A880, symSize: 0xB0 }
  - { offsetInCU: 0x95E8, offset: 0x95E8, size: 0x8, addend: 0x0, symName: __ZNSt3__111char_traitsIcE7compareEPKcS3_m, symObjAddr: 0x8360, symBinAddr: 0x10000A930, symSize: 0x78 }
  - { offsetInCU: 0x9627, offset: 0x9627, size: 0x8, addend: 0x0, symName: __ZNKSt3__112basic_stringIcNS_11char_traitsIcEENS_9allocatorIcEEE4dataB7v160006Ev, symObjAddr: 0x83D8, symBinAddr: 0x10000A9A8, symSize: 0x70 }
  - { offsetInCU: 0x964C, offset: 0x964C, size: 0x8, addend: 0x0, symName: __ZNKSt3__117basic_string_viewIcNS_11char_traitsIcEEE4dataB7v160006Ev, symObjAddr: 0x8448, symBinAddr: 0x10000AA18, symSize: 0xAC }
  - { offsetInCU: 0x9671, offset: 0x9671, size: 0x8, addend: 0x0, symName: __ZNKSt3__112basic_stringIcNS_11char_traitsIcEENS_9allocatorIcEEE15__get_long_sizeB7v160006Ev, symObjAddr: 0x85F8, symBinAddr: 0x10000ABC8, symSize: 0x210 }
  - { offsetInCU: 0x9696, offset: 0x9696, size: 0x8, addend: 0x0, symName: __ZNKSt3__112basic_stringIcNS_11char_traitsIcEENS_9allocatorIcEEE16__get_short_sizeB7v160006Ev, symObjAddr: 0x8808, symBinAddr: 0x10000ADD8, symSize: 0x1F8 }
  - { offsetInCU: 0x96BB, offset: 0x96BB, size: 0x8, addend: 0x0, symName: __ZNKSt3__112basic_stringIcNS_11char_traitsIcEENS_9allocatorIcEEE13__get_pointerB7v160006Ev, symObjAddr: 0x8A48, symBinAddr: 0x10000B018, symSize: 0x98 }
  - { offsetInCU: 0x96E0, offset: 0x96E0, size: 0x8, addend: 0x0, symName: __ZNKSt3__112basic_stringIcNS_11char_traitsIcEENS_9allocatorIcEEE18__get_long_pointerB7v160006Ev, symObjAddr: 0x8AE0, symBinAddr: 0x10000B0B0, symSize: 0x208 }
  - { offsetInCU: 0x9705, offset: 0x9705, size: 0x8, addend: 0x0, symName: __ZNKSt3__112basic_stringIcNS_11char_traitsIcEENS_9allocatorIcEEE19__get_short_pointerB7v160006Ev, symObjAddr: 0x8CE8, symBinAddr: 0x10000B2B8, symSize: 0x1CC }
  - { offsetInCU: 0x972A, offset: 0x972A, size: 0x8, addend: 0x0, symName: __ZNSt3__114pointer_traitsIPKcE10pointer_toB7v160006ERS1_, symObjAddr: 0x8EB4, symBinAddr: 0x10000B484, symSize: 0x14 }
  - { offsetInCU: 0x975C, offset: 0x975C, size: 0x8, addend: 0x0, symName: __ZNKSt3__16__lessImmEclB7v160006ERKmS3_, symObjAddr: 0x9188, symBinAddr: 0x10000B758, symSize: 0xEC }
  - { offsetInCU: 0x979C, offset: 0x979C, size: 0x8, addend: 0x0, symName: __ZNSt3__117basic_string_viewIcNS_11char_traitsIcEEEC1B7v160006EPKcm, symObjAddr: 0x9274, symBinAddr: 0x10000B844, symSize: 0x88 }
  - { offsetInCU: 0x97E2, offset: 0x97E2, size: 0x8, addend: 0x0, symName: __ZNSt3__117basic_string_viewIcNS_11char_traitsIcEEEC2B7v160006EPKcm, symObjAddr: 0x92FC, symBinAddr: 0x10000B8CC, symSize: 0x128 }
  - { offsetInCU: 0x9833, offset: 0x9833, size: 0x8, addend: 0x0, symName: __ZNKSt3__17greaterINS_12basic_stringIcNS_11char_traitsIcEENS_9allocatorIcEEEEEclB7v160006ERKS6_S9_, symObjAddr: 0x9424, symBinAddr: 0x10000B9F4, symSize: 0xF0 }
  - { offsetInCU: 0x9880, offset: 0x9880, size: 0x8, addend: 0x0, symName: __ZNKSt3__17greaterIdEclB7v160006ERKdS3_, symObjAddr: 0x9514, symBinAddr: 0x10000BAE4, symSize: 0xEC }
  - { offsetInCU: 0x98CD, offset: 0x98CD, size: 0x8, addend: 0x0, symName: __ZNKSt3__17greaterIiEclB7v160006ERKiS3_, symObjAddr: 0x9600, symBinAddr: 0x10000BBD0, symSize: 0x13C }
  - { offsetInCU: 0x991A, offset: 0x991A, size: 0x8, addend: 0x0, symName: __ZNKSt3__17greaterIbEclB7v160006ERKbS3_, symObjAddr: 0x973C, symBinAddr: 0x10000BD0C, symSize: 0x19C }
  - { offsetInCU: 0x9967, offset: 0x9967, size: 0x8, addend: 0x0, symName: __ZNKSt3__18equal_toINS_12basic_stringIcNS_11char_traitsIcEENS_9allocatorIcEEEEEclB7v160006ERKS6_S9_, symObjAddr: 0x9998, symBinAddr: 0x10000BF68, symSize: 0xF0 }
  - { offsetInCU: 0x99B4, offset: 0x99B4, size: 0x8, addend: 0x0, symName: __ZNKSt3__18equal_toIdEclB7v160006ERKdS3_, symObjAddr: 0x9A88, symBinAddr: 0x10000C058, symSize: 0xEC }
  - { offsetInCU: 0x9A01, offset: 0x9A01, size: 0x8, addend: 0x0, symName: __ZNKSt3__18equal_toIiEclB7v160006ERKiS3_, symObjAddr: 0x9B74, symBinAddr: 0x10000C144, symSize: 0x13C }
  - { offsetInCU: 0x9A4E, offset: 0x9A4E, size: 0x8, addend: 0x0, symName: __ZNKSt3__18equal_toIbEclB7v160006ERKbS3_, symObjAddr: 0x9CB0, symBinAddr: 0x10000C280, symSize: 0x19C }
  - { offsetInCU: 0x9A9B, offset: 0x9A9B, size: 0x8, addend: 0x0, symName: __ZNKSt3__112not_equal_toINS_12basic_stringIcNS_11char_traitsIcEENS_9allocatorIcEEEEEclB7v160006ERKS6_S9_, symObjAddr: 0xA2A4, symBinAddr: 0x10000C874, symSize: 0xF0 }
  - { offsetInCU: 0x9AE8, offset: 0x9AE8, size: 0x8, addend: 0x0, symName: __ZNKSt3__112not_equal_toIdEclB7v160006ERKdS3_, symObjAddr: 0xA394, symBinAddr: 0x10000C964, symSize: 0xEC }
  - { offsetInCU: 0x9B35, offset: 0x9B35, size: 0x8, addend: 0x0, symName: __ZNKSt3__112not_equal_toIiEclB7v160006ERKiS3_, symObjAddr: 0xA480, symBinAddr: 0x10000CA50, symSize: 0x13C }
  - { offsetInCU: 0x9B82, offset: 0x9B82, size: 0x8, addend: 0x0, symName: __ZNKSt3__112not_equal_toIbEclB7v160006ERKbS3_, symObjAddr: 0xA5BC, symBinAddr: 0x10000CB8C, symSize: 0x19C }
  - { offsetInCU: 0x9BC5, offset: 0x9BC5, size: 0x8, addend: 0x0, symName: __ZNSt3__121__murmur2_or_cityhashImLm64EEclEPKvm, symObjAddr: 0xAA08, symBinAddr: 0x10000CFD8, symSize: 0x1C6C }
  - { offsetInCU: 0x9C71, offset: 0x9C71, size: 0x8, addend: 0x0, symName: __ZNSt3__121__murmur2_or_cityhashImLm64EE18__hash_len_0_to_16EPKcm, symObjAddr: 0xC674, symBinAddr: 0x10000EC44, symSize: 0x88C }
  - { offsetInCU: 0x9D52, offset: 0x9D52, size: 0x8, addend: 0x0, symName: __ZNSt3__121__murmur2_or_cityhashImLm64EE19__hash_len_17_to_32EPKcm, symObjAddr: 0xCF00, symBinAddr: 0x10000F4D0, symSize: 0x494 }
  - { offsetInCU: 0x9DBB, offset: 0x9DBB, size: 0x8, addend: 0x0, symName: __ZNSt3__121__murmur2_or_cityhashImLm64EE19__hash_len_33_to_64EPKcm, symObjAddr: 0xD394, symBinAddr: 0x10000F964, symSize: 0xBEC }
  - { offsetInCU: 0x9E6F, offset: 0x9E6F, size: 0x8, addend: 0x0, symName: __ZNSt3__121__murmur2_or_cityhashImLm64EE13__hash_len_16Emm, symObjAddr: 0xE194, symBinAddr: 0x100010764, symSize: 0xF0 }
  - { offsetInCU: 0x9ECA, offset: 0x9ECA, size: 0x8, addend: 0x0, symName: __ZNSt3__121__murmur2_or_cityhashImLm64EE29__weak_hash_len_32_with_seedsEPKcmm, symObjAddr: 0xE284, symBinAddr: 0x100010854, symSize: 0x42C }
  - { offsetInCU: 0x9F0C, offset: 0x9F0C, size: 0x8, addend: 0x0, symName: __ZNSt3__121__murmur2_or_cityhashImLm64EE8__rotateEmi, symObjAddr: 0xE6B0, symBinAddr: 0x100010C80, symSize: 0x11C }
  - { offsetInCU: 0x9F3D, offset: 0x9F3D, size: 0x8, addend: 0x0, symName: __ZNSt3__14pairImmEaSB7v160006EOS1_, symObjAddr: 0xE7CC, symBinAddr: 0x100010D9C, symSize: 0x248 }
  - { offsetInCU: 0x9F71, offset: 0x9F71, size: 0x8, addend: 0x0, symName: __ZNSt3__121__murmur2_or_cityhashImLm64EE11__shift_mixEm, symObjAddr: 0xEBD4, symBinAddr: 0x1000111A4, symSize: 0x5C }
  - { offsetInCU: 0x9F94, offset: 0x9F94, size: 0x8, addend: 0x0, symName: __ZNSt3__121__murmur2_or_cityhashImLm64EE22__rotate_by_at_least_1Emi, symObjAddr: 0xEC30, symBinAddr: 0x100011200, symSize: 0xF0 }
  - { offsetInCU: 0x9FC5, offset: 0x9FC5, size: 0x8, addend: 0x0, symName: __ZNSt3__121__murmur2_or_cityhashImLm64EE29__weak_hash_len_32_with_seedsEmmmmmm, symObjAddr: 0xEF60, symBinAddr: 0x100011530, symSize: 0x398 }
  - { offsetInCU: 0xA047, offset: 0xA047, size: 0x8, addend: 0x0, symName: __ZNSt3__14pairImmEC1B7v160006ImmLPv0EEEOT_OT0_, symObjAddr: 0xF2F8, symBinAddr: 0x1000118C8, symSize: 0x88 }
  - { offsetInCU: 0xA0A3, offset: 0xA0A3, size: 0x8, addend: 0x0, symName: __ZNSt3__14pairImmEC2B7v160006ImmLPv0EEEOT_OT0_, symObjAddr: 0xF380, symBinAddr: 0x100011950, symSize: 0x210 }
  - { offsetInCU: 0xA11E, offset: 0xA11E, size: 0x8, addend: 0x0, symName: __ZNKSt3__113basic_ostreamIcNS_11char_traitsIcEEE6sentrycvbB7v160006Ev, symObjAddr: 0x105CC, symBinAddr: 0x100012B9C, symSize: 0x104 }
  - { offsetInCU: 0xA142, offset: 0xA142, size: 0x8, addend: 0x0, symName: __ZNSt3__119ostreambuf_iteratorIcNS_11char_traitsIcEEEC1B7v160006ERNS_13basic_ostreamIcS2_EE, symObjAddr: 0x11258, symBinAddr: 0x100013828, symSize: 0x80 }
  - { offsetInCU: 0xA179, offset: 0xA179, size: 0x8, addend: 0x0, symName: __ZNKSt3__18ios_base5flagsB7v160006Ev, symObjAddr: 0x112D8, symBinAddr: 0x1000138A8, symSize: 0x160 }
  - { offsetInCU: 0xA1A0, offset: 0xA1A0, size: 0x8, addend: 0x0, symName: __ZNKSt3__19basic_iosIcNS_11char_traitsIcEEE4fillB7v160006Ev, symObjAddr: 0x11438, symBinAddr: 0x100013A08, symSize: 0x39C }
  - { offsetInCU: 0xA1C7, offset: 0xA1C7, size: 0x8, addend: 0x0, symName: __ZNKSt3__119ostreambuf_iteratorIcNS_11char_traitsIcEEE6failedB7v160006Ev, symObjAddr: 0x117D4, symBinAddr: 0x100013DA4, symSize: 0xB8 }
  - { offsetInCU: 0xA1EC, offset: 0xA1EC, size: 0x8, addend: 0x0, symName: __ZNSt3__19basic_iosIcNS_11char_traitsIcEEE8setstateB7v160006Ej, symObjAddr: 0x1188C, symBinAddr: 0x100013E5C, symSize: 0x128 }
  - { offsetInCU: 0xA220, offset: 0xA220, size: 0x8, addend: 0x0, symName: __ZNKSt3__18ios_base5widthB7v160006Ev, symObjAddr: 0x119B4, symBinAddr: 0x100013F84, symSize: 0x138 }
  - { offsetInCU: 0xA247, offset: 0xA247, size: 0x8, addend: 0x0, symName: __ZNSt3__115basic_streambufIcNS_11char_traitsIcEEE5sputnB7v160006EPKcl, symObjAddr: 0x11AEC, symBinAddr: 0x1000140BC, symSize: 0x198 }
  - { offsetInCU: 0xA287, offset: 0xA287, size: 0x8, addend: 0x0, symName: __ZNSt3__112basic_stringIcNS_11char_traitsIcEENS_9allocatorIcEEEC1B7v160006Emc, symObjAddr: 0x11C84, symBinAddr: 0x100014254, symSize: 0x88 }
  - { offsetInCU: 0xA2CE, offset: 0xA2CE, size: 0x8, addend: 0x0, symName: __ZNSt3__112basic_stringIcNS_11char_traitsIcEENS_9allocatorIcEEE4dataB7v160006Ev, symObjAddr: 0x11D0C, symBinAddr: 0x1000142DC, symSize: 0x70 }
  - { offsetInCU: 0xA2F3, offset: 0xA2F3, size: 0x8, addend: 0x0, symName: __ZNSt3__18ios_base5widthB7v160006El, symObjAddr: 0x11D7C, symBinAddr: 0x10001434C, symSize: 0x1F8 }
  - { offsetInCU: 0xA337, offset: 0xA337, size: 0x8, addend: 0x0, symName: __ZNSt3__112basic_stringIcNS_11char_traitsIcEENS_9allocatorIcEEEC2B7v160006Emc, symObjAddr: 0x11F74, symBinAddr: 0x100014544, symSize: 0x274 }
  - { offsetInCU: 0xA381, offset: 0xA381, size: 0x8, addend: 0x0, symName: __ZNSt3__112basic_stringIcNS_11char_traitsIcEENS_9allocatorIcEEE13__get_pointerB7v160006Ev, symObjAddr: 0x121FC, symBinAddr: 0x1000147CC, symSize: 0x98 }
  - { offsetInCU: 0xA3A6, offset: 0xA3A6, size: 0x8, addend: 0x0, symName: __ZNSt3__112basic_stringIcNS_11char_traitsIcEENS_9allocatorIcEEE18__get_long_pointerB7v160006Ev, symObjAddr: 0x12294, symBinAddr: 0x100014864, symSize: 0x208 }
  - { offsetInCU: 0xA3CB, offset: 0xA3CB, size: 0x8, addend: 0x0, symName: __ZNSt3__112basic_stringIcNS_11char_traitsIcEENS_9allocatorIcEEE19__get_short_pointerB7v160006Ev, symObjAddr: 0x1249C, symBinAddr: 0x100014A6C, symSize: 0x1CC }
  - { offsetInCU: 0xA3F0, offset: 0xA3F0, size: 0x8, addend: 0x0, symName: __ZNSt3__114pointer_traitsIPcE10pointer_toB7v160006ERc, symObjAddr: 0x12668, symBinAddr: 0x100014C38, symSize: 0x14 }
  - { offsetInCU: 0xA412, offset: 0xA412, size: 0x8, addend: 0x0, symName: __ZNSt3__119ostreambuf_iteratorIcNS_11char_traitsIcEEEC2B7v160006ERNS_13basic_ostreamIcS2_EE, symObjAddr: 0x1267C, symBinAddr: 0x100014C4C, symSize: 0x2E8 }
  - { offsetInCU: 0xA449, offset: 0xA449, size: 0x8, addend: 0x0, symName: __ZNKSt3__19basic_iosIcNS_11char_traitsIcEEE5rdbufB7v160006Ev, symObjAddr: 0x12964, symBinAddr: 0x100014F34, symSize: 0x120 }
  - { offsetInCU: 0xA470, offset: 0xA470, size: 0x8, addend: 0x0, symName: __ZNKSt3__18ios_base5rdbufB7v160006Ev, symObjAddr: 0x12A84, symBinAddr: 0x100015054, symSize: 0x138 }
  - { offsetInCU: 0xA495, offset: 0xA495, size: 0x8, addend: 0x0, symName: __ZNSt3__111char_traitsIcE11eq_int_typeEii, symObjAddr: 0x12BBC, symBinAddr: 0x10001518C, symSize: 0x28 }
  - { offsetInCU: 0xA4C6, offset: 0xA4C6, size: 0x8, addend: 0x0, symName: __ZNSt3__111char_traitsIcE3eofEv, symObjAddr: 0x12BE4, symBinAddr: 0x1000151B4, symSize: 0x8 }
  - { offsetInCU: 0xA4DA, offset: 0xA4DA, size: 0x8, addend: 0x0, symName: __ZNKSt3__19basic_iosIcNS_11char_traitsIcEEE5widenB7v160006Ec, symObjAddr: 0x12BEC, symBinAddr: 0x1000151BC, symSize: 0x47C }
  - { offsetInCU: 0xA549, offset: 0xA549, size: 0x8, addend: 0x0, symName: __ZNKSt3__15ctypeIcE5widenB7v160006Ec, symObjAddr: 0x131F0, symBinAddr: 0x1000157C0, symSize: 0x18C }
  - { offsetInCU: 0xA57D, offset: 0xA57D, size: 0x8, addend: 0x0, symName: __ZNSt3__18ios_base8setstateB7v160006Ej, symObjAddr: 0x1337C, symBinAddr: 0x10001594C, symSize: 0x1E0 }
  - { offsetInCU: 0x3B, offset: 0xA6DD, size: 0x8, addend: 0x0, symName: _.str, symObjAddr: 0x1A7660, symBinAddr: 0x100174140, symSize: 0x0 }
  - { offsetInCU: 0x6B, offset: 0xA70D, size: 0x8, addend: 0x0, symName: _.str.8, symObjAddr: 0x1A7680, symBinAddr: 0x100174160, symSize: 0x0 }
  - { offsetInCU: 0x88, offset: 0xA72A, size: 0x8, addend: 0x0, symName: _.str.9, symObjAddr: 0x1A76A0, symBinAddr: 0x100174180, symSize: 0x0 }
  - { offsetInCU: 0xA5, offset: 0xA747, size: 0x8, addend: 0x0, symName: _.str.10, symObjAddr: 0x1A76C0, symBinAddr: 0x1001741A0, symSize: 0x0 }
  - { offsetInCU: 0xC2, offset: 0xA764, size: 0x8, addend: 0x0, symName: _.str.11, symObjAddr: 0x1A7720, symBinAddr: 0x100174200, symSize: 0x0 }
  - { offsetInCU: 0xDF, offset: 0xA781, size: 0x8, addend: 0x0, symName: _.str.12, symObjAddr: 0x1A7740, symBinAddr: 0x100174220, symSize: 0x0 }
  - { offsetInCU: 0xFD, offset: 0xA79F, size: 0x8, addend: 0x0, symName: _.str.18, symObjAddr: 0x1A7760, symBinAddr: 0x100174240, symSize: 0x0 }
  - { offsetInCU: 0x110, offset: 0xA7B2, size: 0x8, addend: 0x0, symName: _.str.19, symObjAddr: 0x1A77C0, symBinAddr: 0x1001742A0, symSize: 0x0 }
  - { offsetInCU: 0x123, offset: 0xA7C5, size: 0x8, addend: 0x0, symName: _.str.20, symObjAddr: 0x1A77E0, symBinAddr: 0x1001742C0, symSize: 0x0 }
  - { offsetInCU: 0x142, offset: 0xA7E4, size: 0x8, addend: 0x0, symName: _.str.21, symObjAddr: 0x1A7800, symBinAddr: 0x1001742E0, symSize: 0x0 }
  - { offsetInCU: 0x155, offset: 0xA7F7, size: 0x8, addend: 0x0, symName: _.str.22, symObjAddr: 0x1A7820, symBinAddr: 0x100174300, symSize: 0x0 }
  - { offsetInCU: 0x174, offset: 0xA816, size: 0x8, addend: 0x0, symName: _.str.23, symObjAddr: 0x1A7860, symBinAddr: 0x100174340, symSize: 0x0 }
  - { offsetInCU: 0x187, offset: 0xA829, size: 0x8, addend: 0x0, symName: _.str.24, symObjAddr: 0x1A7880, symBinAddr: 0x100174360, symSize: 0x0 }
  - { offsetInCU: 0x19A, offset: 0xA83C, size: 0x8, addend: 0x0, symName: _.str.25, symObjAddr: 0x1A78A0, symBinAddr: 0x100174380, symSize: 0x0 }
  - { offsetInCU: 0x1AD, offset: 0xA84F, size: 0x8, addend: 0x0, symName: _.str.26, symObjAddr: 0x1A78C0, symBinAddr: 0x1001743A0, symSize: 0x0 }
  - { offsetInCU: 0x1C0, offset: 0xA862, size: 0x8, addend: 0x0, symName: _.str.27, symObjAddr: 0x1A78E0, symBinAddr: 0x1001743C0, symSize: 0x0 }
  - { offsetInCU: 0x1D3, offset: 0xA875, size: 0x8, addend: 0x0, symName: _.str.28, symObjAddr: 0x1A7900, symBinAddr: 0x1001743E0, symSize: 0x0 }
  - { offsetInCU: 0x1F2, offset: 0xA894, size: 0x8, addend: 0x0, symName: _.str.29, symObjAddr: 0x1A7920, symBinAddr: 0x100174400, symSize: 0x0 }
  - { offsetInCU: 0x210, offset: 0xA8B2, size: 0x8, addend: 0x0, symName: _.str.31, symObjAddr: 0x1A7960, symBinAddr: 0x100174440, symSize: 0x0 }
  - { offsetInCU: 0x221, offset: 0xA8C3, size: 0x8, addend: 0x0, symName: _.str.32, symObjAddr: 0x1A7980, symBinAddr: 0x100174460, symSize: 0x0 }
  - { offsetInCU: 0x23E, offset: 0xA8E0, size: 0x8, addend: 0x0, symName: _.str.33, symObjAddr: 0x1A79A0, symBinAddr: 0x100174480, symSize: 0x0 }
  - { offsetInCU: 0x24F, offset: 0xA8F1, size: 0x8, addend: 0x0, symName: _.str.34, symObjAddr: 0x1A79C0, symBinAddr: 0x1001744A0, symSize: 0x0 }
  - { offsetInCU: 0x260, offset: 0xA902, size: 0x8, addend: 0x0, symName: _.str.35, symObjAddr: 0x1A79E0, symBinAddr: 0x1001744C0, symSize: 0x0 }
  - { offsetInCU: 0x27D, offset: 0xA91F, size: 0x8, addend: 0x0, symName: _.str.36, symObjAddr: 0x1A7A20, symBinAddr: 0x100174500, symSize: 0x0 }
  - { offsetInCU: 0x29A, offset: 0xA93C, size: 0x8, addend: 0x0, symName: _.str.37, symObjAddr: 0x1A7A40, symBinAddr: 0x100174520, symSize: 0x0 }
  - { offsetInCU: 0x2AB, offset: 0xA94D, size: 0x8, addend: 0x0, symName: _.str.38, symObjAddr: 0x1A7A60, symBinAddr: 0x100174540, symSize: 0x0 }
  - { offsetInCU: 0x2C9, offset: 0xA96B, size: 0x8, addend: 0x0, symName: _.str.44, symObjAddr: 0x1A7AC0, symBinAddr: 0x1001745A0, symSize: 0x0 }
  - { offsetInCU: 0x2E9, offset: 0xA98B, size: 0x8, addend: 0x0, symName: __ZNSt3__1L19piecewise_constructE, symObjAddr: 0x149D60, symBinAddr: 0x100153540, symSize: 0x0 }
  - { offsetInCU: 0x34D, offset: 0xA9EF, size: 0x8, addend: 0x0, symName: __ZNSt3__114in_place_indexILm0EEE, symObjAddr: 0x14D568, symBinAddr: 0x100156D48, symSize: 0x0 }
  - { offsetInCU: 0x393, offset: 0xAA35, size: 0x8, addend: 0x0, symName: __ZNSt3__114in_place_indexILm1EEE, symObjAddr: 0x14D63E, symBinAddr: 0x100156E1E, symSize: 0x0 }
  - { offsetInCU: 0x3D9, offset: 0xAA7B, size: 0x8, addend: 0x0, symName: __ZNSt3__114in_place_indexILm2EEE, symObjAddr: 0x14D74C, symBinAddr: 0x100156F2C, symSize: 0x0 }
  - { offsetInCU: 0x41F, offset: 0xAAC1, size: 0x8, addend: 0x0, symName: __ZNSt3__114in_place_indexILm3EEE, symObjAddr: 0x14D896, symBinAddr: 0x100157076, symSize: 0x0 }
  - { offsetInCU: 0x465, offset: 0xAB07, size: 0x8, addend: 0x0, symName: __ZNSt3__18in_placeE, symObjAddr: 0x14E426, symBinAddr: 0x100157C06, symSize: 0x0 }
  - { offsetInCU: 0x19BA5, offset: 0x24247, size: 0x8, addend: 0x0, symName: __ZNSt3__17advanceB7v160006IPNS_12basic_stringIcNS_11char_traitsIcEENS_9allocatorIcEEEEmmvEEvRT_T0_, symObjAddr: 0x50CB4, symBinAddr: 0x10005B63C, symSize: 0x98 }
  - { offsetInCU: 0x19D54, offset: 0x243F6, size: 0x8, addend: 0x0, symName: __ZNSt3__17advanceB7v160006IP10ColumnTypemmvEEvRT_T0_, symObjAddr: 0x559C8, symBinAddr: 0x100060350, symSize: 0x98 }
  - { offsetInCU: 0x19F03, offset: 0x245A5, size: 0x8, addend: 0x0, symName: __ZNSt3__17advanceB7v160006IPNS_6vectorINS_7variantIJidbNS_12basic_stringIcNS_11char_traitsIcEENS_9allocatorIcEEEEEEENS6_IS9_EEEEmmvEEvRT_T0_, symObjAddr: 0x5B01C, symBinAddr: 0x1000659A4, symSize: 0x98 }
  - { offsetInCU: 0x19F70, offset: 0x24612, size: 0x8, addend: 0x0, symName: __ZNSt3__17advanceB7v160006IPNS_7variantIJidbNS_12basic_stringIcNS_11char_traitsIcEENS_9allocatorIcEEEEEEEmmvEEvRT_T0_, symObjAddr: 0x5EBB4, symBinAddr: 0x10006953C, symSize: 0x98 }
  - { offsetInCU: 0x1A71A, offset: 0x24DBC, size: 0x8, addend: 0x0, symName: __ZNSt3__17advanceB7v160006IPjmmvEEvRT_T0_, symObjAddr: 0x7EA54, symBinAddr: 0x1000893DC, symSize: 0x98 }
  - { offsetInCU: 0x1B79B, offset: 0x25E3D, size: 0x8, addend: 0x0, symName: __ZNSt3__17advanceB7v160006INS_11__wrap_iterIPjEEllvEEvRT_T0_, symObjAddr: 0xE57A4, symBinAddr: 0x1000EEF44, symSize: 0x98 }
  - { offsetInCU: 0x1C56E, offset: 0x26C10, size: 0x8, addend: 0x0, symName: __ZNSt3__111__introsortINS_17_ClassicAlgPolicyERNS_6__lessIjjEENS_16reverse_iteratorINS_11__wrap_iterIPjEEEEEEvT1_SA_T0_NS_15iterator_traitsISA_E15difference_typeE, symObjAddr: 0xF7104, symBinAddr: 0x1001007E4, symSize: 0x272C }
  - { offsetInCU: 0x1C71A, offset: 0x26DBC, size: 0x8, addend: 0x0, symName: __ZNSt3__118__insertion_sort_3B7v160006INS_17_ClassicAlgPolicyERNS_6__lessIjjEENS_16reverse_iteratorINS_11__wrap_iterIPjEEEEEEvT1_SA_T0_, symObjAddr: 0xFB4CC, symBinAddr: 0x100104BAC, symSize: 0xB84 }
  - { offsetInCU: 0x1C803, offset: 0x26EA5, size: 0x8, addend: 0x0, symName: __ZNSt3__111__sift_downB7v160006INS_17_ClassicAlgPolicyERNS_6__lessIjjEENS_16reverse_iteratorINS_11__wrap_iterIPjEEEEEEvT1_OT0_NS_15iterator_traitsISA_E15difference_typeESA_, symObjAddr: 0x1025D4, symBinAddr: 0x10010BCB4, symSize: 0x1000 }
  - { offsetInCU: 0x1C8C5, offset: 0x26F67, size: 0x8, addend: 0x0, symName: __ZNSt3__117__floyd_sift_downB7v160006INS_17_ClassicAlgPolicyERNS_6__lessIjjEENS_16reverse_iteratorINS_11__wrap_iterIPjEEEEEET1_SA_OT0_NS_15iterator_traitsISA_E15difference_typeE, symObjAddr: 0x1042E4, symBinAddr: 0x10010D9C4, symSize: 0x808 }
  - { offsetInCU: 0x1C96C, offset: 0x2700E, size: 0x8, addend: 0x0, symName: __ZNSt3__127__insertion_sort_incompleteIRNS_6__lessIjjEENS_16reverse_iteratorINS_11__wrap_iterIPjEEEEEEbT0_S9_T_, symObjAddr: 0xFE774, symBinAddr: 0x100107E54, symSize: 0x165C }
  - { offsetInCU: 0x2208C, offset: 0x2C72E, size: 0x8, addend: 0x0, symName: __ZNSt3__19boolalphaB7v160006ERNS_8ios_baseE, symObjAddr: 0x6C8, symBinAddr: 0x10001628C, symSize: 0x12C }
  - { offsetInCU: 0x220BB, offset: 0x2C75D, size: 0x8, addend: 0x0, symName: __ZNSt3__119__debug_db_insert_cB7v160006INS_13unordered_mapINS_12basic_stringIcNS_11char_traitsIcEENS_9allocatorIcEEEE5TableNS_4hashIS7_EENS_8equal_toIS7_EENS5_INS_4pairIKS7_S8_EEEEEEEEvPT_, symObjAddr: 0x2C84, symBinAddr: 0x100018064, symSize: 0x10 }
  - { offsetInCU: 0x220EB, offset: 0x2C78D, size: 0x8, addend: 0x0, symName: __ZNSt3__1lsB7v160006INS_11char_traitsIcEEEERNS_13basic_ostreamIcT_EES6_PKc, symObjAddr: 0x4A50, symBinAddr: 0x100019E30, symSize: 0xD0 }
  - { offsetInCU: 0x22131, offset: 0x2C7D3, size: 0x8, addend: 0x0, symName: __ZNSt3__14endlB7v160006IcNS_11char_traitsIcEEEERNS_13basic_ostreamIT_T0_EES7_, symObjAddr: 0x4C28, symBinAddr: 0x10001A008, symSize: 0x3D8 }
  - { offsetInCU: 0x22171, offset: 0x2C813, size: 0x8, addend: 0x0, symName: __ZNSt3__1rsB7v160006IcNS_11char_traitsIcEENS_9allocatorIcEEEERNS_13basic_istreamIT_T0_EES9_RNS_12basic_stringIS6_S7_T1_EE, symObjAddr: 0x9520, symBinAddr: 0x10001A504, symSize: 0x1888 }
  - { offsetInCU: 0x2224A, offset: 0x2C8EC, size: 0x8, addend: 0x0, symName: __ZNSt3__1eqB7v160006IcNS_11char_traitsIcEENS_9allocatorIcEEEEbRKNS_12basic_stringIT_T0_T1_EEPKS6_, symObjAddr: 0xADA8, symBinAddr: 0x10001BD8C, symSize: 0x120 }
  - { offsetInCU: 0x222B1, offset: 0x2C953, size: 0x8, addend: 0x0, symName: __ZNSt3__17getlineB7v160006IcNS_11char_traitsIcEENS_9allocatorIcEEEERNS_13basic_istreamIT_T0_EES9_RNS_12basic_stringIS6_S7_T1_EE, symObjAddr: 0xC56C, symBinAddr: 0x10001D550, symSize: 0x330 }
  - { offsetInCU: 0x22309, offset: 0x2C9AB, size: 0x8, addend: 0x0, symName: __ZNSt3__1neB7v160006IcNS_11char_traitsIcEENS_9allocatorIcEEEEbRKNS_12basic_stringIT_T0_T1_EEPKS6_, symObjAddr: 0x1FE40, symBinAddr: 0x100030E24, symSize: 0x7C }
  - { offsetInCU: 0x22557, offset: 0x2CBF9, size: 0x8, addend: 0x0, symName: __ZNSt3__125__debug_db_invalidate_allB7v160006INS_12basic_stringIcNS_11char_traitsIcEENS_9allocatorIcEEEEEEvPT_, symObjAddr: 0x216F0, symBinAddr: 0x1000326D4, symSize: 0x10 }
  - { offsetInCU: 0x22587, offset: 0x2CC29, size: 0x8, addend: 0x0, symName: __ZNSt3__1eqB7v160006ERKNS_19__hash_map_iteratorINS_15__hash_iteratorIPNS_11__hash_nodeINS_17__hash_value_typeINS_12basic_stringIcNS_11char_traitsIcEENS_9allocatorIcEEEE5TableEEPvEEEEEESI_, symObjAddr: 0x22B24, symBinAddr: 0x100033668, symSize: 0xC0 }
  - { offsetInCU: 0x225C4, offset: 0x2CC66, size: 0x8, addend: 0x0, symName: __ZNSt3__1neB7v160006IPNS_12basic_stringIcNS_11char_traitsIcEENS_9allocatorIcEEEEEEbRKNS_11__wrap_iterIT_EESC_, symObjAddr: 0x2499C, symBinAddr: 0x1000353B4, symSize: 0xC4 }
  - { offsetInCU: 0x22608, offset: 0x2CCAA, size: 0x8, addend: 0x0, symName: __ZNSt3__119__debug_db_insert_cB7v160006INS_6vectorINS_12basic_stringIcNS_11char_traitsIcEENS_9allocatorIcEEEENS5_IS7_EEEEEEvPT_, symObjAddr: 0x254E0, symBinAddr: 0x100035EF8, symSize: 0x10 }
  - { offsetInCU: 0x22639, offset: 0x2CCDB, size: 0x8, addend: 0x0, symName: __ZNSt3__119__debug_db_insert_cB7v160006INS_6vectorI10ColumnTypeNS_9allocatorIS2_EEEEEEvPT_, symObjAddr: 0x25C1C, symBinAddr: 0x100036634, symSize: 0x10 }
  - { offsetInCU: 0x2266A, offset: 0x2CD0C, size: 0x8, addend: 0x0, symName: __ZNSt3__119__debug_db_insert_cB7v160006INS_6vectorINS1_INS_7variantIJidbNS_12basic_stringIcNS_11char_traitsIcEENS_9allocatorIcEEEEEEENS6_IS9_EEEENS6_ISB_EEEEEEvPT_, symObjAddr: 0x26358, symBinAddr: 0x100036D70, symSize: 0x10 }
  - { offsetInCU: 0x2269B, offset: 0x2CD3D, size: 0x8, addend: 0x0, symName: __ZNSt3__119__debug_db_insert_cB7v160006INS_13unordered_mapINS_7variantIJidbNS_12basic_stringIcNS_11char_traitsIcEENS_9allocatorIcEEEEEEENS_6vectorIjNS6_IjEEEENS_4hashIS9_EENS_8equal_toIS9_EENS6_INS_4pairIKS9_SC_EEEEEEEEvPT_, symObjAddr: 0x267CC, symBinAddr: 0x1000371E4, symSize: 0x10 }
  - { offsetInCU: 0x226FF, offset: 0x2CDA1, size: 0x8, addend: 0x0, symName: __ZNSt3__112__to_addressB7v160006INS_12basic_stringIcNS_11char_traitsIcEENS_9allocatorIcEEEEEEPT_S8_, symObjAddr: 0x2B660, symBinAddr: 0x10003C078, symSize: 0x14 }
  - { offsetInCU: 0x22733, offset: 0x2CDD5, size: 0x8, addend: 0x0, symName: __ZNSt3__13maxB7v160006ImEERKT_S3_S3_, symObjAddr: 0x2D1F0, symBinAddr: 0x10003DC08, symSize: 0x104 }
  - { offsetInCU: 0x22777, offset: 0x2CE19, size: 0x8, addend: 0x0, symName: __ZNSt3__120__throw_length_errorB7v160006EPKc, symObjAddr: 0x2DA78, symBinAddr: 0x10003DFE0, symSize: 0xB4 }
  - { offsetInCU: 0x2279F, offset: 0x2CE41, size: 0x8, addend: 0x0, symName: __ZNSt3__13maxB7v160006ImNS_6__lessImmEEEERKT_S5_S5_T0_, symObjAddr: 0x2DCD4, symBinAddr: 0x10003E23C, symSize: 0x2C0 }
  - { offsetInCU: 0x227FF, offset: 0x2CEA1, size: 0x8, addend: 0x0, symName: __ZNSt3__119__allocate_at_leastB7v160006INS_9allocatorINS_12basic_stringIcNS_11char_traitsIcEENS1_IcEEEEEEEENS_19__allocation_resultINS_16allocator_traitsIT_E7pointerEEERSA_m, symObjAddr: 0x2E804, symBinAddr: 0x10003ED6C, symSize: 0x28C }
  - { offsetInCU: 0x22844, offset: 0x2CEE6, size: 0x8, addend: 0x0, symName: __ZNSt3__117__libcpp_allocateB7v160006Emm, symObjAddr: 0x2F044, symBinAddr: 0x10003F5AC, symSize: 0x60 }
  - { offsetInCU: 0x228A0, offset: 0x2CF42, size: 0x8, addend: 0x0, symName: __ZNSt3__124__is_overaligned_for_newB7v160006Em, symObjAddr: 0x2F0A4, symBinAddr: 0x10003F60C, symSize: 0x20 }
  - { offsetInCU: 0x228CE, offset: 0x2CF70, size: 0x8, addend: 0x0, symName: __ZNSt3__121__libcpp_operator_newB7v160006IJmSt11align_val_tEEEPvDpT_, symObjAddr: 0x2F0C4, symBinAddr: 0x10003F62C, symSize: 0x6C }
  - { offsetInCU: 0x2291C, offset: 0x2CFBE, size: 0x8, addend: 0x0, symName: __ZNSt3__121__libcpp_operator_newB7v160006IJmEEEPvDpT_, symObjAddr: 0x2F130, symBinAddr: 0x10003F698, symSize: 0x24 }
  - { offsetInCU: 0x22956, offset: 0x2CFF8, size: 0x8, addend: 0x0, symName: __ZNSt3__142__uninitialized_allocator_move_if_noexceptB7v160006INS_9allocatorINS_12basic_stringIcNS_11char_traitsIcEENS1_IcEEEEEENS_16reverse_iteratorIPS6_EESA_SA_EET2_RT_T0_T1_SB_, symObjAddr: 0x2FD88, symBinAddr: 0x1000402F0, symSize: 0x5D8 }
  - { offsetInCU: 0x22A0B, offset: 0x2D0AD, size: 0x8, addend: 0x0, symName: __ZNSt3__14swapB7v160006IPNS_12basic_stringIcNS_11char_traitsIcEENS_9allocatorIcEEEEEENS_9enable_ifIXaasr21is_move_constructibleIT_EE5valuesr18is_move_assignableIS9_EE5valueEvE4typeERS9_SC_, symObjAddr: 0x30490, symBinAddr: 0x1000409F8, symSize: 0x1C0 }
  - { offsetInCU: 0x22A5D, offset: 0x2D0FF, size: 0x8, addend: 0x0, symName: __ZNSt3__125__debug_db_invalidate_allB7v160006INS_6vectorINS_12basic_stringIcNS_11char_traitsIcEENS_9allocatorIcEEEENS5_IS7_EEEEEEvPT_, symObjAddr: 0x309C8, symBinAddr: 0x100040F30, symSize: 0x10 }
  - { offsetInCU: 0x22A8D, offset: 0x2D12F, size: 0x8, addend: 0x0, symName: __ZNSt3__122__make_exception_guardB7v160006INS_29_AllocatorDestroyRangeReverseINS_9allocatorINS_12basic_stringIcNS_11char_traitsIcEENS2_IcEEEEEENS_16reverse_iteratorIPS7_EEEEEENS_28__exception_guard_exceptionsIT_EESE_, symObjAddr: 0x309D8, symBinAddr: 0x100040F40, symSize: 0x23C }
  - { offsetInCU: 0x22AC4, offset: 0x2D166, size: 0x8, addend: 0x0, symName: __ZNSt3__1neB7v160006IPNS_12basic_stringIcNS_11char_traitsIcEENS_9allocatorIcEEEES7_EEbRKNS_16reverse_iteratorIT_EERKNS8_IT0_EE, symObjAddr: 0x30CA4, symBinAddr: 0x10004120C, symSize: 0x9C }
  - { offsetInCU: 0x22B10, offset: 0x2D1B2, size: 0x8, addend: 0x0, symName: __ZNSt3__112__to_addressB7v160006INS_16reverse_iteratorIPNS_12basic_stringIcNS_11char_traitsIcEENS_9allocatorIcEEEEEEvEENS_5decayIDTclsr19__to_address_helperIT_EE6__callclsr3stdE7declvalIRKSB_EEEEE4typeESD_, symObjAddr: 0x30DCC, symBinAddr: 0x100041334, symSize: 0x6C }
  - { offsetInCU: 0x22B71, offset: 0x2D213, size: 0x8, addend: 0x0, symName: __ZNSt3__119__allocator_destroyB7v160006INS_9allocatorINS_12basic_stringIcNS_11char_traitsIcEENS1_IcEEEEEENS_16reverse_iteratorINS8_IPS6_EEEESB_EEvRT_T0_T1_, symObjAddr: 0x31F28, symBinAddr: 0x100042308, symSize: 0x1A4 }
  - { offsetInCU: 0x22BD7, offset: 0x2D279, size: 0x8, addend: 0x0, symName: __ZNSt3__1neB7v160006INS_16reverse_iteratorIPNS_12basic_stringIcNS_11char_traitsIcEENS_9allocatorIcEEEEEES9_EEbRKNS1_IT_EERKNS1_IT0_EE, symObjAddr: 0x32368, symBinAddr: 0x100042748, symSize: 0x324 }
  - { offsetInCU: 0x22C25, offset: 0x2D2C7, size: 0x8, addend: 0x0, symName: __ZNSt3__112__to_addressB7v160006INS_16reverse_iteratorINS1_IPNS_12basic_stringIcNS_11char_traitsIcEENS_9allocatorIcEEEEEEEEvEENS_5decayIDTclsr19__to_address_helperIT_EE6__callclsr3stdE7declvalIRKSC_EEEEE4typeESE_, symObjAddr: 0x326B8, symBinAddr: 0x100042A98, symSize: 0x6C }
  - { offsetInCU: 0x22C86, offset: 0x2D328, size: 0x8, addend: 0x0, symName: __ZNSt3__119__libcpp_deallocateB7v160006EPvmm, symObjAddr: 0x33AA4, symBinAddr: 0x100043E84, symSize: 0x60 }
  - { offsetInCU: 0x22CED, offset: 0x2D38F, size: 0x8, addend: 0x0, symName: __ZNSt3__127__do_deallocate_handle_sizeB7v160006IJSt11align_val_tEEEvPvmDpT_, symObjAddr: 0x33B04, symBinAddr: 0x100043EE4, symSize: 0x30 }
  - { offsetInCU: 0x22D42, offset: 0x2D3E4, size: 0x8, addend: 0x0, symName: __ZNSt3__127__do_deallocate_handle_sizeB7v160006IJEEEvPvmDpT_, symObjAddr: 0x33B34, symBinAddr: 0x100043F14, symSize: 0x28 }
  - { offsetInCU: 0x22D82, offset: 0x2D424, size: 0x8, addend: 0x0, symName: __ZNSt3__124__libcpp_operator_deleteB7v160006IJPvSt11align_val_tEEEvDpT_, symObjAddr: 0x33B5C, symBinAddr: 0x100043F3C, symSize: 0x2C }
  - { offsetInCU: 0x22DCD, offset: 0x2D46F, size: 0x8, addend: 0x0, symName: __ZNSt3__124__libcpp_operator_deleteB7v160006IJPvEEEvDpT_, symObjAddr: 0x33B88, symBinAddr: 0x100043F68, symSize: 0x24 }
  - { offsetInCU: 0x22E05, offset: 0x2D4A7, size: 0x8, addend: 0x0, symName: __ZNSt3__112__to_addressB7v160006I10ColumnTypeEEPT_S3_, symObjAddr: 0x363B4, symBinAddr: 0x100046794, symSize: 0x14 }
  - { offsetInCU: 0x22E39, offset: 0x2D4DB, size: 0x8, addend: 0x0, symName: __ZNSt3__119__allocate_at_leastB7v160006INS_9allocatorI10ColumnTypeEEEENS_19__allocation_resultINS_16allocator_traitsIT_E7pointerEEERS6_m, symObjAddr: 0x38A6C, symBinAddr: 0x100048E4C, symSize: 0x28C }
  - { offsetInCU: 0x22E7E, offset: 0x2D520, size: 0x8, addend: 0x0, symName: __ZNSt3__142__uninitialized_allocator_move_if_noexceptB7v160006INS_9allocatorI10ColumnTypeEENS_16reverse_iteratorIPS2_EES6_S2_vEET1_RT_T0_SA_S7_, symObjAddr: 0x39E40, symBinAddr: 0x10004A220, symSize: 0x4A8 }
  - { offsetInCU: 0x22F0A, offset: 0x2D5AC, size: 0x8, addend: 0x0, symName: __ZNSt3__14swapB7v160006IP10ColumnTypeEENS_9enable_ifIXaasr21is_move_constructibleIT_EE5valuesr18is_move_assignableIS4_EE5valueEvE4typeERS4_S7_, symObjAddr: 0x3A418, symBinAddr: 0x10004A7F8, symSize: 0x1C0 }
  - { offsetInCU: 0x22F5C, offset: 0x2D5FE, size: 0x8, addend: 0x0, symName: __ZNSt3__125__debug_db_invalidate_allB7v160006INS_6vectorI10ColumnTypeNS_9allocatorIS2_EEEEEEvPT_, symObjAddr: 0x3A938, symBinAddr: 0x10004AD18, symSize: 0x10 }
  - { offsetInCU: 0x22F8C, offset: 0x2D62E, size: 0x8, addend: 0x0, symName: __ZNSt3__14moveB7v160006INS_16reverse_iteratorIP10ColumnTypeEES4_EET0_T_S6_S5_, symObjAddr: 0x3A948, symBinAddr: 0x10004AD28, symSize: 0x4B0 }
  - { offsetInCU: 0x22FF3, offset: 0x2D695, size: 0x8, addend: 0x0, symName: __ZNSt3__16__moveB7v160006INS_17_ClassicAlgPolicyENS_16reverse_iteratorIP10ColumnTypeEES5_S5_EENS_4pairIT0_T2_EES7_T1_S8_, symObjAddr: 0x3ADF8, symBinAddr: 0x10004B1D8, symSize: 0x424 }
  - { offsetInCU: 0x2306B, offset: 0x2D70D, size: 0x8, addend: 0x0, symName: __ZNSt3__123__dispatch_copy_or_moveB7v160006INS_17_ClassicAlgPolicyENS_11__move_loopIS1_EENS_14__move_trivialENS_16reverse_iteratorIP10ColumnTypeEES8_S8_EENS_4pairIT2_T4_EESA_T3_SB_, symObjAddr: 0x3B21C, symBinAddr: 0x10004B5FC, symSize: 0x424 }
  - { offsetInCU: 0x230F5, offset: 0x2D797, size: 0x8, addend: 0x0, symName: __ZNSt3__121__unwrap_and_dispatchB7v160006INS_10__overloadINS_11__move_loopINS_17_ClassicAlgPolicyEEENS_14__move_trivialEEENS_16reverse_iteratorIP10ColumnTypeEESA_SA_Li0EEENS_4pairIT0_T2_EESC_T1_SD_, symObjAddr: 0x3B640, symBinAddr: 0x10004BA20, symSize: 0x880 }
  - { offsetInCU: 0x2319A, offset: 0x2D83C, size: 0x8, addend: 0x0, symName: __ZNSt3__114__unwrap_rangeB7v160006INS_16reverse_iteratorIP10ColumnTypeEES4_EENS_4pairIT0_S6_EET_S8_, symObjAddr: 0x3BEC0, symBinAddr: 0x10004C2A0, symSize: 0x448 }
  - { offsetInCU: 0x2339B, offset: 0x2DA3D, size: 0x8, addend: 0x0, symName: __ZNSt3__113__unwrap_iterB7v160006INS_16reverse_iteratorIP10ColumnTypeEENS_18__unwrap_iter_implIS4_Lb0EEELi0EEEDTclsrT0_8__unwrapclsr3stdE7declvalIT_EEEES8_, symObjAddr: 0x3C774, symBinAddr: 0x10004CB54, symSize: 0x2EC }
  - { offsetInCU: 0x233E4, offset: 0x2DA86, size: 0x8, addend: 0x0, symName: __ZNSt3__19make_pairB7v160006INS_16reverse_iteratorIP10ColumnTypeEES4_EENS_4pairINS_18__unwrap_ref_decayIT_E4typeENS6_IT0_E4typeEEEOS7_OSA_, symObjAddr: 0x3CA60, symBinAddr: 0x10004CE40, symSize: 0x108 }
  - { offsetInCU: 0x23433, offset: 0x2DAD5, size: 0x8, addend: 0x0, symName: __ZNSt3__114__rewrap_rangeB7v160006INS_16reverse_iteratorIP10ColumnTypeEES4_EET_S5_T0_, symObjAddr: 0x3CB68, symBinAddr: 0x10004CF48, symSize: 0x3D4 }
  - { offsetInCU: 0x23487, offset: 0x2DB29, size: 0x8, addend: 0x0, symName: __ZNSt3__113__rewrap_iterB7v160006INS_16reverse_iteratorIP10ColumnTypeEES4_NS_18__unwrap_iter_implIS4_Lb0EEEEET_S7_T0_, symObjAddr: 0x3CF3C, symBinAddr: 0x10004D31C, symSize: 0x3E8 }
  - { offsetInCU: 0x234E4, offset: 0x2DB86, size: 0x8, addend: 0x0, symName: __ZNSt3__1neB7v160006IP10ColumnTypeS2_EEbRKNS_16reverse_iteratorIT_EERKNS3_IT0_EE, symObjAddr: 0x3D324, symBinAddr: 0x10004D704, symSize: 0x9C }
  - { offsetInCU: 0x236C6, offset: 0x2DD68, size: 0x8, addend: 0x0, symName: __ZNSt3__1eqB7v160006ERKNS_15__hash_iteratorIPNS_11__hash_nodeINS_17__hash_value_typeINS_12basic_stringIcNS_11char_traitsIcEENS_9allocatorIcEEEE5TableEEPvEEEESG_, symObjAddr: 0x3EA9C, symBinAddr: 0x10004EE7C, symSize: 0x114 }
  - { offsetInCU: 0x23703, offset: 0x2DDA5, size: 0x8, addend: 0x0, symName: __ZNSt3__116__constrain_hashB7v160006Emm, symObjAddr: 0x3F9D0, symBinAddr: 0x10004FDB0, symSize: 0xDC }
  - { offsetInCU: 0x2373D, offset: 0x2DDDF, size: 0x8, addend: 0x0, symName: __ZNSt3__17launderB7v160006IKNS_4pairIKNS_12basic_stringIcNS_11char_traitsIcEENS_9allocatorIcEEEE5TableEEEEPT_SD_, symObjAddr: 0x46A74, symBinAddr: 0x1000513FC, symSize: 0x24 }
  - { offsetInCU: 0x23775, offset: 0x2DE17, size: 0x8, addend: 0x0, symName: __ZNSt3__19__launderB7v160006IKNS_4pairIKNS_12basic_stringIcNS_11char_traitsIcEENS_9allocatorIcEEEE5TableEEEEPT_SD_, symObjAddr: 0x46A98, symBinAddr: 0x100051420, symSize: 0x14 }
  - { offsetInCU: 0x23817, offset: 0x2DEB9, size: 0x8, addend: 0x0, symName: __ZNSt3__116forward_as_tupleB7v160006IJRKNS_12basic_stringIcNS_11char_traitsIcEENS_9allocatorIcEEEEEEENS_5tupleIJDpOT_EEESC_, symObjAddr: 0x48B0C, symBinAddr: 0x100053494, symSize: 0x244 }
  - { offsetInCU: 0x23853, offset: 0x2DEF5, size: 0x8, addend: 0x0, symName: __ZNSt3__116forward_as_tupleB7v160006IJEEENS_5tupleIJDpOT_EEES4_, symObjAddr: 0x48D50, symBinAddr: 0x1000536D8, symSize: 0x4 }
  - { offsetInCU: 0x23879, offset: 0x2DF1B, size: 0x8, addend: 0x0, symName: __ZNSt3__116__is_hash_power2B7v160006Em, symObjAddr: 0x49B54, symBinAddr: 0x1000544DC, symSize: 0x50 }
  - { offsetInCU: 0x238CE, offset: 0x2DF70, size: 0x8, addend: 0x0, symName: __ZNSt3__13getB7v160006ILm0EJRKNS_12basic_stringIcNS_11char_traitsIcEENS_9allocatorIcEEEEEEERNS_13tuple_elementIXT_ENS_5tupleIJDpT0_EEEE4typeERSD_, symObjAddr: 0x4B9AC, symBinAddr: 0x100056334, symSize: 0xE0 }
  - { offsetInCU: 0x23912, offset: 0x2DFB4, size: 0x8, addend: 0x0, symName: __ZNSt3__116__next_hash_pow2B7v160006Em, symObjAddr: 0x4DB50, symBinAddr: 0x1000584D8, symSize: 0xCC }
  - { offsetInCU: 0x2393F, offset: 0x2DFE1, size: 0x8, addend: 0x0, symName: __ZNSt3__125__debug_db_invalidate_allB7v160006INS_12__hash_tableINS_17__hash_value_typeINS_12basic_stringIcNS_11char_traitsIcEENS_9allocatorIcEEEE5TableEENS_22__unordered_map_hasherIS8_SA_NS_4hashIS8_EENS_8equal_toIS8_EELb1EEENS_21__unordered_map_equalIS8_SA_SF_SD_Lb1EEENS6_ISA_EEEEEEvPT_, symObjAddr: 0x4DC1C, symBinAddr: 0x1000585A4, symSize: 0x10 }
  - { offsetInCU: 0x23970, offset: 0x2E012, size: 0x8, addend: 0x0, symName: __ZNSt3__112__libcpp_clzB7v160006Em, symObjAddr: 0x4EB60, symBinAddr: 0x1000594E8, symSize: 0x1C }
  - { offsetInCU: 0x239F4, offset: 0x2E096, size: 0x8, addend: 0x0, symName: __ZNSt3__17launderB7v160006INS_4pairIKNS_12basic_stringIcNS_11char_traitsIcEENS_9allocatorIcEEEE5TableEEEEPT_SC_, symObjAddr: 0x4FDA4, symBinAddr: 0x10005A72C, symSize: 0x24 }
  - { offsetInCU: 0x23A2C, offset: 0x2E0CE, size: 0x8, addend: 0x0, symName: __ZNSt3__19__launderB7v160006INS_4pairIKNS_12basic_stringIcNS_11char_traitsIcEENS_9allocatorIcEEEE5TableEEEEPT_SC_, symObjAddr: 0x4FDC8, symBinAddr: 0x10005A750, symSize: 0x14 }
  - { offsetInCU: 0x23A63, offset: 0x2E105, size: 0x8, addend: 0x0, symName: __ZNSt3__18distanceB7v160006IPNS_12basic_stringIcNS_11char_traitsIcEENS_9allocatorIcEEEEEENS_15iterator_traitsIT_E15difference_typeES9_S9_, symObjAddr: 0x50C88, symBinAddr: 0x10005B610, symSize: 0x2C }
  - { offsetInCU: 0x23AA6, offset: 0x2E148, size: 0x8, addend: 0x0, symName: __ZNSt3__14copyB7v160006IPNS_12basic_stringIcNS_11char_traitsIcEENS_9allocatorIcEEEES7_EET0_T_S9_S8_, symObjAddr: 0x50D4C, symBinAddr: 0x10005B6D4, symSize: 0x2B4 }
  - { offsetInCU: 0x23B04, offset: 0x2E1A6, size: 0x8, addend: 0x0, symName: __ZNSt3__110__distanceB7v160006IPNS_12basic_stringIcNS_11char_traitsIcEENS_9allocatorIcEEEEEENS_15iterator_traitsIT_E15difference_typeES9_S9_NS_26random_access_iterator_tagE, symObjAddr: 0x51CC0, symBinAddr: 0x10005C648, symSize: 0x28 }
  - { offsetInCU: 0x23B52, offset: 0x2E1F4, size: 0x8, addend: 0x0, symName: __ZNSt3__121__convert_to_integralB7v160006Em, symObjAddr: 0x51CE8, symBinAddr: 0x10005C670, symSize: 0x14 }
  - { offsetInCU: 0x23B7D, offset: 0x2E21F, size: 0x8, addend: 0x0, symName: __ZNSt3__19__advanceB7v160006IPNS_12basic_stringIcNS_11char_traitsIcEENS_9allocatorIcEEEEEEvRT_NS_15iterator_traitsIS8_E15difference_typeENS_26random_access_iterator_tagE, symObjAddr: 0x51CFC, symBinAddr: 0x10005C684, symSize: 0x1A4 }
  - { offsetInCU: 0x23BC8, offset: 0x2E26A, size: 0x8, addend: 0x0, symName: __ZNSt3__16__copyB7v160006INS_17_ClassicAlgPolicyEPNS_12basic_stringIcNS_11char_traitsIcEENS_9allocatorIcEEEES8_S8_EENS_4pairIT0_T2_EESA_T1_SB_, symObjAddr: 0x51EA0, symBinAddr: 0x10005C828, symSize: 0x22C }
  - { offsetInCU: 0x23C37, offset: 0x2E2D9, size: 0x8, addend: 0x0, symName: __ZNSt3__123__dispatch_copy_or_moveB7v160006INS_17_ClassicAlgPolicyENS_11__copy_loopIS1_EENS_14__copy_trivialEPNS_12basic_stringIcNS_11char_traitsIcEENS_9allocatorIcEEEESB_SB_EENS_4pairIT2_T4_EESD_T3_SE_, symObjAddr: 0x520CC, symBinAddr: 0x10005CA54, symSize: 0x22C }
  - { offsetInCU: 0x23CB8, offset: 0x2E35A, size: 0x8, addend: 0x0, symName: __ZNSt3__121__unwrap_and_dispatchB7v160006INS_10__overloadINS_11__copy_loopINS_17_ClassicAlgPolicyEEENS_14__copy_trivialEEEPNS_12basic_stringIcNS_11char_traitsIcEENS_9allocatorIcEEEESD_SD_Li0EEENS_4pairIT0_T2_EESF_T1_SG_, symObjAddr: 0x522F8, symBinAddr: 0x10005CC80, symSize: 0x634 }
  - { offsetInCU: 0x23D52, offset: 0x2E3F4, size: 0x8, addend: 0x0, symName: __ZNSt3__114__unwrap_rangeB7v160006IPNS_12basic_stringIcNS_11char_traitsIcEENS_9allocatorIcEEEES7_EENS_4pairIT0_S9_EET_SB_, symObjAddr: 0x5292C, symBinAddr: 0x10005D2B4, symSize: 0x350 }
  - { offsetInCU: 0x23F44, offset: 0x2E5E6, size: 0x8, addend: 0x0, symName: __ZNSt3__113__unwrap_iterB7v160006IPNS_12basic_stringIcNS_11char_traitsIcEENS_9allocatorIcEEEENS_18__unwrap_iter_implIS7_Lb1EEELi0EEEDTclsrT0_8__unwrapclsr3stdE7declvalIT_EEEESB_, symObjAddr: 0x532E8, symBinAddr: 0x10005DC70, symSize: 0x24 }
  - { offsetInCU: 0x23F89, offset: 0x2E62B, size: 0x8, addend: 0x0, symName: __ZNSt3__19make_pairB7v160006IPNS_12basic_stringIcNS_11char_traitsIcEENS_9allocatorIcEEEES7_EENS_4pairINS_18__unwrap_ref_decayIT_E4typeENS9_IT0_E4typeEEEOSA_OSD_, symObjAddr: 0x5330C, symBinAddr: 0x10005DC94, symSize: 0x2A0 }
  - { offsetInCU: 0x23FDA, offset: 0x2E67C, size: 0x8, addend: 0x0, symName: __ZNSt3__114__rewrap_rangeB7v160006IPNS_12basic_stringIcNS_11char_traitsIcEENS_9allocatorIcEEEES7_EET_S8_T0_, symObjAddr: 0x535AC, symBinAddr: 0x10005DF34, symSize: 0x2C }
  - { offsetInCU: 0x24026, offset: 0x2E6C8, size: 0x8, addend: 0x0, symName: __ZNSt3__113__rewrap_iterB7v160006IPNS_12basic_stringIcNS_11char_traitsIcEENS_9allocatorIcEEEES7_NS_18__unwrap_iter_implIS7_Lb1EEEEET_SA_T0_, symObjAddr: 0x535D8, symBinAddr: 0x10005DF60, symSize: 0x48 }
  - { offsetInCU: 0x240CE, offset: 0x2E770, size: 0x8, addend: 0x0, symName: __ZNSt3__130__uninitialized_allocator_copyB7v160006INS_9allocatorINS_12basic_stringIcNS_11char_traitsIcEENS1_IcEEEEEEPS6_S8_S8_EET2_RT_T0_T1_S9_, symObjAddr: 0x53A1C, symBinAddr: 0x10005E3A4, symSize: 0x6EC }
  - { offsetInCU: 0x2417A, offset: 0x2E81C, size: 0x8, addend: 0x0, symName: __ZNSt3__122__make_exception_guardB7v160006INS_29_AllocatorDestroyRangeReverseINS_9allocatorINS_12basic_stringIcNS_11char_traitsIcEENS2_IcEEEEEEPS7_EEEENS_28__exception_guard_exceptionsIT_EESC_, symObjAddr: 0x54108, symBinAddr: 0x10005EA90, symSize: 0x23C }
  - { offsetInCU: 0x241B1, offset: 0x2E853, size: 0x8, addend: 0x0, symName: __ZNSt3__119__allocator_destroyB7v160006INS_9allocatorINS_12basic_stringIcNS_11char_traitsIcEENS1_IcEEEEEENS_16reverse_iteratorIPS6_EESA_EEvRT_T0_T1_, symObjAddr: 0x54FAC, symBinAddr: 0x10005F934, symSize: 0x2DC }
  - { offsetInCU: 0x2421E, offset: 0x2E8C0, size: 0x8, addend: 0x0, symName: __ZNSt3__18distanceB7v160006IP10ColumnTypeEENS_15iterator_traitsIT_E15difference_typeES4_S4_, symObjAddr: 0x5599C, symBinAddr: 0x100060324, symSize: 0x2C }
  - { offsetInCU: 0x24261, offset: 0x2E903, size: 0x8, addend: 0x0, symName: __ZNSt3__14copyB7v160006IP10ColumnTypeS2_EET0_T_S4_S3_, symObjAddr: 0x55A60, symBinAddr: 0x1000603E8, symSize: 0x2B4 }
  - { offsetInCU: 0x242BF, offset: 0x2E961, size: 0x8, addend: 0x0, symName: __ZNSt3__110__distanceB7v160006IP10ColumnTypeEENS_15iterator_traitsIT_E15difference_typeES4_S4_NS_26random_access_iterator_tagE, symObjAddr: 0x569CC, symBinAddr: 0x100061354, symSize: 0x20 }
  - { offsetInCU: 0x2430C, offset: 0x2E9AE, size: 0x8, addend: 0x0, symName: __ZNSt3__19__advanceB7v160006IP10ColumnTypeEEvRT_NS_15iterator_traitsIS3_E15difference_typeENS_26random_access_iterator_tagE, symObjAddr: 0x569EC, symBinAddr: 0x100061374, symSize: 0x19C }
  - { offsetInCU: 0x24357, offset: 0x2E9F9, size: 0x8, addend: 0x0, symName: __ZNSt3__16__copyB7v160006INS_17_ClassicAlgPolicyEP10ColumnTypeS3_S3_EENS_4pairIT0_T2_EES5_T1_S6_, symObjAddr: 0x56B88, symBinAddr: 0x100061510, symSize: 0x22C }
  - { offsetInCU: 0x243C6, offset: 0x2EA68, size: 0x8, addend: 0x0, symName: __ZNSt3__123__dispatch_copy_or_moveB7v160006INS_17_ClassicAlgPolicyENS_11__copy_loopIS1_EENS_14__copy_trivialEP10ColumnTypeS6_S6_EENS_4pairIT2_T4_EES8_T3_S9_, symObjAddr: 0x56DB4, symBinAddr: 0x10006173C, symSize: 0x22C }
  - { offsetInCU: 0x24447, offset: 0x2EAE9, size: 0x8, addend: 0x0, symName: __ZNSt3__121__unwrap_and_dispatchB7v160006INS_10__overloadINS_11__copy_loopINS_17_ClassicAlgPolicyEEENS_14__copy_trivialEEEP10ColumnTypeS8_S8_Li0EEENS_4pairIT0_T2_EESA_T1_SB_, symObjAddr: 0x56FE0, symBinAddr: 0x100061968, symSize: 0x634 }
  - { offsetInCU: 0x244E1, offset: 0x2EB83, size: 0x8, addend: 0x0, symName: __ZNSt3__114__unwrap_rangeB7v160006IP10ColumnTypeS2_EENS_4pairIT0_S4_EET_S6_, symObjAddr: 0x57614, symBinAddr: 0x100061F9C, symSize: 0x350 }
  - { offsetInCU: 0x246B6, offset: 0x2ED58, size: 0x8, addend: 0x0, symName: __ZNSt3__113__unwrap_iterB7v160006IP10ColumnTypeNS_18__unwrap_iter_implIS2_Lb1EEELi0EEEDTclsrT0_8__unwrapclsr3stdE7declvalIT_EEEES6_, symObjAddr: 0x57BC0, symBinAddr: 0x100062548, symSize: 0x24 }
  - { offsetInCU: 0x246FB, offset: 0x2ED9D, size: 0x8, addend: 0x0, symName: __ZNSt3__19make_pairB7v160006IP10ColumnTypeS2_EENS_4pairINS_18__unwrap_ref_decayIT_E4typeENS4_IT0_E4typeEEEOS5_OS8_, symObjAddr: 0x57BE4, symBinAddr: 0x10006256C, symSize: 0x2A0 }
  - { offsetInCU: 0x2474C, offset: 0x2EDEE, size: 0x8, addend: 0x0, symName: __ZNSt3__114__rewrap_rangeB7v160006IP10ColumnTypeS2_EET_S3_T0_, symObjAddr: 0x57E84, symBinAddr: 0x10006280C, symSize: 0x2C }
  - { offsetInCU: 0x24798, offset: 0x2EE3A, size: 0x8, addend: 0x0, symName: __ZNSt3__113__rewrap_iterB7v160006IP10ColumnTypeS2_NS_18__unwrap_iter_implIS2_Lb1EEEEET_S5_T0_, symObjAddr: 0x57EB0, symBinAddr: 0x100062838, symSize: 0x48 }
  - { offsetInCU: 0x247ED, offset: 0x2EE8F, size: 0x8, addend: 0x0, symName: __ZNSt3__119__copy_trivial_implB7v160006I10ColumnTypeS1_EENS_4pairIPT_PT0_EES4_S4_S6_, symObjAddr: 0x57EF8, symBinAddr: 0x100062880, symSize: 0x478 }
  - { offsetInCU: 0x2485C, offset: 0x2EEFE, size: 0x8, addend: 0x0, symName: __ZNSt3__19make_pairB7v160006IRP10ColumnTypeS2_EENS_4pairINS_18__unwrap_ref_decayIT_E4typeENS5_IT0_E4typeEEEOS6_OS9_, symObjAddr: 0x58370, symBinAddr: 0x100062CF8, symSize: 0x2A0 }
  - { offsetInCU: 0x24900, offset: 0x2EFA2, size: 0x8, addend: 0x0, symName: __ZNSt3__130__uninitialized_allocator_copyB7v160006INS_9allocatorI10ColumnTypeEEPS2_S4_S4_EET2_RT_T0_T1_S5_, symObjAddr: 0x58C98, symBinAddr: 0x100063620, symSize: 0x6D0 }
  - { offsetInCU: 0x249AC, offset: 0x2F04E, size: 0x8, addend: 0x0, symName: __ZNSt3__122__make_exception_guardB7v160006INS_29_AllocatorDestroyRangeReverseINS_9allocatorI10ColumnTypeEEPS3_EEEENS_28__exception_guard_exceptionsIT_EES8_, symObjAddr: 0x59368, symBinAddr: 0x100063CF0, symSize: 0x23C }
  - { offsetInCU: 0x249E3, offset: 0x2F085, size: 0x8, addend: 0x0, symName: __ZNSt3__119__allocator_destroyB7v160006INS_9allocatorI10ColumnTypeEENS_16reverse_iteratorIPS2_EES6_EEvRT_T0_T1_, symObjAddr: 0x5A27C, symBinAddr: 0x100064C04, symSize: 0x2DC }
  - { offsetInCU: 0x24A50, offset: 0x2F0F2, size: 0x8, addend: 0x0, symName: __ZNSt3__112__to_addressB7v160006INS_16reverse_iteratorIP10ColumnTypeEEvEENS_5decayIDTclsr19__to_address_helperIT_EE6__callclsr3stdE7declvalIRKS6_EEEEE4typeES8_, symObjAddr: 0x5A558, symBinAddr: 0x100064EE0, symSize: 0x6C }
  - { offsetInCU: 0x24AB1, offset: 0x2F153, size: 0x8, addend: 0x0, symName: __ZNSt3__18distanceB7v160006IPNS_6vectorINS_7variantIJidbNS_12basic_stringIcNS_11char_traitsIcEENS_9allocatorIcEEEEEEENS6_IS9_EEEEEENS_15iterator_traitsIT_E15difference_typeESE_SE_, symObjAddr: 0x5ADB4, symBinAddr: 0x10006573C, symSize: 0x2C }
  - { offsetInCU: 0x24AF4, offset: 0x2F196, size: 0x8, addend: 0x0, symName: __ZNSt3__14copyB7v160006IPNS_6vectorINS_7variantIJidbNS_12basic_stringIcNS_11char_traitsIcEENS_9allocatorIcEEEEEEENS6_IS9_EEEESC_EET0_T_SE_SD_, symObjAddr: 0x5B0B4, symBinAddr: 0x100065A3C, symSize: 0x2B4 }
  - { offsetInCU: 0x24B52, offset: 0x2F1F4, size: 0x8, addend: 0x0, symName: __ZNSt3__125__debug_db_invalidate_allB7v160006INS_6vectorINS1_INS_7variantIJidbNS_12basic_stringIcNS_11char_traitsIcEENS_9allocatorIcEEEEEEENS6_IS9_EEEENS6_ISB_EEEEEEvPT_, symObjAddr: 0x5C534, symBinAddr: 0x100066EBC, symSize: 0x10 }
  - { offsetInCU: 0x24B83, offset: 0x2F225, size: 0x8, addend: 0x0, symName: __ZNSt3__110__distanceB7v160006IPNS_6vectorINS_7variantIJidbNS_12basic_stringIcNS_11char_traitsIcEENS_9allocatorIcEEEEEEENS6_IS9_EEEEEENS_15iterator_traitsIT_E15difference_typeESE_SE_NS_26random_access_iterator_tagE, symObjAddr: 0x5C544, symBinAddr: 0x100066ECC, symSize: 0x28 }
  - { offsetInCU: 0x24BD0, offset: 0x2F272, size: 0x8, addend: 0x0, symName: __ZNSt3__19__advanceB7v160006IPNS_6vectorINS_7variantIJidbNS_12basic_stringIcNS_11char_traitsIcEENS_9allocatorIcEEEEEEENS6_IS9_EEEEEEvRT_NS_15iterator_traitsISD_E15difference_typeENS_26random_access_iterator_tagE, symObjAddr: 0x5C83C, symBinAddr: 0x1000671C4, symSize: 0x1A4 }
  - { offsetInCU: 0x24C1B, offset: 0x2F2BD, size: 0x8, addend: 0x0, symName: __ZNSt3__16__copyB7v160006INS_17_ClassicAlgPolicyEPNS_6vectorINS_7variantIJidbNS_12basic_stringIcNS_11char_traitsIcEENS_9allocatorIcEEEEEEENS7_ISA_EEEESD_SD_EENS_4pairIT0_T2_EESF_T1_SG_, symObjAddr: 0x5C9E0, symBinAddr: 0x100067368, symSize: 0x22C }
  - { offsetInCU: 0x24C8A, offset: 0x2F32C, size: 0x8, addend: 0x0, symName: __ZNSt3__123__dispatch_copy_or_moveB7v160006INS_17_ClassicAlgPolicyENS_11__copy_loopIS1_EENS_14__copy_trivialEPNS_6vectorINS_7variantIJidbNS_12basic_stringIcNS_11char_traitsIcEENS_9allocatorIcEEEEEEENSA_ISD_EEEESG_SG_EENS_4pairIT2_T4_EESI_T3_SJ_, symObjAddr: 0x5CC0C, symBinAddr: 0x100067594, symSize: 0x22C }
  - { offsetInCU: 0x24D0B, offset: 0x2F3AD, size: 0x8, addend: 0x0, symName: __ZNSt3__121__unwrap_and_dispatchB7v160006INS_10__overloadINS_11__copy_loopINS_17_ClassicAlgPolicyEEENS_14__copy_trivialEEEPNS_6vectorINS_7variantIJidbNS_12basic_stringIcNS_11char_traitsIcEENS_9allocatorIcEEEEEEENSC_ISF_EEEESI_SI_Li0EEENS_4pairIT0_T2_EESK_T1_SL_, symObjAddr: 0x5CE38, symBinAddr: 0x1000677C0, symSize: 0x634 }
  - { offsetInCU: 0x24DA5, offset: 0x2F447, size: 0x8, addend: 0x0, symName: __ZNSt3__114__unwrap_rangeB7v160006IPNS_6vectorINS_7variantIJidbNS_12basic_stringIcNS_11char_traitsIcEENS_9allocatorIcEEEEEEENS6_IS9_EEEESC_EENS_4pairIT0_SE_EET_SG_, symObjAddr: 0x5D46C, symBinAddr: 0x100067DF4, symSize: 0x350 }
  - { offsetInCU: 0x24EC7, offset: 0x2F569, size: 0x8, addend: 0x0, symName: __ZNSt3__113__unwrap_iterB7v160006IPNS_6vectorINS_7variantIJidbNS_12basic_stringIcNS_11char_traitsIcEENS_9allocatorIcEEEEEEENS6_IS9_EEEENS_18__unwrap_iter_implISC_Lb1EEELi0EEEDTclsrT0_8__unwrapclsr3stdE7declvalIT_EEEESG_, symObjAddr: 0x5DE28, symBinAddr: 0x1000687B0, symSize: 0x24 }
  - { offsetInCU: 0x24F0C, offset: 0x2F5AE, size: 0x8, addend: 0x0, symName: __ZNSt3__19make_pairB7v160006IPNS_6vectorINS_7variantIJidbNS_12basic_stringIcNS_11char_traitsIcEENS_9allocatorIcEEEEEEENS6_IS9_EEEESC_EENS_4pairINS_18__unwrap_ref_decayIT_E4typeENSE_IT0_E4typeEEEOSF_OSI_, symObjAddr: 0x5DE4C, symBinAddr: 0x1000687D4, symSize: 0x2A0 }
  - { offsetInCU: 0x24F5D, offset: 0x2F5FF, size: 0x8, addend: 0x0, symName: __ZNSt3__114__rewrap_rangeB7v160006IPNS_6vectorINS_7variantIJidbNS_12basic_stringIcNS_11char_traitsIcEENS_9allocatorIcEEEEEEENS6_IS9_EEEESC_EET_SD_T0_, symObjAddr: 0x5E0EC, symBinAddr: 0x100068A74, symSize: 0x2C }
  - { offsetInCU: 0x24FA9, offset: 0x2F64B, size: 0x8, addend: 0x0, symName: __ZNSt3__113__rewrap_iterB7v160006IPNS_6vectorINS_7variantIJidbNS_12basic_stringIcNS_11char_traitsIcEENS_9allocatorIcEEEEEEENS6_IS9_EEEESC_NS_18__unwrap_iter_implISC_Lb1EEEEET_SF_T0_, symObjAddr: 0x5E118, symBinAddr: 0x100068AA0, symSize: 0x48 }
  - { offsetInCU: 0x24FFE, offset: 0x2F6A0, size: 0x8, addend: 0x0, symName: __ZNSt3__18distanceB7v160006IPNS_7variantIJidbNS_12basic_stringIcNS_11char_traitsIcEENS_9allocatorIcEEEEEEEEENS_15iterator_traitsIT_E15difference_typeESB_SB_, symObjAddr: 0x5E94C, symBinAddr: 0x1000692D4, symSize: 0x2C }
  - { offsetInCU: 0x25041, offset: 0x2F6E3, size: 0x8, addend: 0x0, symName: __ZNSt3__14copyB7v160006IPNS_7variantIJidbNS_12basic_stringIcNS_11char_traitsIcEENS_9allocatorIcEEEEEEES9_EET0_T_SB_SA_, symObjAddr: 0x5EC4C, symBinAddr: 0x1000695D4, symSize: 0x2B4 }
  - { offsetInCU: 0x2509F, offset: 0x2F741, size: 0x8, addend: 0x0, symName: __ZNSt3__125__debug_db_invalidate_allB7v160006INS_6vectorINS_7variantIJidbNS_12basic_stringIcNS_11char_traitsIcEENS_9allocatorIcEEEEEEENS6_IS9_EEEEEEvPT_, symObjAddr: 0x600C4, symBinAddr: 0x10006AA4C, symSize: 0x10 }
  - { offsetInCU: 0x250D0, offset: 0x2F772, size: 0x8, addend: 0x0, symName: __ZNSt3__110__distanceB7v160006IPNS_7variantIJidbNS_12basic_stringIcNS_11char_traitsIcEENS_9allocatorIcEEEEEEEEENS_15iterator_traitsIT_E15difference_typeESB_SB_NS_26random_access_iterator_tagE, symObjAddr: 0x600D4, symBinAddr: 0x10006AA5C, symSize: 0x28 }
  - { offsetInCU: 0x2511D, offset: 0x2F7BF, size: 0x8, addend: 0x0, symName: __ZNSt3__19__advanceB7v160006IPNS_7variantIJidbNS_12basic_stringIcNS_11char_traitsIcEENS_9allocatorIcEEEEEEEEEvRT_NS_15iterator_traitsISA_E15difference_typeENS_26random_access_iterator_tagE, symObjAddr: 0x603CC, symBinAddr: 0x10006AD54, symSize: 0x19C }
  - { offsetInCU: 0x25168, offset: 0x2F80A, size: 0x8, addend: 0x0, symName: __ZNSt3__16__copyB7v160006INS_17_ClassicAlgPolicyEPNS_7variantIJidbNS_12basic_stringIcNS_11char_traitsIcEENS_9allocatorIcEEEEEEESA_SA_EENS_4pairIT0_T2_EESC_T1_SD_, symObjAddr: 0x60568, symBinAddr: 0x10006AEF0, symSize: 0x22C }
  - { offsetInCU: 0x251D7, offset: 0x2F879, size: 0x8, addend: 0x0, symName: __ZNSt3__123__dispatch_copy_or_moveB7v160006INS_17_ClassicAlgPolicyENS_11__copy_loopIS1_EENS_14__copy_trivialEPNS_7variantIJidbNS_12basic_stringIcNS_11char_traitsIcEENS_9allocatorIcEEEEEEESD_SD_EENS_4pairIT2_T4_EESF_T3_SG_, symObjAddr: 0x60794, symBinAddr: 0x10006B11C, symSize: 0x22C }
  - { offsetInCU: 0x25258, offset: 0x2F8FA, size: 0x8, addend: 0x0, symName: __ZNSt3__121__unwrap_and_dispatchB7v160006INS_10__overloadINS_11__copy_loopINS_17_ClassicAlgPolicyEEENS_14__copy_trivialEEEPNS_7variantIJidbNS_12basic_stringIcNS_11char_traitsIcEENS_9allocatorIcEEEEEEESF_SF_Li0EEENS_4pairIT0_T2_EESH_T1_SI_, symObjAddr: 0x609C0, symBinAddr: 0x10006B348, symSize: 0x634 }
  - { offsetInCU: 0x252F2, offset: 0x2F994, size: 0x8, addend: 0x0, symName: __ZNSt3__114__unwrap_rangeB7v160006IPNS_7variantIJidbNS_12basic_stringIcNS_11char_traitsIcEENS_9allocatorIcEEEEEEES9_EENS_4pairIT0_SB_EET_SD_, symObjAddr: 0x60FF4, symBinAddr: 0x10006B97C, symSize: 0x350 }
  - { offsetInCU: 0x25414, offset: 0x2FAB6, size: 0x8, addend: 0x0, symName: __ZNSt3__113__unwrap_iterB7v160006IPNS_7variantIJidbNS_12basic_stringIcNS_11char_traitsIcEENS_9allocatorIcEEEEEEENS_18__unwrap_iter_implIS9_Lb1EEELi0EEEDTclsrT0_8__unwrapclsr3stdE7declvalIT_EEEESD_, symObjAddr: 0x619B0, symBinAddr: 0x10006C338, symSize: 0x24 }
  - { offsetInCU: 0x25459, offset: 0x2FAFB, size: 0x8, addend: 0x0, symName: __ZNSt3__19make_pairB7v160006IPNS_7variantIJidbNS_12basic_stringIcNS_11char_traitsIcEENS_9allocatorIcEEEEEEES9_EENS_4pairINS_18__unwrap_ref_decayIT_E4typeENSB_IT0_E4typeEEEOSC_OSF_, symObjAddr: 0x619D4, symBinAddr: 0x10006C35C, symSize: 0x2A0 }
  - { offsetInCU: 0x254AA, offset: 0x2FB4C, size: 0x8, addend: 0x0, symName: __ZNSt3__114__rewrap_rangeB7v160006IPNS_7variantIJidbNS_12basic_stringIcNS_11char_traitsIcEENS_9allocatorIcEEEEEEES9_EET_SA_T0_, symObjAddr: 0x61C74, symBinAddr: 0x10006C5FC, symSize: 0x2C }
  - { offsetInCU: 0x254F6, offset: 0x2FB98, size: 0x8, addend: 0x0, symName: __ZNSt3__113__rewrap_iterB7v160006IPNS_7variantIJidbNS_12basic_stringIcNS_11char_traitsIcEENS_9allocatorIcEEEEEEES9_NS_18__unwrap_iter_implIS9_Lb1EEEEET_SC_T0_, symObjAddr: 0x61CA0, symBinAddr: 0x10006C628, symSize: 0x48 }
  - { offsetInCU: 0x25591, offset: 0x2FC33, size: 0x8, addend: 0x0, symName: __ZNSt3__18__invokeB7v160006IZNS_16__variant_detail6__dtorINS1_8__traitsIJidbNS_12basic_stringIcNS_11char_traitsIcEENS_9allocatorIcEEEEEEELNS1_6_TraitE1EE9__destroyB7v160006EvEUlRT_E_JRNS1_5__altILm0EiEEEEEDTclclsr3stdE7declvalISD_EEspclsr3stdE7declvalIT0_EEEEOSD_DpOSJ_, symObjAddr: 0x63994, symBinAddr: 0x10006E31C, symSize: 0xA0 }
  - { offsetInCU: 0x255E0, offset: 0x2FC82, size: 0x8, addend: 0x0, symName: __ZNSt3__18__invokeB7v160006IZNS_16__variant_detail6__dtorINS1_8__traitsIJidbNS_12basic_stringIcNS_11char_traitsIcEENS_9allocatorIcEEEEEEELNS1_6_TraitE1EE9__destroyB7v160006EvEUlRT_E_JRNS1_5__altILm1EdEEEEEDTclclsr3stdE7declvalISD_EEspclsr3stdE7declvalIT0_EEEEOSD_DpOSJ_, symObjAddr: 0x63BEC, symBinAddr: 0x10006E574, symSize: 0xA0 }
  - { offsetInCU: 0x2562F, offset: 0x2FCD1, size: 0x8, addend: 0x0, symName: __ZNSt3__18__invokeB7v160006IZNS_16__variant_detail6__dtorINS1_8__traitsIJidbNS_12basic_stringIcNS_11char_traitsIcEENS_9allocatorIcEEEEEEELNS1_6_TraitE1EE9__destroyB7v160006EvEUlRT_E_JRNS1_5__altILm2EbEEEEEDTclclsr3stdE7declvalISD_EEspclsr3stdE7declvalIT0_EEEEOSD_DpOSJ_, symObjAddr: 0x63F3C, symBinAddr: 0x10006E8C4, symSize: 0x84 }
  - { offsetInCU: 0x2567E, offset: 0x2FD20, size: 0x8, addend: 0x0, symName: __ZNSt3__18__invokeB7v160006IZNS_16__variant_detail6__dtorINS1_8__traitsIJidbNS_12basic_stringIcNS_11char_traitsIcEENS_9allocatorIcEEEEEEELNS1_6_TraitE1EE9__destroyB7v160006EvEUlRT_E_JRNS1_5__altILm3ES9_EEEEEDTclclsr3stdE7declvalISD_EEspclsr3stdE7declvalIT0_EEEEOSD_DpOSJ_, symObjAddr: 0x642F8, symBinAddr: 0x10006EC80, symSize: 0xA0 }
  - { offsetInCU: 0x25713, offset: 0x2FDB5, size: 0x8, addend: 0x0, symName: __ZNSt3__18__invokeB7v160006IZNS_16__variant_detail12__assignmentINS1_8__traitsIJidbNS_12basic_stringIcNS_11char_traitsIcEENS_9allocatorIcEEEEEEEE16__generic_assignB7v160006IRKNS1_17__copy_assignmentISA_LNS1_6_TraitE1EEEEEvOT_EUlRSI_OT0_E_JRNS1_5__altILm0EiEERKSP_EEEDTclclsr3stdE7declvalISI_EEspclsr3stdE7declvalIT0_EEEESJ_DpOST_, symObjAddr: 0x6543C, symBinAddr: 0x10006FDC4, symSize: 0x10C }
  - { offsetInCU: 0x25776, offset: 0x2FE18, size: 0x8, addend: 0x0, symName: __ZNSt3__18__invokeB7v160006IZNS_16__variant_detail12__assignmentINS1_8__traitsIJidbNS_12basic_stringIcNS_11char_traitsIcEENS_9allocatorIcEEEEEEEE16__generic_assignB7v160006IRKNS1_17__copy_assignmentISA_LNS1_6_TraitE1EEEEEvOT_EUlRSI_OT0_E_JRNS1_5__altILm1EdEERKSP_EEEDTclclsr3stdE7declvalISI_EEspclsr3stdE7declvalIT0_EEEESJ_DpOST_, symObjAddr: 0x6654C, symBinAddr: 0x100070ED4, symSize: 0x10C }
  - { offsetInCU: 0x257D9, offset: 0x2FE7B, size: 0x8, addend: 0x0, symName: __ZNSt3__18__invokeB7v160006IZNS_16__variant_detail12__assignmentINS1_8__traitsIJidbNS_12basic_stringIcNS_11char_traitsIcEENS_9allocatorIcEEEEEEEE16__generic_assignB7v160006IRKNS1_17__copy_assignmentISA_LNS1_6_TraitE1EEEEEvOT_EUlRSI_OT0_E_JRNS1_5__altILm2EbEERKSP_EEEDTclclsr3stdE7declvalISI_EEspclsr3stdE7declvalIT0_EEEESJ_DpOST_, symObjAddr: 0x676B8, symBinAddr: 0x100072040, symSize: 0xD4 }
  - { offsetInCU: 0x2583C, offset: 0x2FEDE, size: 0x8, addend: 0x0, symName: __ZNSt3__18__invokeB7v160006IZNS_16__variant_detail12__assignmentINS1_8__traitsIJidbNS_12basic_stringIcNS_11char_traitsIcEENS_9allocatorIcEEEEEEEE16__generic_assignB7v160006IRKNS1_17__copy_assignmentISA_LNS1_6_TraitE1EEEEEvOT_EUlRSI_OT0_E_JRNS1_5__altILm3ES9_EERKSP_EEEDTclclsr3stdE7declvalISI_EEspclsr3stdE7declvalIT0_EEEESJ_DpOST_, symObjAddr: 0x6876C, symBinAddr: 0x1000730F4, symSize: 0x10C }
  - { offsetInCU: 0x258F3, offset: 0x2FF95, size: 0x8, addend: 0x0, symName: __ZNSt3__112__to_addressB7v160006INS_7variantIJidbNS_12basic_stringIcNS_11char_traitsIcEENS_9allocatorIcEEEEEEEEEPT_SA_, symObjAddr: 0x69CBC, symBinAddr: 0x100074644, symSize: 0x14 }
  - { offsetInCU: 0x25927, offset: 0x2FFC9, size: 0x8, addend: 0x0, symName: __ZNSt3__130__uninitialized_allocator_copyB7v160006INS_9allocatorINS_7variantIJidbNS_12basic_stringIcNS_11char_traitsIcEENS1_IcEEEEEEEEEPS8_SA_SA_EET2_RT_T0_T1_SB_, symObjAddr: 0x6A12C, symBinAddr: 0x100074AB4, symSize: 0x6EC }
  - { offsetInCU: 0x259D3, offset: 0x30075, size: 0x8, addend: 0x0, symName: __ZNSt3__122__make_exception_guardB7v160006INS_29_AllocatorDestroyRangeReverseINS_9allocatorINS_7variantIJidbNS_12basic_stringIcNS_11char_traitsIcEENS2_IcEEEEEEEEEPS9_EEEENS_28__exception_guard_exceptionsIT_EESE_, symObjAddr: 0x6B2E4, symBinAddr: 0x100075C6C, symSize: 0x23C }
  - { offsetInCU: 0x25A50, offset: 0x300F2, size: 0x8, addend: 0x0, symName: __ZNSt3__18__invokeB7v160006IZNS_16__variant_detail6__ctorINS1_8__traitsIJidbNS_12basic_stringIcNS_11char_traitsIcEENS_9allocatorIcEEEEEEEE19__generic_constructB7v160006IRKNS1_18__copy_constructorISA_LNS1_6_TraitE1EEEEEvRSB_OT_EUlRSJ_OT0_E_JRNS1_5__altILm0EiEERKSQ_EEEDTclclsr3stdE7declvalISJ_EEspclsr3stdE7declvalIT0_EEEESK_DpOSU_, symObjAddr: 0x6DA94, symBinAddr: 0x10007841C, symSize: 0xF0 }
  - { offsetInCU: 0x25AB3, offset: 0x30155, size: 0x8, addend: 0x0, symName: __ZNSt3__18__invokeB7v160006IZNS_16__variant_detail6__ctorINS1_8__traitsIJidbNS_12basic_stringIcNS_11char_traitsIcEENS_9allocatorIcEEEEEEEE19__generic_constructB7v160006IRKNS1_18__copy_constructorISA_LNS1_6_TraitE1EEEEEvRSB_OT_EUlRSJ_OT0_E_JRNS1_5__altILm1EdEERKSQ_EEEDTclclsr3stdE7declvalISJ_EEspclsr3stdE7declvalIT0_EEEESK_DpOSU_, symObjAddr: 0x6DC88, symBinAddr: 0x100078610, symSize: 0xF0 }
  - { offsetInCU: 0x25B16, offset: 0x301B8, size: 0x8, addend: 0x0, symName: __ZNSt3__18__invokeB7v160006IZNS_16__variant_detail6__ctorINS1_8__traitsIJidbNS_12basic_stringIcNS_11char_traitsIcEENS_9allocatorIcEEEEEEEE19__generic_constructB7v160006IRKNS1_18__copy_constructorISA_LNS1_6_TraitE1EEEEEvRSB_OT_EUlRSJ_OT0_E_JRNS1_5__altILm2EbEERKSQ_EEEDTclclsr3stdE7declvalISJ_EEspclsr3stdE7declvalIT0_EEEESK_DpOSU_, symObjAddr: 0x6DE7C, symBinAddr: 0x100078804, symSize: 0xB8 }
  - { offsetInCU: 0x25B79, offset: 0x3021B, size: 0x8, addend: 0x0, symName: __ZNSt3__18__invokeB7v160006IZNS_16__variant_detail6__ctorINS1_8__traitsIJidbNS_12basic_stringIcNS_11char_traitsIcEENS_9allocatorIcEEEEEEEE19__generic_constructB7v160006IRKNS1_18__copy_constructorISA_LNS1_6_TraitE1EEEEEvRSB_OT_EUlRSJ_OT0_E_JRNS1_5__altILm3ES9_EERKSQ_EEEDTclclsr3stdE7declvalISJ_EEspclsr3stdE7declvalIT0_EEEESK_DpOSU_, symObjAddr: 0x6DFE4, symBinAddr: 0x10007896C, symSize: 0xF0 }
  - { offsetInCU: 0x25BDC, offset: 0x3027E, size: 0x8, addend: 0x0, symName: __ZNSt3__119__allocator_destroyB7v160006INS_9allocatorINS_7variantIJidbNS_12basic_stringIcNS_11char_traitsIcEENS1_IcEEEEEEEEENS_16reverse_iteratorIPS8_EESC_EEvRT_T0_T1_, symObjAddr: 0x6EC7C, symBinAddr: 0x100079604, symSize: 0x2DC }
  - { offsetInCU: 0x25C49, offset: 0x302EB, size: 0x8, addend: 0x0, symName: __ZNSt3__1neB7v160006IPNS_7variantIJidbNS_12basic_stringIcNS_11char_traitsIcEENS_9allocatorIcEEEEEEES9_EEbRKNS_16reverse_iteratorIT_EERKNSA_IT0_EE, symObjAddr: 0x6EFD8, symBinAddr: 0x100079960, symSize: 0x9C }
  - { offsetInCU: 0x25C95, offset: 0x30337, size: 0x8, addend: 0x0, symName: __ZNSt3__112__to_addressB7v160006INS_16reverse_iteratorIPNS_7variantIJidbNS_12basic_stringIcNS_11char_traitsIcEENS_9allocatorIcEEEEEEEEEvEENS_5decayIDTclsr19__to_address_helperIT_EE6__callclsr3stdE7declvalIRKSD_EEEEE4typeESF_, symObjAddr: 0x6F0A0, symBinAddr: 0x100079A28, symSize: 0x6C }
  - { offsetInCU: 0x25CF6, offset: 0x30398, size: 0x8, addend: 0x0, symName: __ZNSt3__119__allocate_at_leastB7v160006INS_9allocatorINS_7variantIJidbNS_12basic_stringIcNS_11char_traitsIcEENS1_IcEEEEEEEEEEENS_19__allocation_resultINS_16allocator_traitsIT_E7pointerEEERSC_m, symObjAddr: 0x70E90, symBinAddr: 0x10007B818, symSize: 0x28C }
  - { offsetInCU: 0x25D8F, offset: 0x30431, size: 0x8, addend: 0x0, symName: __ZNSt3__112__to_addressB7v160006INS_6vectorINS_7variantIJidbNS_12basic_stringIcNS_11char_traitsIcEENS_9allocatorIcEEEEEEENS6_IS9_EEEEEEPT_SD_, symObjAddr: 0x7183C, symBinAddr: 0x10007C1C4, symSize: 0x14 }
  - { offsetInCU: 0x25DC3, offset: 0x30465, size: 0x8, addend: 0x0, symName: __ZNSt3__130__uninitialized_allocator_copyB7v160006INS_9allocatorINS_6vectorINS_7variantIJidbNS_12basic_stringIcNS_11char_traitsIcEENS1_IcEEEEEEENS1_IS9_EEEEEEPSB_SD_SD_EET2_RT_T0_T1_SE_, symObjAddr: 0x71CB0, symBinAddr: 0x10007C638, symSize: 0x6EC }
  - { offsetInCU: 0x25E6F, offset: 0x30511, size: 0x8, addend: 0x0, symName: __ZNSt3__122__make_exception_guardB7v160006INS_29_AllocatorDestroyRangeReverseINS_9allocatorINS_6vectorINS_7variantIJidbNS_12basic_stringIcNS_11char_traitsIcEENS2_IcEEEEEEENS2_ISA_EEEEEEPSC_EEEENS_28__exception_guard_exceptionsIT_EESH_, symObjAddr: 0x72E90, symBinAddr: 0x10007D818, symSize: 0x23C }
  - { offsetInCU: 0x25EA6, offset: 0x30548, size: 0x8, addend: 0x0, symName: __ZNSt3__122__make_exception_guardB7v160006INS_6vectorINS_7variantIJidbNS_12basic_stringIcNS_11char_traitsIcEENS_9allocatorIcEEEEEEENS6_IS9_EEE16__destroy_vectorEEENS_28__exception_guard_exceptionsIT_EESE_, symObjAddr: 0x73F7C, symBinAddr: 0x10007E904, symSize: 0x2BC }
  - { offsetInCU: 0x25EE0, offset: 0x30582, size: 0x8, addend: 0x0, symName: __ZNSt3__119__debug_db_insert_cB7v160006INS_6vectorINS_7variantIJidbNS_12basic_stringIcNS_11char_traitsIcEENS_9allocatorIcEEEEEEENS6_IS9_EEEEEEvPT_, symObjAddr: 0x742B8, symBinAddr: 0x10007EC40, symSize: 0x10 }
  - { offsetInCU: 0x25F11, offset: 0x305B3, size: 0x8, addend: 0x0, symName: __ZNSt3__118__debug_db_erase_cB7v160006INS_6vectorINS_7variantIJidbNS_12basic_stringIcNS_11char_traitsIcEENS_9allocatorIcEEEEEEENS6_IS9_EEEEEEvPT_, symObjAddr: 0x75650, symBinAddr: 0x10007FFD8, symSize: 0x10 }
  - { offsetInCU: 0x25F41, offset: 0x305E3, size: 0x8, addend: 0x0, symName: __ZNSt3__119__allocator_destroyB7v160006INS_9allocatorINS_6vectorINS_7variantIJidbNS_12basic_stringIcNS_11char_traitsIcEENS1_IcEEEEEEENS1_IS9_EEEEEENS_16reverse_iteratorIPSB_EESF_EEvRT_T0_T1_, symObjAddr: 0x75BE8, symBinAddr: 0x100080570, symSize: 0x2DC }
  - { offsetInCU: 0x25FAE, offset: 0x30650, size: 0x8, addend: 0x0, symName: __ZNSt3__1neB7v160006IPNS_6vectorINS_7variantIJidbNS_12basic_stringIcNS_11char_traitsIcEENS_9allocatorIcEEEEEEENS6_IS9_EEEESC_EEbRKNS_16reverse_iteratorIT_EERKNSD_IT0_EE, symObjAddr: 0x75F44, symBinAddr: 0x1000808CC, symSize: 0x9C }
  - { offsetInCU: 0x25FFA, offset: 0x3069C, size: 0x8, addend: 0x0, symName: __ZNSt3__112__to_addressB7v160006INS_16reverse_iteratorIPNS_6vectorINS_7variantIJidbNS_12basic_stringIcNS_11char_traitsIcEENS_9allocatorIcEEEEEEENS7_ISA_EEEEEEvEENS_5decayIDTclsr19__to_address_helperIT_EE6__callclsr3stdE7declvalIRKSG_EEEEE4typeESI_, symObjAddr: 0x7600C, symBinAddr: 0x100080994, symSize: 0x6C }
  - { offsetInCU: 0x2605B, offset: 0x306FD, size: 0x8, addend: 0x0, symName: __ZNSt3__119__allocate_at_leastB7v160006INS_9allocatorINS_6vectorINS_7variantIJidbNS_12basic_stringIcNS_11char_traitsIcEENS1_IcEEEEEEENS1_IS9_EEEEEEEENS_19__allocation_resultINS_16allocator_traitsIT_E7pointerEEERSF_m, symObjAddr: 0x77DE0, symBinAddr: 0x100082768, symSize: 0x28C }
  - { offsetInCU: 0x260A0, offset: 0x30742, size: 0x8, addend: 0x0, symName: __ZNSt3__1neB7v160006ERKNS_21__hash_const_iteratorIPNS_11__hash_nodeINS_17__hash_value_typeINS_7variantIJidbNS_12basic_stringIcNS_11char_traitsIcEENS_9allocatorIcEEEEEEENS_6vectorIjNS7_IjEEEEEEPvEEEESK_, symObjAddr: 0x7B088, symBinAddr: 0x100085A10, symSize: 0xC4 }
  - { offsetInCU: 0x26101, offset: 0x307A3, size: 0x8, addend: 0x0, symName: __ZNSt3__1eqB7v160006ERKNS_21__hash_const_iteratorIPNS_11__hash_nodeINS_17__hash_value_typeINS_7variantIJidbNS_12basic_stringIcNS_11char_traitsIcEENS_9allocatorIcEEEEEEENS_6vectorIjNS7_IjEEEEEEPvEEEESK_, symObjAddr: 0x7D26C, symBinAddr: 0x100087BF4, symSize: 0x114 }
  - { offsetInCU: 0x26171, offset: 0x30813, size: 0x8, addend: 0x0, symName: __ZNSt3__17launderB7v160006IKNS_4pairIKNS_7variantIJidbNS_12basic_stringIcNS_11char_traitsIcEENS_9allocatorIcEEEEEEENS_6vectorIjNS6_IjEEEEEEEEPT_SH_, symObjAddr: 0x7DA80, symBinAddr: 0x100088408, symSize: 0x24 }
  - { offsetInCU: 0x261A9, offset: 0x3084B, size: 0x8, addend: 0x0, symName: __ZNSt3__19__launderB7v160006IKNS_4pairIKNS_7variantIJidbNS_12basic_stringIcNS_11char_traitsIcEENS_9allocatorIcEEEEEEENS_6vectorIjNS6_IjEEEEEEEEPT_SH_, symObjAddr: 0x7DAA4, symBinAddr: 0x10008842C, symSize: 0x14 }
  - { offsetInCU: 0x261E0, offset: 0x30882, size: 0x8, addend: 0x0, symName: __ZNSt3__17launderB7v160006INS_4pairIKNS_7variantIJidbNS_12basic_stringIcNS_11char_traitsIcEENS_9allocatorIcEEEEEEENS_6vectorIjNS6_IjEEEEEEEEPT_SG_, symObjAddr: 0x7DBF4, symBinAddr: 0x10008857C, symSize: 0x24 }
  - { offsetInCU: 0x26218, offset: 0x308BA, size: 0x8, addend: 0x0, symName: __ZNSt3__19__launderB7v160006INS_4pairIKNS_7variantIJidbNS_12basic_stringIcNS_11char_traitsIcEENS_9allocatorIcEEEEEEENS_6vectorIjNS6_IjEEEEEEEEPT_SG_, symObjAddr: 0x7DC18, symBinAddr: 0x1000885A0, symSize: 0x14 }
  - { offsetInCU: 0x2624F, offset: 0x308F1, size: 0x8, addend: 0x0, symName: __ZNSt3__13getB7v160006ILm0EKNS_7variantIJidbNS_12basic_stringIcNS_11char_traitsIcEENS_9allocatorIcEEEEEEENS_6vectorIjNS5_IjEEEEEERKNS_13tuple_elementIXT_ENS_4pairIT0_T1_EEE4typeERKSH_, symObjAddr: 0x7DDC4, symBinAddr: 0x10008874C, symSize: 0xB4 }
  - { offsetInCU: 0x26298, offset: 0x3093A, size: 0x8, addend: 0x0, symName: __ZNSt3__13getB7v160006ILm1EKNS_7variantIJidbNS_12basic_stringIcNS_11char_traitsIcEENS_9allocatorIcEEEEEEENS_6vectorIjNS5_IjEEEEEERKNS_13tuple_elementIXT_ENS_4pairIT0_T1_EEE4typeERKSH_, symObjAddr: 0x7DE78, symBinAddr: 0x100088800, symSize: 0xB4 }
  - { offsetInCU: 0x263AB, offset: 0x30A4D, size: 0x8, addend: 0x0, symName: __ZNSt3__18distanceB7v160006IPjEENS_15iterator_traitsIT_E15difference_typeES3_S3_, symObjAddr: 0x7E7EC, symBinAddr: 0x100089174, symSize: 0x2C }
  - { offsetInCU: 0x263EE, offset: 0x30A90, size: 0x8, addend: 0x0, symName: __ZNSt3__14copyB7v160006IPjS1_EET0_T_S3_S2_, symObjAddr: 0x7EAEC, symBinAddr: 0x100089474, symSize: 0x2B4 }
  - { offsetInCU: 0x2644C, offset: 0x30AEE, size: 0x8, addend: 0x0, symName: __ZNSt3__125__debug_db_invalidate_allB7v160006INS_6vectorIjNS_9allocatorIjEEEEEEvPT_, symObjAddr: 0x7FF64, symBinAddr: 0x10008A8EC, symSize: 0x10 }
  - { offsetInCU: 0x2647D, offset: 0x30B1F, size: 0x8, addend: 0x0, symName: __ZNSt3__110__distanceB7v160006IPjEENS_15iterator_traitsIT_E15difference_typeES3_S3_NS_26random_access_iterator_tagE, symObjAddr: 0x7FF74, symBinAddr: 0x10008A8FC, symSize: 0x28 }
  - { offsetInCU: 0x264CA, offset: 0x30B6C, size: 0x8, addend: 0x0, symName: __ZNSt3__19__advanceB7v160006IPjEEvRT_NS_15iterator_traitsIS2_E15difference_typeENS_26random_access_iterator_tagE, symObjAddr: 0x8026C, symBinAddr: 0x10008ABF4, symSize: 0x19C }
  - { offsetInCU: 0x26515, offset: 0x30BB7, size: 0x8, addend: 0x0, symName: __ZNSt3__16__copyB7v160006INS_17_ClassicAlgPolicyEPjS2_S2_EENS_4pairIT0_T2_EES4_T1_S5_, symObjAddr: 0x80408, symBinAddr: 0x10008AD90, symSize: 0x22C }
  - { offsetInCU: 0x26584, offset: 0x30C26, size: 0x8, addend: 0x0, symName: __ZNSt3__123__dispatch_copy_or_moveB7v160006INS_17_ClassicAlgPolicyENS_11__copy_loopIS1_EENS_14__copy_trivialEPjS5_S5_EENS_4pairIT2_T4_EES7_T3_S8_, symObjAddr: 0x80634, symBinAddr: 0x10008AFBC, symSize: 0x22C }
  - { offsetInCU: 0x26605, offset: 0x30CA7, size: 0x8, addend: 0x0, symName: __ZNSt3__121__unwrap_and_dispatchB7v160006INS_10__overloadINS_11__copy_loopINS_17_ClassicAlgPolicyEEENS_14__copy_trivialEEEPjS7_S7_Li0EEENS_4pairIT0_T2_EES9_T1_SA_, symObjAddr: 0x80860, symBinAddr: 0x10008B1E8, symSize: 0x634 }
  - { offsetInCU: 0x2669F, offset: 0x30D41, size: 0x8, addend: 0x0, symName: __ZNSt3__114__unwrap_rangeB7v160006IPjS1_EENS_4pairIT0_S3_EET_S5_, symObjAddr: 0x80E94, symBinAddr: 0x10008B81C, symSize: 0x350 }
  - { offsetInCU: 0x2681F, offset: 0x30EC1, size: 0x8, addend: 0x0, symName: __ZNSt3__113__unwrap_iterB7v160006IPjNS_18__unwrap_iter_implIS1_Lb1EEELi0EEEDTclsrT0_8__unwrapclsr3stdE7declvalIT_EEEES5_, symObjAddr: 0x81440, symBinAddr: 0x10008BDC8, symSize: 0x24 }
  - { offsetInCU: 0x26864, offset: 0x30F06, size: 0x8, addend: 0x0, symName: __ZNSt3__19make_pairB7v160006IPjS1_EENS_4pairINS_18__unwrap_ref_decayIT_E4typeENS3_IT0_E4typeEEEOS4_OS7_, symObjAddr: 0x81464, symBinAddr: 0x10008BDEC, symSize: 0x2A0 }
  - { offsetInCU: 0x268B5, offset: 0x30F57, size: 0x8, addend: 0x0, symName: __ZNSt3__114__rewrap_rangeB7v160006IPjS1_EET_S2_T0_, symObjAddr: 0x81704, symBinAddr: 0x10008C08C, symSize: 0x2C }
  - { offsetInCU: 0x26901, offset: 0x30FA3, size: 0x8, addend: 0x0, symName: __ZNSt3__113__rewrap_iterB7v160006IPjS1_NS_18__unwrap_iter_implIS1_Lb1EEEEET_S4_T0_, symObjAddr: 0x81730, symBinAddr: 0x10008C0B8, symSize: 0x48 }
  - { offsetInCU: 0x26956, offset: 0x30FF8, size: 0x8, addend: 0x0, symName: __ZNSt3__119__copy_trivial_implB7v160006IjjEENS_4pairIPT_PT0_EES3_S3_S5_, symObjAddr: 0x81778, symBinAddr: 0x10008C100, symSize: 0x484 }
  - { offsetInCU: 0x269C5, offset: 0x31067, size: 0x8, addend: 0x0, symName: __ZNSt3__19make_pairB7v160006IRPjS1_EENS_4pairINS_18__unwrap_ref_decayIT_E4typeENS4_IT0_E4typeEEEOS5_OS8_, symObjAddr: 0x81BFC, symBinAddr: 0x10008C584, symSize: 0x2A0 }
  - { offsetInCU: 0x26A6A, offset: 0x3110C, size: 0x8, addend: 0x0, symName: __ZNSt3__112__to_addressB7v160006IjEEPT_S2_, symObjAddr: 0x82158, symBinAddr: 0x10008CAE0, symSize: 0x14 }
  - { offsetInCU: 0x26A9E, offset: 0x31140, size: 0x8, addend: 0x0, symName: __ZNSt3__130__uninitialized_allocator_copyB7v160006INS_9allocatorIjEEPjS3_S3_EET2_RT_T0_T1_S4_, symObjAddr: 0x825C8, symBinAddr: 0x10008CF50, symSize: 0x6EC }
  - { offsetInCU: 0x26B4A, offset: 0x311EC, size: 0x8, addend: 0x0, symName: __ZNSt3__122__make_exception_guardB7v160006INS_29_AllocatorDestroyRangeReverseINS_9allocatorIjEEPjEEEENS_28__exception_guard_exceptionsIT_EES7_, symObjAddr: 0x83780, symBinAddr: 0x10008E108, symSize: 0x23C }
  - { offsetInCU: 0x26B81, offset: 0x31223, size: 0x8, addend: 0x0, symName: __ZNSt3__119__allocator_destroyB7v160006INS_9allocatorIjEENS_16reverse_iteratorIPjEES5_EEvRT_T0_T1_, symObjAddr: 0x846F0, symBinAddr: 0x10008F078, symSize: 0x2DC }
  - { offsetInCU: 0x26BEE, offset: 0x31290, size: 0x8, addend: 0x0, symName: __ZNSt3__1neB7v160006IPjS1_EEbRKNS_16reverse_iteratorIT_EERKNS2_IT0_EE, symObjAddr: 0x84A4C, symBinAddr: 0x10008F3D4, symSize: 0x9C }
  - { offsetInCU: 0x26C3A, offset: 0x312DC, size: 0x8, addend: 0x0, symName: __ZNSt3__112__to_addressB7v160006INS_16reverse_iteratorIPjEEvEENS_5decayIDTclsr19__to_address_helperIT_EE6__callclsr3stdE7declvalIRKS5_EEEEE4typeES7_, symObjAddr: 0x84B14, symBinAddr: 0x10008F49C, symSize: 0x6C }
  - { offsetInCU: 0x26C9B, offset: 0x3133D, size: 0x8, addend: 0x0, symName: __ZNSt3__119__allocate_at_leastB7v160006INS_9allocatorIjEEEENS_19__allocation_resultINS_16allocator_traitsIT_E7pointerEEERS5_m, symObjAddr: 0x8656C, symBinAddr: 0x100090EF4, symSize: 0x28C }
  - { offsetInCU: 0x26CE0, offset: 0x31382, size: 0x8, addend: 0x0, symName: __ZNSt3__114__hash_combineB7v160006Emm, symObjAddr: 0x897F0, symBinAddr: 0x100094178, symSize: 0x300 }
  - { offsetInCU: 0x26D8A, offset: 0x3142C, size: 0x8, addend: 0x0, symName: __ZNSt3__112__as_variantB7v160006IJidbNS_12basic_stringIcNS_11char_traitsIcEENS_9allocatorIcEEEEEEERKNS_7variantIJDpT_EEESC_, symObjAddr: 0x8A028, symBinAddr: 0x1000949B0, symSize: 0x68 }
  - { offsetInCU: 0x26E19, offset: 0x314BB, size: 0x8, addend: 0x0, symName: __ZNSt3__18__invokeB7v160006IZNKS_4hashINS_7variantIJidbNS_12basic_stringIcNS_11char_traitsIcEENS_9allocatorIcEEEEEEEEclB7v160006ERKS9_EUlRKT_E_JRKNS_16__variant_detail5__altILm0EiEEEEEDTclclsr3stdE7declvalISD_EEspclsr3stdE7declvalIT0_EEEEOSD_DpOSM_, symObjAddr: 0x8A52C, symBinAddr: 0x100094EB4, symSize: 0xA0 }
  - { offsetInCU: 0x26E6B, offset: 0x3150D, size: 0x8, addend: 0x0, symName: __ZNSt3__18__invokeB7v160006IZNKS_4hashINS_7variantIJidbNS_12basic_stringIcNS_11char_traitsIcEENS_9allocatorIcEEEEEEEEclB7v160006ERKS9_EUlRKT_E_JRKNS_16__variant_detail5__altILm1EdEEEEEDTclclsr3stdE7declvalISD_EEspclsr3stdE7declvalIT0_EEEEOSD_DpOSM_, symObjAddr: 0x8A88C, symBinAddr: 0x1000951C4, symSize: 0xA0 }
  - { offsetInCU: 0x26EBD, offset: 0x3155F, size: 0x8, addend: 0x0, symName: __ZNSt3__18__invokeB7v160006IZNKS_4hashINS_7variantIJidbNS_12basic_stringIcNS_11char_traitsIcEENS_9allocatorIcEEEEEEEEclB7v160006ERKS9_EUlRKT_E_JRKNS_16__variant_detail5__altILm2EbEEEEEDTclclsr3stdE7declvalISD_EEspclsr3stdE7declvalIT0_EEEEOSD_DpOSM_, symObjAddr: 0x8AE44, symBinAddr: 0x1000954AC, symSize: 0x84 }
  - { offsetInCU: 0x26F0F, offset: 0x315B1, size: 0x8, addend: 0x0, symName: __ZNSt3__18__invokeB7v160006IZNKS_4hashINS_7variantIJidbNS_12basic_stringIcNS_11char_traitsIcEENS_9allocatorIcEEEEEEEEclB7v160006ERKS9_EUlRKT_E_JRKNS_16__variant_detail5__altILm3ES8_EEEEEDTclclsr3stdE7declvalISD_EEspclsr3stdE7declvalIT0_EEEEOSD_DpOSM_, symObjAddr: 0x8B1C4, symBinAddr: 0x1000957A0, symSize: 0xA0 }
  - { offsetInCU: 0x26FE9, offset: 0x3168B, size: 0x8, addend: 0x0, symName: __ZNSt3__125__debug_db_invalidate_allB7v160006INS_12__hash_tableINS_17__hash_value_typeINS_7variantIJidbNS_12basic_stringIcNS_11char_traitsIcEENS_9allocatorIcEEEEEEENS_6vectorIjNS7_IjEEEEEENS_22__unordered_map_hasherISA_SE_NS_4hashISA_EENS_8equal_toISA_EELb1EEENS_21__unordered_map_equalISA_SE_SJ_SH_Lb1EEENS7_ISE_EEEEEEvPT_, symObjAddr: 0x8DAE4, symBinAddr: 0x1000980C0, symSize: 0x10 }
  - { offsetInCU: 0x27019, offset: 0x316BB, size: 0x8, addend: 0x0, symName: __ZNSt3__1eqB7v160006IJidbNS_12basic_stringIcNS_11char_traitsIcEENS_9allocatorIcEEEEEEEbRKNS_7variantIJDpT_EEESC_, symObjAddr: 0x8EB18, symBinAddr: 0x1000990F4, symSize: 0x3B4 }
  - { offsetInCU: 0x270C1, offset: 0x31763, size: 0x8, addend: 0x0, symName: __ZNSt3__18__invokeB7v160006INS_16__variant_detail12__visitation9__variant15__value_visitorINS_17__convert_to_boolINS_8equal_toIvEEEEEEJRKNS1_5__altILm0EiEESD_EEEDTclclsr3stdE7declvalIT_EEspclsr3stdE7declvalIT0_EEEEOSE_DpOSF_, symObjAddr: 0x90260, symBinAddr: 0x10009A83C, symSize: 0x110 }
  - { offsetInCU: 0x27127, offset: 0x317C9, size: 0x8, addend: 0x0, symName: __ZNSt3__18__invokeB7v160006INS_17__convert_to_boolINS_8equal_toIvEEEEJRKiS6_EEEDTclclsr3stdE7declvalIT_EEspclsr3stdE7declvalIT0_EEEEOS7_DpOS8_, symObjAddr: 0x90580, symBinAddr: 0x10009AB5C, symSize: 0xF4 }
  - { offsetInCU: 0x2718D, offset: 0x3182F, size: 0x8, addend: 0x0, symName: __ZNSt3__18__invokeB7v160006INS_16__variant_detail12__visitation9__variant15__value_visitorINS_17__convert_to_boolINS_8equal_toIvEEEEEEJRKNS1_5__altILm1EdEESD_EEEDTclclsr3stdE7declvalIT_EEspclsr3stdE7declvalIT0_EEEEOSE_DpOSF_, symObjAddr: 0x90AE8, symBinAddr: 0x10009B0C4, symSize: 0x110 }
  - { offsetInCU: 0x271F3, offset: 0x31895, size: 0x8, addend: 0x0, symName: __ZNSt3__18__invokeB7v160006INS_17__convert_to_boolINS_8equal_toIvEEEEJRKdS6_EEEDTclclsr3stdE7declvalIT_EEspclsr3stdE7declvalIT0_EEEEOS7_DpOS8_, symObjAddr: 0x90E08, symBinAddr: 0x10009B3E4, symSize: 0xF4 }
  - { offsetInCU: 0x27259, offset: 0x318FB, size: 0x8, addend: 0x0, symName: __ZNSt3__18__invokeB7v160006INS_16__variant_detail12__visitation9__variant15__value_visitorINS_17__convert_to_boolINS_8equal_toIvEEEEEEJRKNS1_5__altILm2EbEESD_EEEDTclclsr3stdE7declvalIT_EEspclsr3stdE7declvalIT0_EEEEOSE_DpOSF_, symObjAddr: 0x91320, symBinAddr: 0x10009B8FC, symSize: 0xD8 }
  - { offsetInCU: 0x272BF, offset: 0x31961, size: 0x8, addend: 0x0, symName: __ZNSt3__18__invokeB7v160006INS_17__convert_to_boolINS_8equal_toIvEEEEJRKbS6_EEEDTclclsr3stdE7declvalIT_EEspclsr3stdE7declvalIT0_EEEEOS7_DpOS8_, symObjAddr: 0x91598, symBinAddr: 0x10009BB74, symSize: 0xBC }
  - { offsetInCU: 0x27325, offset: 0x319C7, size: 0x8, addend: 0x0, symName: __ZNSt3__18__invokeB7v160006INS_16__variant_detail12__visitation9__variant15__value_visitorINS_17__convert_to_boolINS_8equal_toIvEEEEEEJRKNS1_5__altILm3ENS_12basic_stringIcNS_11char_traitsIcEENS_9allocatorIcEEEEEESJ_EEEDTclclsr3stdE7declvalIT_EEspclsr3stdE7declvalIT0_EEEEOSK_DpOSL_, symObjAddr: 0x91AB8, symBinAddr: 0x10009C094, symSize: 0x110 }
  - { offsetInCU: 0x2738B, offset: 0x31A2D, size: 0x8, addend: 0x0, symName: __ZNSt3__18__invokeB7v160006INS_17__convert_to_boolINS_8equal_toIvEEEEJRKNS_12basic_stringIcNS_11char_traitsIcEENS_9allocatorIcEEEESC_EEEDTclclsr3stdE7declvalIT_EEspclsr3stdE7declvalIT0_EEEEOSD_DpOSE_, symObjAddr: 0x91DD8, symBinAddr: 0x10009C3B4, symSize: 0xF4 }
  - { offsetInCU: 0x273F2, offset: 0x31A94, size: 0x8, addend: 0x0, symName: __ZNSt3__118__debug_db_erase_cB7v160006INS_6vectorIjNS_9allocatorIjEEEEEEvPT_, symObjAddr: 0x93408, symBinAddr: 0x10009D9E4, symSize: 0x10 }
  - { offsetInCU: 0x27440, offset: 0x31AE2, size: 0x8, addend: 0x0, symName: __ZNSt3__122__make_exception_guardB7v160006INS_6vectorIjNS_9allocatorIjEEE16__destroy_vectorEEENS_28__exception_guard_exceptionsIT_EES7_, symObjAddr: 0x95ED0, symBinAddr: 0x1000A04AC, symSize: 0x2BC }
  - { offsetInCU: 0x2747A, offset: 0x31B1C, size: 0x8, addend: 0x0, symName: __ZNSt3__119__debug_db_insert_cB7v160006INS_6vectorIjNS_9allocatorIjEEEEEEvPT_, symObjAddr: 0x9618C, symBinAddr: 0x1000A0768, symSize: 0x10 }
  - { offsetInCU: 0x274AA, offset: 0x31B4C, size: 0x8, addend: 0x0, symName: __ZNSt3__1neB7v160006ERKNS_21__tree_const_iteratorINS_12__value_typeINS_7variantIJidbNS_12basic_stringIcNS_11char_traitsIcEENS_9allocatorIcEEEEEEENS_6vectorIjNS6_IjEEEEEEPNS_11__tree_nodeISD_PvEElEESK_, symObjAddr: 0x99418, symBinAddr: 0x1000A39F4, symSize: 0xC4 }
  - { offsetInCU: 0x274E7, offset: 0x31B89, size: 0x8, addend: 0x0, symName: __ZNSt3__1eqB7v160006ERKNS_21__tree_const_iteratorINS_12__value_typeINS_7variantIJidbNS_12basic_stringIcNS_11char_traitsIcEENS_9allocatorIcEEEEEEENS_6vectorIjNS6_IjEEEEEEPNS_11__tree_nodeISD_PvEElEESK_, symObjAddr: 0x9AF90, symBinAddr: 0x1000A556C, symSize: 0x114 }
  - { offsetInCU: 0x27524, offset: 0x31BC6, size: 0x8, addend: 0x0, symName: __ZNSt3__1ltB7v160006IJidbNS_12basic_stringIcNS_11char_traitsIcEENS_9allocatorIcEEEEEEEbRKNS_7variantIJDpT_EEESC_, symObjAddr: 0x9D0E4, symBinAddr: 0x1000A76C0, symSize: 0x498 }
  - { offsetInCU: 0x275CC, offset: 0x31C6E, size: 0x8, addend: 0x0, symName: __ZNSt3__18__invokeB7v160006INS_16__variant_detail12__visitation9__variant15__value_visitorINS_17__convert_to_boolINS_4lessIvEEEEEEJRKNS1_5__altILm0EiEESD_EEEDTclclsr3stdE7declvalIT_EEspclsr3stdE7declvalIT0_EEEEOSE_DpOSF_, symObjAddr: 0x9E910, symBinAddr: 0x1000A8EEC, symSize: 0x110 }
  - { offsetInCU: 0x27632, offset: 0x31CD4, size: 0x8, addend: 0x0, symName: __ZNSt3__18__invokeB7v160006INS_17__convert_to_boolINS_4lessIvEEEEJRKiS6_EEEDTclclsr3stdE7declvalIT_EEspclsr3stdE7declvalIT0_EEEEOS7_DpOS8_, symObjAddr: 0x9EC30, symBinAddr: 0x1000A920C, symSize: 0xF4 }
  - { offsetInCU: 0x27698, offset: 0x31D3A, size: 0x8, addend: 0x0, symName: __ZNSt3__18__invokeB7v160006INS_16__variant_detail12__visitation9__variant15__value_visitorINS_17__convert_to_boolINS_4lessIvEEEEEEJRKNS1_5__altILm1EdEESD_EEEDTclclsr3stdE7declvalIT_EEspclsr3stdE7declvalIT0_EEEEOSE_DpOSF_, symObjAddr: 0x9F198, symBinAddr: 0x1000A9774, symSize: 0x110 }
  - { offsetInCU: 0x276FE, offset: 0x31DA0, size: 0x8, addend: 0x0, symName: __ZNSt3__18__invokeB7v160006INS_17__convert_to_boolINS_4lessIvEEEEJRKdS6_EEEDTclclsr3stdE7declvalIT_EEspclsr3stdE7declvalIT0_EEEEOS7_DpOS8_, symObjAddr: 0x9F4B8, symBinAddr: 0x1000A9A94, symSize: 0xF4 }
  - { offsetInCU: 0x27764, offset: 0x31E06, size: 0x8, addend: 0x0, symName: __ZNSt3__18__invokeB7v160006INS_16__variant_detail12__visitation9__variant15__value_visitorINS_17__convert_to_boolINS_4lessIvEEEEEEJRKNS1_5__altILm2EbEESD_EEEDTclclsr3stdE7declvalIT_EEspclsr3stdE7declvalIT0_EEEEOSE_DpOSF_, symObjAddr: 0x9F9D0, symBinAddr: 0x1000A9FAC, symSize: 0xD8 }
  - { offsetInCU: 0x277CA, offset: 0x31E6C, size: 0x8, addend: 0x0, symName: __ZNSt3__18__invokeB7v160006INS_17__convert_to_boolINS_4lessIvEEEEJRKbS6_EEEDTclclsr3stdE7declvalIT_EEspclsr3stdE7declvalIT0_EEEEOS7_DpOS8_, symObjAddr: 0x9FC48, symBinAddr: 0x1000AA224, symSize: 0xBC }
  - { offsetInCU: 0x27830, offset: 0x31ED2, size: 0x8, addend: 0x0, symName: __ZNSt3__18__invokeB7v160006INS_16__variant_detail12__visitation9__variant15__value_visitorINS_17__convert_to_boolINS_4lessIvEEEEEEJRKNS1_5__altILm3ENS_12basic_stringIcNS_11char_traitsIcEENS_9allocatorIcEEEEEESJ_EEEDTclclsr3stdE7declvalIT_EEspclsr3stdE7declvalIT0_EEEEOSK_DpOSL_, symObjAddr: 0xA0168, symBinAddr: 0x1000AA744, symSize: 0x110 }
  - { offsetInCU: 0x27896, offset: 0x31F38, size: 0x8, addend: 0x0, symName: __ZNSt3__18__invokeB7v160006INS_17__convert_to_boolINS_4lessIvEEEEJRKNS_12basic_stringIcNS_11char_traitsIcEENS_9allocatorIcEEEESC_EEEDTclclsr3stdE7declvalIT_EEspclsr3stdE7declvalIT0_EEEEOSD_DpOSE_, symObjAddr: 0xA0488, symBinAddr: 0x1000AAA64, symSize: 0xF4 }
  - { offsetInCU: 0x278FC, offset: 0x31F9E, size: 0x8, addend: 0x0, symName: __ZNSt3__127__tree_balance_after_insertB7v160006IPNS_16__tree_node_baseIPvEEEEvT_S5_, symObjAddr: 0xA1758, symBinAddr: 0x1000AAEF8, symSize: 0x1788 }
  - { offsetInCU: 0x27972, offset: 0x32014, size: 0x8, addend: 0x0, symName: __ZNSt3__120__tree_is_left_childB7v160006IPNS_16__tree_node_baseIPvEEEEbT_, symObjAddr: 0xA2FD8, symBinAddr: 0x1000AC778, symSize: 0x1D0 }
  - { offsetInCU: 0x279A7, offset: 0x32049, size: 0x8, addend: 0x0, symName: __ZNSt3__118__tree_left_rotateB7v160006IPNS_16__tree_node_baseIPvEEEEvT_, symObjAddr: 0xA31A8, symBinAddr: 0x1000AC948, symSize: 0xB64 }
  - { offsetInCU: 0x279EA, offset: 0x3208C, size: 0x8, addend: 0x0, symName: __ZNSt3__119__tree_right_rotateB7v160006IPNS_16__tree_node_baseIPvEEEEvT_, symObjAddr: 0xA3D0C, symBinAddr: 0x1000AD4AC, symSize: 0xBB8 }
  - { offsetInCU: 0x27A2D, offset: 0x320CF, size: 0x8, addend: 0x0, symName: __ZNSt3__111__tree_leafB7v160006IPNS_16__tree_node_baseIPvEEEET_S5_, symObjAddr: 0xA56A0, symBinAddr: 0x1000AEE40, symSize: 0x3E4 }
  - { offsetInCU: 0x27A62, offset: 0x32104, size: 0x8, addend: 0x0, symName: __ZNSt3__116__tree_next_iterB7v160006IPNS_15__tree_end_nodeIPNS_16__tree_node_baseIPvEEEES5_EET_T0_, symObjAddr: 0xA5A84, symBinAddr: 0x1000AF224, symSize: 0x36C }
  - { offsetInCU: 0x27AA0, offset: 0x32142, size: 0x8, addend: 0x0, symName: __ZNSt3__110__tree_minB7v160006IPNS_16__tree_node_baseIPvEEEET_S5_, symObjAddr: 0xA5DF0, symBinAddr: 0x1000AF590, symSize: 0x22C }
  - { offsetInCU: 0x27AF3, offset: 0x32195, size: 0x8, addend: 0x0, symName: __ZNSt3__1eqB7v160006IPNS_12basic_stringIcNS_11char_traitsIcEENS_9allocatorIcEEEEEEbRKNS_11__wrap_iterIT_EESC_, symObjAddr: 0xA9E48, symBinAddr: 0x1000B35E8, symSize: 0x9C }
  - { offsetInCU: 0x27B37, offset: 0x321D9, size: 0x8, addend: 0x0, symName: __ZNSt3__118__debug_db_erase_cB7v160006INS_12__hash_tableINS_17__hash_value_typeINS_7variantIJidbNS_12basic_stringIcNS_11char_traitsIcEENS_9allocatorIcEEEEEEENS_6vectorIjNS7_IjEEEEEENS_22__unordered_map_hasherISA_SE_NS_4hashISA_EENS_8equal_toISA_EELb1EEENS_21__unordered_map_equalISA_SE_SJ_SH_Lb1EEENS7_ISE_EEEEEEvPT_, symObjAddr: 0xAA6DC, symBinAddr: 0x1000B3E7C, symSize: 0x10 }
  - { offsetInCU: 0x27B68, offset: 0x3220A, size: 0x8, addend: 0x0, symName: __ZNSt3__118__debug_db_erase_cB7v160006INS_6vectorINS1_INS_7variantIJidbNS_12basic_stringIcNS_11char_traitsIcEENS_9allocatorIcEEEEEEENS6_IS9_EEEENS6_ISB_EEEEEEvPT_, symObjAddr: 0xAB6C0, symBinAddr: 0x1000B4E60, symSize: 0x10 }
  - { offsetInCU: 0x27B99, offset: 0x3223B, size: 0x8, addend: 0x0, symName: __ZNSt3__118__debug_db_erase_cB7v160006INS_6vectorI10ColumnTypeNS_9allocatorIS2_EEEEEEvPT_, symObjAddr: 0xABF68, symBinAddr: 0x1000B5708, symSize: 0x10 }
  - { offsetInCU: 0x27BCA, offset: 0x3226C, size: 0x8, addend: 0x0, symName: __ZNSt3__118__debug_db_erase_cB7v160006INS_6vectorINS_12basic_stringIcNS_11char_traitsIcEENS_9allocatorIcEEEENS5_IS7_EEEEEEvPT_, symObjAddr: 0xAC810, symBinAddr: 0x1000B5FB0, symSize: 0x10 }
  - { offsetInCU: 0x27BFA, offset: 0x3229C, size: 0x8, addend: 0x0, symName: __ZNSt3__17getlineB7v160006IcNS_11char_traitsIcEENS_9allocatorIcEEEERNS_13basic_istreamIT_T0_EES9_RNS_12basic_stringIS6_S7_T1_EES6_, symObjAddr: 0xAC820, symBinAddr: 0x1000B5FC0, symSize: 0xEA8 }
  - { offsetInCU: 0x27CCC, offset: 0x3236E, size: 0x8, addend: 0x0, symName: __ZNSt3__1neB7v160006ERKNS_19__hash_map_iteratorINS_15__hash_iteratorIPNS_11__hash_nodeINS_17__hash_value_typeINS_12basic_stringIcNS_11char_traitsIcEENS_9allocatorIcEEEE5TableEEPvEEEEEESI_, symObjAddr: 0xAD6F0, symBinAddr: 0x1000B6E90, symSize: 0xC0 }
  - { offsetInCU: 0x27D09, offset: 0x323AB, size: 0x8, addend: 0x0, symName: __ZNSt3__1neB7v160006ERKNS_15__hash_iteratorIPNS_11__hash_nodeINS_17__hash_value_typeINS_12basic_stringIcNS_11char_traitsIcEENS_9allocatorIcEEEE5TableEEPvEEEESG_, symObjAddr: 0xAD8B0, symBinAddr: 0x1000B7050, symSize: 0xC4 }
  - { offsetInCU: 0x27D46, offset: 0x323E8, size: 0x8, addend: 0x0, symName: __ZNSt3__142__uninitialized_allocator_move_if_noexceptB7v160006INS_9allocatorINS_6vectorINS_7variantIJidbNS_12basic_stringIcNS_11char_traitsIcEENS1_IcEEEEEEENS1_IS9_EEEEEENS_16reverse_iteratorIPSB_EESF_SF_EET2_RT_T0_T1_SG_, symObjAddr: 0xB3040, symBinAddr: 0x1000BC7E0, symSize: 0x5C8 }
  - { offsetInCU: 0x27DFB, offset: 0x3249D, size: 0x8, addend: 0x0, symName: __ZNSt3__14swapB7v160006IPNS_6vectorINS_7variantIJidbNS_12basic_stringIcNS_11char_traitsIcEENS_9allocatorIcEEEEEEENS6_IS9_EEEEEENS_9enable_ifIXaasr21is_move_constructibleIT_EE5valuesr18is_move_assignableISE_EE5valueEvE4typeERSE_SH_, symObjAddr: 0xB3608, symBinAddr: 0x1000BCDA8, symSize: 0x1C0 }
  - { offsetInCU: 0x27E4C, offset: 0x324EE, size: 0x8, addend: 0x0, symName: __ZNSt3__122__make_exception_guardB7v160006INS_29_AllocatorDestroyRangeReverseINS_9allocatorINS_6vectorINS_7variantIJidbNS_12basic_stringIcNS_11char_traitsIcEENS2_IcEEEEEEENS2_ISA_EEEEEENS_16reverse_iteratorIPSC_EEEEEENS_28__exception_guard_exceptionsIT_EESJ_, symObjAddr: 0xB37C8, symBinAddr: 0x1000BCF68, symSize: 0x23C }
  - { offsetInCU: 0x27E84, offset: 0x32526, size: 0x8, addend: 0x0, symName: __ZNSt3__115__debug_db_swapB7v160006INS_6vectorINS_7variantIJidbNS_12basic_stringIcNS_11char_traitsIcEENS_9allocatorIcEEEEEEENS6_IS9_EEEEEEvPT_SD_, symObjAddr: 0xB48F8, symBinAddr: 0x1000BE098, symSize: 0x14 }
  - { offsetInCU: 0x27EC2, offset: 0x32564, size: 0x8, addend: 0x0, symName: __ZNSt3__119__allocator_destroyB7v160006INS_9allocatorINS_6vectorINS_7variantIJidbNS_12basic_stringIcNS_11char_traitsIcEENS1_IcEEEEEEENS1_IS9_EEEEEENS_16reverse_iteratorINSD_IPSB_EEEESG_EEvRT_T0_T1_, symObjAddr: 0xB4EA0, symBinAddr: 0x1000BE640, symSize: 0x1A4 }
  - { offsetInCU: 0x27F28, offset: 0x325CA, size: 0x8, addend: 0x0, symName: __ZNSt3__1neB7v160006INS_16reverse_iteratorIPNS_6vectorINS_7variantIJidbNS_12basic_stringIcNS_11char_traitsIcEENS_9allocatorIcEEEEEEENS7_ISA_EEEEEESE_EEbRKNS1_IT_EERKNS1_IT0_EE, symObjAddr: 0xB52E0, symBinAddr: 0x1000BEA80, symSize: 0x324 }
  - { offsetInCU: 0x27F76, offset: 0x32618, size: 0x8, addend: 0x0, symName: __ZNSt3__112__to_addressB7v160006INS_16reverse_iteratorINS1_IPNS_6vectorINS_7variantIJidbNS_12basic_stringIcNS_11char_traitsIcEENS_9allocatorIcEEEEEEENS7_ISA_EEEEEEEEvEENS_5decayIDTclsr19__to_address_helperIT_EE6__callclsr3stdE7declvalIRKSH_EEEEE4typeESJ_, symObjAddr: 0xB5604, symBinAddr: 0x1000BEDA4, symSize: 0x6C }
  - { offsetInCU: 0x27FD7, offset: 0x32679, size: 0x8, addend: 0x0, symName: __ZNSt3__142__uninitialized_allocator_move_if_noexceptB7v160006INS_9allocatorINS_7variantIJidbNS_12basic_stringIcNS_11char_traitsIcEENS1_IcEEEEEEEEENS_16reverse_iteratorIPS8_EESC_SC_EET2_RT_T0_T1_SD_, symObjAddr: 0xBA4DC, symBinAddr: 0x1000C3C7C, symSize: 0x5C8 }
  - { offsetInCU: 0x2808C, offset: 0x3272E, size: 0x8, addend: 0x0, symName: __ZNSt3__14swapB7v160006IPNS_7variantIJidbNS_12basic_stringIcNS_11char_traitsIcEENS_9allocatorIcEEEEEEEEENS_9enable_ifIXaasr21is_move_constructibleIT_EE5valuesr18is_move_assignableISB_EE5valueEvE4typeERSB_SE_, symObjAddr: 0xBAAA4, symBinAddr: 0x1000C4244, symSize: 0x1C0 }
  - { offsetInCU: 0x280DD, offset: 0x3277F, size: 0x8, addend: 0x0, symName: __ZNSt3__122__make_exception_guardB7v160006INS_29_AllocatorDestroyRangeReverseINS_9allocatorINS_7variantIJidbNS_12basic_stringIcNS_11char_traitsIcEENS2_IcEEEEEEEEENS_16reverse_iteratorIPS9_EEEEEENS_28__exception_guard_exceptionsIT_EESG_, symObjAddr: 0xBAC64, symBinAddr: 0x1000C4404, symSize: 0x23C }
  - { offsetInCU: 0x28165, offset: 0x32807, size: 0x8, addend: 0x0, symName: __ZNSt3__18__invokeB7v160006IZNS_16__variant_detail6__ctorINS1_8__traitsIJidbNS_12basic_stringIcNS_11char_traitsIcEENS_9allocatorIcEEEEEEEE19__generic_constructB7v160006INS1_18__move_constructorISA_LNS1_6_TraitE1EEEEEvRSB_OT_EUlRSH_OT0_E_JRNS1_5__altILm0EiEESO_EEEDTclclsr3stdE7declvalISH_EEspclsr3stdE7declvalIT0_EEEESI_DpOSQ_, symObjAddr: 0xBD18C, symBinAddr: 0x1000C692C, symSize: 0xF0 }
  - { offsetInCU: 0x281C8, offset: 0x3286A, size: 0x8, addend: 0x0, symName: __ZNSt3__18__invokeB7v160006IZNS_16__variant_detail6__ctorINS1_8__traitsIJidbNS_12basic_stringIcNS_11char_traitsIcEENS_9allocatorIcEEEEEEEE19__generic_constructB7v160006INS1_18__move_constructorISA_LNS1_6_TraitE1EEEEEvRSB_OT_EUlRSH_OT0_E_JRNS1_5__altILm1EdEESO_EEEDTclclsr3stdE7declvalISH_EEspclsr3stdE7declvalIT0_EEEESI_DpOSQ_, symObjAddr: 0xBD840, symBinAddr: 0x1000C6FE0, symSize: 0xF0 }
  - { offsetInCU: 0x2822B, offset: 0x328CD, size: 0x8, addend: 0x0, symName: __ZNSt3__18__invokeB7v160006IZNS_16__variant_detail6__ctorINS1_8__traitsIJidbNS_12basic_stringIcNS_11char_traitsIcEENS_9allocatorIcEEEEEEEE19__generic_constructB7v160006INS1_18__move_constructorISA_LNS1_6_TraitE1EEEEEvRSB_OT_EUlRSH_OT0_E_JRNS1_5__altILm2EbEESO_EEEDTclclsr3stdE7declvalISH_EEspclsr3stdE7declvalIT0_EEEESI_DpOSQ_, symObjAddr: 0xBDF9C, symBinAddr: 0x1000C773C, symSize: 0xB8 }
  - { offsetInCU: 0x2828E, offset: 0x32930, size: 0x8, addend: 0x0, symName: __ZNSt3__18__invokeB7v160006IZNS_16__variant_detail6__ctorINS1_8__traitsIJidbNS_12basic_stringIcNS_11char_traitsIcEENS_9allocatorIcEEEEEEEE19__generic_constructB7v160006INS1_18__move_constructorISA_LNS1_6_TraitE1EEEEEvRSB_OT_EUlRSH_OT0_E_JRNS1_5__altILm3ES9_EESO_EEEDTclclsr3stdE7declvalISH_EEspclsr3stdE7declvalIT0_EEEESI_DpOSQ_, symObjAddr: 0xBE6CC, symBinAddr: 0x1000C7E6C, symSize: 0xF0 }
  - { offsetInCU: 0x282F1, offset: 0x32993, size: 0x8, addend: 0x0, symName: __ZNSt3__119__allocator_destroyB7v160006INS_9allocatorINS_7variantIJidbNS_12basic_stringIcNS_11char_traitsIcEENS1_IcEEEEEEEEENS_16reverse_iteratorINSA_IPS8_EEEESD_EEvRT_T0_T1_, symObjAddr: 0xBF2E0, symBinAddr: 0x1000C8A80, symSize: 0x1A4 }
  - { offsetInCU: 0x28357, offset: 0x329F9, size: 0x8, addend: 0x0, symName: __ZNSt3__1neB7v160006INS_16reverse_iteratorIPNS_7variantIJidbNS_12basic_stringIcNS_11char_traitsIcEENS_9allocatorIcEEEEEEEEESB_EEbRKNS1_IT_EERKNS1_IT0_EE, symObjAddr: 0xBF720, symBinAddr: 0x1000C8EC0, symSize: 0x324 }
  - { offsetInCU: 0x283A5, offset: 0x32A47, size: 0x8, addend: 0x0, symName: __ZNSt3__112__to_addressB7v160006INS_16reverse_iteratorINS1_IPNS_7variantIJidbNS_12basic_stringIcNS_11char_traitsIcEENS_9allocatorIcEEEEEEEEEEEvEENS_5decayIDTclsr19__to_address_helperIT_EE6__callclsr3stdE7declvalIRKSE_EEEEE4typeESG_, symObjAddr: 0xBFA44, symBinAddr: 0x1000C91E4, symSize: 0x6C }
  - { offsetInCU: 0x28406, offset: 0x32AA8, size: 0x8, addend: 0x0, symName: __ZNSt3__14findB7v160006INS_11__wrap_iterIPNS_12basic_stringIcNS_11char_traitsIcEENS_9allocatorIcEEEEEES7_EET_SA_SA_RKT0_, symObjAddr: 0xC65E8, symBinAddr: 0x1000CFD88, symSize: 0x3B8 }
  - { offsetInCU: 0x28469, offset: 0x32B0B, size: 0x8, addend: 0x0, symName: __ZNSt3__18distanceB7v160006INS_11__wrap_iterIPNS_12basic_stringIcNS_11char_traitsIcEENS_9allocatorIcEEEEEEEENS_15iterator_traitsIT_E15difference_typeESB_SB_, symObjAddr: 0xC69A0, symBinAddr: 0x1000D0140, symSize: 0x350 }
  - { offsetInCU: 0x284B4, offset: 0x32B56, size: 0x8, addend: 0x0, symName: __ZNSt3__110__distanceB7v160006INS_11__wrap_iterIPNS_12basic_stringIcNS_11char_traitsIcEENS_9allocatorIcEEEEEEEENS_15iterator_traitsIT_E15difference_typeESB_SB_NS_26random_access_iterator_tagE, symObjAddr: 0xC83B8, symBinAddr: 0x1000D1B58, symSize: 0x274 }
  - { offsetInCU: 0x2850B, offset: 0x32BAD, size: 0x8, addend: 0x0, symName: __ZNSt3__1miB7v160006IPNS_12basic_stringIcNS_11char_traitsIcEENS_9allocatorIcEEEES7_EEDTmicldtfp_4baseEcldtfp0_4baseEERKNS_11__wrap_iterIT_EERKNS9_IT0_EE, symObjAddr: 0xC862C, symBinAddr: 0x1000D1DCC, symSize: 0x9C }
  - { offsetInCU: 0x28557, offset: 0x32BF9, size: 0x8, addend: 0x0, symName: __ZNSt3__116forward_as_tupleB7v160006IJRKNS_7variantIJidbNS_12basic_stringIcNS_11char_traitsIcEENS_9allocatorIcEEEEEEEEEENS_5tupleIJDpOT_EEESE_, symObjAddr: 0xCA3C8, symBinAddr: 0x1000D3B68, symSize: 0x244 }
  - { offsetInCU: 0x28592, offset: 0x32C34, size: 0x8, addend: 0x0, symName: __ZNSt3__13getB7v160006ILm0EJRKNS_7variantIJidbNS_12basic_stringIcNS_11char_traitsIcEENS_9allocatorIcEEEEEEEEEERNS_13tuple_elementIXT_ENS_5tupleIJDpT0_EEEE4typeERSF_, symObjAddr: 0xCBBE4, symBinAddr: 0x1000D5384, symSize: 0xE0 }
  - { offsetInCU: 0x2861F, offset: 0x32CC1, size: 0x8, addend: 0x0, symName: __ZNSt3__142__uninitialized_allocator_move_if_noexceptB7v160006INS_9allocatorIjEENS_16reverse_iteratorIPjEES5_jvEET1_RT_T0_S9_S6_, symObjAddr: 0xD0B30, symBinAddr: 0x1000DA2D0, symSize: 0x4A8 }
  - { offsetInCU: 0x286AB, offset: 0x32D4D, size: 0x8, addend: 0x0, symName: __ZNSt3__14swapB7v160006IPjEENS_9enable_ifIXaasr21is_move_constructibleIT_EE5valuesr18is_move_assignableIS3_EE5valueEvE4typeERS3_S6_, symObjAddr: 0xD0FD8, symBinAddr: 0x1000DA778, symSize: 0x1C0 }
  - { offsetInCU: 0x286FC, offset: 0x32D9E, size: 0x8, addend: 0x0, symName: __ZNSt3__14moveB7v160006INS_16reverse_iteratorIPjEES3_EET0_T_S5_S4_, symObjAddr: 0xD1198, symBinAddr: 0x1000DA938, symSize: 0x4B0 }
  - { offsetInCU: 0x28763, offset: 0x32E05, size: 0x8, addend: 0x0, symName: __ZNSt3__16__moveB7v160006INS_17_ClassicAlgPolicyENS_16reverse_iteratorIPjEES4_S4_EENS_4pairIT0_T2_EES6_T1_S7_, symObjAddr: 0xD1648, symBinAddr: 0x1000DADE8, symSize: 0x424 }
  - { offsetInCU: 0x287DB, offset: 0x32E7D, size: 0x8, addend: 0x0, symName: __ZNSt3__123__dispatch_copy_or_moveB7v160006INS_17_ClassicAlgPolicyENS_11__move_loopIS1_EENS_14__move_trivialENS_16reverse_iteratorIPjEES7_S7_EENS_4pairIT2_T4_EES9_T3_SA_, symObjAddr: 0xD1A6C, symBinAddr: 0x1000DB20C, symSize: 0x424 }
  - { offsetInCU: 0x28865, offset: 0x32F07, size: 0x8, addend: 0x0, symName: __ZNSt3__121__unwrap_and_dispatchB7v160006INS_10__overloadINS_11__move_loopINS_17_ClassicAlgPolicyEEENS_14__move_trivialEEENS_16reverse_iteratorIPjEES9_S9_Li0EEENS_4pairIT0_T2_EESB_T1_SC_, symObjAddr: 0xD1E90, symBinAddr: 0x1000DB630, symSize: 0x880 }
  - { offsetInCU: 0x2890A, offset: 0x32FAC, size: 0x8, addend: 0x0, symName: __ZNSt3__114__unwrap_rangeB7v160006INS_16reverse_iteratorIPjEES3_EENS_4pairIT0_S5_EET_S7_, symObjAddr: 0xD2710, symBinAddr: 0x1000DBEB0, symSize: 0x448 }
  - { offsetInCU: 0x28A32, offset: 0x330D4, size: 0x8, addend: 0x0, symName: __ZNSt3__113__unwrap_iterB7v160006INS_16reverse_iteratorIPjEENS_18__unwrap_iter_implIS3_Lb0EEELi0EEEDTclsrT0_8__unwrapclsr3stdE7declvalIT_EEEES7_, symObjAddr: 0xD3004, symBinAddr: 0x1000DC7A4, symSize: 0x2EC }
  - { offsetInCU: 0x28A7B, offset: 0x3311D, size: 0x8, addend: 0x0, symName: __ZNSt3__19make_pairB7v160006INS_16reverse_iteratorIPjEES3_EENS_4pairINS_18__unwrap_ref_decayIT_E4typeENS5_IT0_E4typeEEEOS6_OS9_, symObjAddr: 0xD32F0, symBinAddr: 0x1000DCA90, symSize: 0x108 }
  - { offsetInCU: 0x28ACA, offset: 0x3316C, size: 0x8, addend: 0x0, symName: __ZNSt3__114__rewrap_rangeB7v160006INS_16reverse_iteratorIPjEES3_EET_S4_T0_, symObjAddr: 0xD33F8, symBinAddr: 0x1000DCB98, symSize: 0x3D4 }
  - { offsetInCU: 0x28B1E, offset: 0x331C0, size: 0x8, addend: 0x0, symName: __ZNSt3__113__rewrap_iterB7v160006INS_16reverse_iteratorIPjEES3_NS_18__unwrap_iter_implIS3_Lb0EEEEET_S6_T0_, symObjAddr: 0xD37CC, symBinAddr: 0x1000DCF6C, symSize: 0x3E8 }
  - { offsetInCU: 0x28C1A, offset: 0x332BC, size: 0x8, addend: 0x0, symName: __ZNSt3__1neB7v160006ERKNS_19__hash_map_iteratorINS_15__hash_iteratorIPNS_11__hash_nodeINS_17__hash_value_typeINS_7variantIJidbNS_12basic_stringIcNS_11char_traitsIcEENS_9allocatorIcEEEEEEENS_6vectorIjNS8_IjEEEEEEPvEEEEEESM_, symObjAddr: 0xD8080, symBinAddr: 0x1000E1820, symSize: 0xC0 }
  - { offsetInCU: 0x28C57, offset: 0x332F9, size: 0x8, addend: 0x0, symName: __ZNSt3__14sortB7v160006INS_11__wrap_iterIPjEEEEvT_S4_, symObjAddr: 0xD85C8, symBinAddr: 0x1000E1D68, symSize: 0x348 }
  - { offsetInCU: 0x28CA2, offset: 0x33344, size: 0x8, addend: 0x0, symName: __ZNSt3__1neB7v160006ERKNS_14__map_iteratorINS_15__tree_iteratorINS_12__value_typeINS_7variantIJidbNS_12basic_stringIcNS_11char_traitsIcEENS_9allocatorIcEEEEEEENS_6vectorIjNS7_IjEEEEEEPNS_11__tree_nodeISE_PvEElEEEESM_, symObjAddr: 0xD9204, symBinAddr: 0x1000E29A4, symSize: 0xC0 }
  - { offsetInCU: 0x28CDF, offset: 0x33381, size: 0x8, addend: 0x0, symName: __ZNSt3__1gtB7v160006IJidbNS_12basic_stringIcNS_11char_traitsIcEENS_9allocatorIcEEEEEEEbRKNS_7variantIJDpT_EEESC_, symObjAddr: 0xDB1FC, symBinAddr: 0x1000E499C, symSize: 0x498 }
  - { offsetInCU: 0x28D41, offset: 0x333E3, size: 0x8, addend: 0x0, symName: __ZNSt3__1neB7v160006IPjEEbRKNS_11__wrap_iterIT_EES6_, symObjAddr: 0xDB694, symBinAddr: 0x1000E4E34, symSize: 0xC4 }
  - { offsetInCU: 0x28D84, offset: 0x33426, size: 0x8, addend: 0x0, symName: __ZNSt3__15visitB7v160006IZN5Silly5printEvEUlRKT_E_JRKNS_7variantIJidbNS_12basic_stringIcNS_11char_traitsIcEENS_9allocatorIcEEEEEEEEvEEDcOS2_DpOT0_, symObjAddr: 0xDB84C, symBinAddr: 0x1000E4FEC, symSize: 0xF0 }
  - { offsetInCU: 0x28DDD, offset: 0x3347F, size: 0x8, addend: 0x0, symName: __ZNSt3__1neB7v160006ERKNS_15__hash_iteratorIPNS_11__hash_nodeINS_17__hash_value_typeINS_7variantIJidbNS_12basic_stringIcNS_11char_traitsIcEENS_9allocatorIcEEEEEEENS_6vectorIjNS7_IjEEEEEEPvEEEESK_, symObjAddr: 0xE19F0, symBinAddr: 0x1000EB190, symSize: 0xC4 }
  - { offsetInCU: 0x28E1A, offset: 0x334BC, size: 0x8, addend: 0x0, symName: __ZNSt3__1eqB7v160006ERKNS_15__hash_iteratorIPNS_11__hash_nodeINS_17__hash_value_typeINS_7variantIJidbNS_12basic_stringIcNS_11char_traitsIcEENS_9allocatorIcEEEEEEENS_6vectorIjNS7_IjEEEEEEPvEEEESK_, symObjAddr: 0xE1AB4, symBinAddr: 0x1000EB254, symSize: 0x114 }
  - { offsetInCU: 0x28E8A, offset: 0x3352C, size: 0x8, addend: 0x0, symName: __ZNSt3__14sortB7v160006INS_11__wrap_iterIPjEENS_6__lessIjjEEEEvT_S6_T0_, symObjAddr: 0xE1BDC, symBinAddr: 0x1000EB37C, symSize: 0x36C }
  - { offsetInCU: 0x28EF1, offset: 0x33593, size: 0x8, addend: 0x0, symName: __ZNSt3__111__sort_implB7v160006INS_17_ClassicAlgPolicyENS_11__wrap_iterIPjEENS_6__lessIjjEEEEvT0_S7_RT1_, symObjAddr: 0xE1F48, symBinAddr: 0x1000EB6E8, symSize: 0x4C4 }
  - { offsetInCU: 0x28FA5, offset: 0x33647, size: 0x8, addend: 0x0, symName: __ZNSt3__123__debug_randomize_rangeB7v160006INS_17_ClassicAlgPolicyENS_11__wrap_iterIPjEES4_EEvT0_T1_, symObjAddr: 0xE240C, symBinAddr: 0x1000EBBAC, symSize: 0x264 }
  - { offsetInCU: 0x28FFF, offset: 0x336A1, size: 0x8, addend: 0x0, symName: __ZNSt3__113__unwrap_iterB7v160006INS_11__wrap_iterIPjEENS_18__unwrap_iter_implIS3_Lb1EEELi0EEEDTclsrT0_8__unwrapclsr3stdE7declvalIT_EEEES7_, symObjAddr: 0xE2670, symBinAddr: 0x1000EBE10, symSize: 0x274 }
  - { offsetInCU: 0x2909B, offset: 0x3373D, size: 0x8, addend: 0x0, symName: __ZNSt3__112__to_addressB7v160006INS_11__wrap_iterIPjEEvEENS_5decayIDTclsr19__to_address_helperIT_EE6__callclsr3stdE7declvalIRKS5_EEEEE4typeES7_, symObjAddr: 0xE2AD4, symBinAddr: 0x1000EC274, symSize: 0x6C }
  - { offsetInCU: 0x2917C, offset: 0x3381E, size: 0x8, addend: 0x0, symName: __ZNSt3__1neB7v160006ERKNS_15__tree_iteratorINS_12__value_typeINS_7variantIJidbNS_12basic_stringIcNS_11char_traitsIcEENS_9allocatorIcEEEEEEENS_6vectorIjNS6_IjEEEEEEPNS_11__tree_nodeISD_PvEElEESK_, symObjAddr: 0xE419C, symBinAddr: 0x1000ED93C, symSize: 0xC4 }
  - { offsetInCU: 0x291B9, offset: 0x3385B, size: 0x8, addend: 0x0, symName: __ZNSt3__1eqB7v160006ERKNS_15__tree_iteratorINS_12__value_typeINS_7variantIJidbNS_12basic_stringIcNS_11char_traitsIcEENS_9allocatorIcEEEEEEENS_6vectorIjNS6_IjEEEEEEPNS_11__tree_nodeISD_PvEElEESK_, symObjAddr: 0xE46F4, symBinAddr: 0x1000EDE94, symSize: 0x114 }
  - { offsetInCU: 0x291F6, offset: 0x33898, size: 0x8, addend: 0x0, symName: __ZNSt3__1miB7v160006IPKjPjEEDTmicldtfp_4baseEcldtfp0_4baseEERKNS_11__wrap_iterIT_EERKNS5_IT0_EE, symObjAddr: 0xE53B8, symBinAddr: 0x1000EEB58, symSize: 0x9C }
  - { offsetInCU: 0x29242, offset: 0x338E4, size: 0x8, addend: 0x0, symName: __ZNSt3__18distanceB7v160006INS_11__wrap_iterIPjEEEENS_15iterator_traitsIT_E15difference_typeES5_S5_, symObjAddr: 0xE5454, symBinAddr: 0x1000EEBF4, symSize: 0x350 }
  - { offsetInCU: 0x2928D, offset: 0x3392F, size: 0x8, addend: 0x0, symName: __ZNSt3__14copyB7v160006INS_11__wrap_iterIPjEES2_EET0_T_S5_S4_, symObjAddr: 0xE6714, symBinAddr: 0x1000EFEB4, symSize: 0x470 }
  - { offsetInCU: 0x292F0, offset: 0x33992, size: 0x8, addend: 0x0, symName: __ZNSt3__110__distanceB7v160006INS_11__wrap_iterIPjEEEENS_15iterator_traitsIT_E15difference_typeES5_S5_NS_26random_access_iterator_tagE, symObjAddr: 0xE7DD0, symBinAddr: 0x1000F1570, symSize: 0x274 }
  - { offsetInCU: 0x29347, offset: 0x339E9, size: 0x8, addend: 0x0, symName: __ZNSt3__1miB7v160006IPjS1_EEDTmicldtfp_4baseEcldtfp0_4baseEERKNS_11__wrap_iterIT_EERKNS3_IT0_EE, symObjAddr: 0xE8044, symBinAddr: 0x1000F17E4, symSize: 0x9C }
  - { offsetInCU: 0x29394, offset: 0x33A36, size: 0x8, addend: 0x0, symName: __ZNSt3__121__convert_to_integralB7v160006El, symObjAddr: 0xE80E0, symBinAddr: 0x1000F1880, symSize: 0x14 }
  - { offsetInCU: 0x293BF, offset: 0x33A61, size: 0x8, addend: 0x0, symName: __ZNSt3__19__advanceB7v160006INS_11__wrap_iterIPjEEEEvRT_NS_15iterator_traitsIS4_E15difference_typeENS_26random_access_iterator_tagE, symObjAddr: 0xE80F4, symBinAddr: 0x1000F1894, symSize: 0x7C }
  - { offsetInCU: 0x2940A, offset: 0x33AAC, size: 0x8, addend: 0x0, symName: __ZNSt3__130__uninitialized_allocator_copyB7v160006INS_9allocatorIjEENS_11__wrap_iterIPjEES5_S4_EET2_RT_T0_T1_S6_, symObjAddr: 0xE8398, symBinAddr: 0x1000F1B38, symSize: 0x704 }
  - { offsetInCU: 0x294BE, offset: 0x33B60, size: 0x8, addend: 0x0, symName: __ZNSt3__113move_backwardB7v160006IPjS1_EET0_T_S3_S2_, symObjAddr: 0xE8B28, symBinAddr: 0x1000F22C8, symSize: 0x2B4 }
  - { offsetInCU: 0x2951B, offset: 0x33BBD, size: 0x8, addend: 0x0, symName: __ZNSt3__115__move_backwardB7v160006INS_17_ClassicAlgPolicyEPjS2_S2_EENS_4pairIT0_T2_EES4_T1_S5_, symObjAddr: 0xE8F94, symBinAddr: 0x1000F2734, symSize: 0x22C }
  - { offsetInCU: 0x2958A, offset: 0x33C2C, size: 0x8, addend: 0x0, symName: __ZNSt3__123__dispatch_copy_or_moveB7v160006INS_17_ClassicAlgPolicyENS_20__move_backward_loopIS1_EENS_23__move_backward_trivialEPjS5_S5_EENS_4pairIT2_T4_EES7_T3_S8_, symObjAddr: 0xE91C0, symBinAddr: 0x1000F2960, symSize: 0x22C }
  - { offsetInCU: 0x2960B, offset: 0x33CAD, size: 0x8, addend: 0x0, symName: __ZNSt3__121__unwrap_and_dispatchB7v160006INS_10__overloadINS_20__move_backward_loopINS_17_ClassicAlgPolicyEEENS_23__move_backward_trivialEEEPjS7_S7_Li0EEENS_4pairIT0_T2_EES9_T1_SA_, symObjAddr: 0xE93EC, symBinAddr: 0x1000F2B8C, symSize: 0x634 }
  - { offsetInCU: 0x296EC, offset: 0x33D8E, size: 0x8, addend: 0x0, symName: __ZNSt3__128__copy_backward_trivial_implB7v160006IjjEENS_4pairIPT_PT0_EES3_S3_S5_, symObjAddr: 0xE9C7C, symBinAddr: 0x1000F341C, symSize: 0x4E4 }
  - { offsetInCU: 0x2975E, offset: 0x33E00, size: 0x8, addend: 0x0, symName: __ZNSt3__19make_pairB7v160006IRPjS2_EENS_4pairINS_18__unwrap_ref_decayIT_E4typeENS4_IT0_E4typeEEEOS5_OS8_, symObjAddr: 0xEA160, symBinAddr: 0x1000F3900, symSize: 0x2A0 }
  - { offsetInCU: 0x297AF, offset: 0x33E51, size: 0x8, addend: 0x0, symName: __ZNSt3__16__copyB7v160006INS_17_ClassicAlgPolicyENS_11__wrap_iterIPjEES4_S3_EENS_4pairIT0_T2_EES6_T1_S7_, symObjAddr: 0xEA698, symBinAddr: 0x1000F3E38, symSize: 0x3E4 }
  - { offsetInCU: 0x29824, offset: 0x33EC6, size: 0x8, addend: 0x0, symName: __ZNSt3__123__dispatch_copy_or_moveB7v160006INS_17_ClassicAlgPolicyENS_11__copy_loopIS1_EENS_14__copy_trivialENS_11__wrap_iterIPjEES7_S6_EENS_4pairIT2_T4_EES9_T3_SA_, symObjAddr: 0xEAA7C, symBinAddr: 0x1000F421C, symSize: 0x3E4 }
  - { offsetInCU: 0x298AB, offset: 0x33F4D, size: 0x8, addend: 0x0, symName: __ZNSt3__121__unwrap_and_dispatchB7v160006INS_10__overloadINS_11__copy_loopINS_17_ClassicAlgPolicyEEENS_14__copy_trivialEEENS_11__wrap_iterIPjEES9_S8_Li0EEENS_4pairIT0_T2_EESB_T1_SC_, symObjAddr: 0xEAE60, symBinAddr: 0x1000F4600, symSize: 0x7F8 }
  - { offsetInCU: 0x2994D, offset: 0x33FEF, size: 0x8, addend: 0x0, symName: __ZNSt3__114__unwrap_rangeB7v160006INS_11__wrap_iterIPjEES2_EENS_4pairIT0_S5_EET_S7_, symObjAddr: 0xEB658, symBinAddr: 0x1000F4DF8, symSize: 0x4D4 }
  - { offsetInCU: 0x299A1, offset: 0x34043, size: 0x8, addend: 0x0, symName: __ZNSt3__19make_pairB7v160006INS_11__wrap_iterIPjEES2_EENS_4pairINS_18__unwrap_ref_decayIT_E4typeENS5_IT0_E4typeEEEOS6_OS9_, symObjAddr: 0xEBB2C, symBinAddr: 0x1000F52CC, symSize: 0x2A0 }
  - { offsetInCU: 0x299F2, offset: 0x34094, size: 0x8, addend: 0x0, symName: __ZNSt3__114__rewrap_rangeB7v160006INS_11__wrap_iterIPjEES2_EET_S4_T0_, symObjAddr: 0xEBDCC, symBinAddr: 0x1000F556C, symSize: 0x324 }
  - { offsetInCU: 0x29B17, offset: 0x341B9, size: 0x8, addend: 0x0, symName: __ZNSt3__113__rewrap_iterB7v160006INS_11__wrap_iterIPjEES2_NS_18__unwrap_iter_implIS3_Lb1EEEEET_S6_T0_, symObjAddr: 0xEC2DC, symBinAddr: 0x1000F5A7C, symSize: 0x338 }
  - { offsetInCU: 0x29B71, offset: 0x34213, size: 0x8, addend: 0x0, symName: __ZNSt3__142__uninitialized_allocator_move_if_noexceptB7v160006INS_9allocatorIjEEPjS3_jvEET1_RT_T0_S7_S4_, symObjAddr: 0xED0D8, symBinAddr: 0x1000F6878, symSize: 0x38 }
  - { offsetInCU: 0x29BEF, offset: 0x34291, size: 0x8, addend: 0x0, symName: __ZNSt3__14moveB7v160006IPjS1_EET0_T_S3_S2_, symObjAddr: 0xED110, symBinAddr: 0x1000F68B0, symSize: 0x2B4 }
  - { offsetInCU: 0x29C4C, offset: 0x342EE, size: 0x8, addend: 0x0, symName: __ZNSt3__16__moveB7v160006INS_17_ClassicAlgPolicyEPjS2_S2_EENS_4pairIT0_T2_EES4_T1_S5_, symObjAddr: 0xED3C4, symBinAddr: 0x1000F6B64, symSize: 0x22C }
  - { offsetInCU: 0x29CBB, offset: 0x3435D, size: 0x8, addend: 0x0, symName: __ZNSt3__123__dispatch_copy_or_moveB7v160006INS_17_ClassicAlgPolicyENS_11__move_loopIS1_EENS_14__move_trivialEPjS5_S5_EENS_4pairIT2_T4_EES7_T3_S8_, symObjAddr: 0xED5F0, symBinAddr: 0x1000F6D90, symSize: 0x22C }
  - { offsetInCU: 0x29D3C, offset: 0x343DE, size: 0x8, addend: 0x0, symName: __ZNSt3__121__unwrap_and_dispatchB7v160006INS_10__overloadINS_11__move_loopINS_17_ClassicAlgPolicyEEENS_14__move_trivialEEEPjS7_S7_Li0EEENS_4pairIT0_T2_EES9_T1_SA_, symObjAddr: 0xED81C, symBinAddr: 0x1000F6FBC, symSize: 0x634 }
  - { offsetInCU: 0x29E63, offset: 0x34505, size: 0x8, addend: 0x0, symName: __ZNSt3__18__invokeB7v160006INS_16__variant_detail12__visitation9__variant15__value_visitorINS_17__convert_to_boolINS_7greaterIvEEEEEEJRKNS1_5__altILm0EiEESD_EEEDTclclsr3stdE7declvalIT_EEspclsr3stdE7declvalIT0_EEEEOSE_DpOSF_, symObjAddr: 0xEFC68, symBinAddr: 0x1000F9408, symSize: 0x110 }
  - { offsetInCU: 0x29EC9, offset: 0x3456B, size: 0x8, addend: 0x0, symName: __ZNSt3__18__invokeB7v160006INS_17__convert_to_boolINS_7greaterIvEEEEJRKiS6_EEEDTclclsr3stdE7declvalIT_EEspclsr3stdE7declvalIT0_EEEEOS7_DpOS8_, symObjAddr: 0xEFF88, symBinAddr: 0x1000F9728, symSize: 0xF4 }
  - { offsetInCU: 0x29F2F, offset: 0x345D1, size: 0x8, addend: 0x0, symName: __ZNSt3__18__invokeB7v160006INS_16__variant_detail12__visitation9__variant15__value_visitorINS_17__convert_to_boolINS_7greaterIvEEEEEEJRKNS1_5__altILm1EdEESD_EEEDTclclsr3stdE7declvalIT_EEspclsr3stdE7declvalIT0_EEEEOSE_DpOSF_, symObjAddr: 0xF04F0, symBinAddr: 0x1000F9C90, symSize: 0x110 }
  - { offsetInCU: 0x29F95, offset: 0x34637, size: 0x8, addend: 0x0, symName: __ZNSt3__18__invokeB7v160006INS_17__convert_to_boolINS_7greaterIvEEEEJRKdS6_EEEDTclclsr3stdE7declvalIT_EEspclsr3stdE7declvalIT0_EEEEOS7_DpOS8_, symObjAddr: 0xF0810, symBinAddr: 0x1000F9FB0, symSize: 0xF4 }
  - { offsetInCU: 0x29FFB, offset: 0x3469D, size: 0x8, addend: 0x0, symName: __ZNSt3__18__invokeB7v160006INS_16__variant_detail12__visitation9__variant15__value_visitorINS_17__convert_to_boolINS_7greaterIvEEEEEEJRKNS1_5__altILm2EbEESD_EEEDTclclsr3stdE7declvalIT_EEspclsr3stdE7declvalIT0_EEEEOSE_DpOSF_, symObjAddr: 0xF0D28, symBinAddr: 0x1000FA4C8, symSize: 0xD8 }
  - { offsetInCU: 0x2A061, offset: 0x34703, size: 0x8, addend: 0x0, symName: __ZNSt3__18__invokeB7v160006INS_17__convert_to_boolINS_7greaterIvEEEEJRKbS6_EEEDTclclsr3stdE7declvalIT_EEspclsr3stdE7declvalIT0_EEEEOS7_DpOS8_, symObjAddr: 0xF0FA0, symBinAddr: 0x1000FA740, symSize: 0xBC }
  - { offsetInCU: 0x2A0C7, offset: 0x34769, size: 0x8, addend: 0x0, symName: __ZNSt3__18__invokeB7v160006INS_16__variant_detail12__visitation9__variant15__value_visitorINS_17__convert_to_boolINS_7greaterIvEEEEEEJRKNS1_5__altILm3ENS_12basic_stringIcNS_11char_traitsIcEENS_9allocatorIcEEEEEESJ_EEEDTclclsr3stdE7declvalIT_EEspclsr3stdE7declvalIT0_EEEEOSK_DpOSL_, symObjAddr: 0xF14C0, symBinAddr: 0x1000FAC60, symSize: 0x110 }
  - { offsetInCU: 0x2A12D, offset: 0x347CF, size: 0x8, addend: 0x0, symName: __ZNSt3__18__invokeB7v160006INS_17__convert_to_boolINS_7greaterIvEEEEJRKNS_12basic_stringIcNS_11char_traitsIcEENS_9allocatorIcEEEESC_EEEDTclclsr3stdE7declvalIT_EEspclsr3stdE7declvalIT0_EEEEOSD_DpOSE_, symObjAddr: 0xF17E0, symBinAddr: 0x1000FAF80, symSize: 0xF4 }
  - { offsetInCU: 0x2A193, offset: 0x34835, size: 0x8, addend: 0x0, symName: __ZNSt3__1eqB7v160006IPjEEbRKNS_11__wrap_iterIT_EES6_, symObjAddr: 0xF1D34, symBinAddr: 0x1000FB414, symSize: 0x9C }
  - { offsetInCU: 0x2A1D6, offset: 0x34878, size: 0x8, addend: 0x0, symName: __ZNSt3__120__throw_if_valuelessB7v160006IJRKNS_7variantIJidbNS_12basic_stringIcNS_11char_traitsIcEENS_9allocatorIcEEEEEEEEEEvDpOT_, symObjAddr: 0xF1DD0, symBinAddr: 0x1000FB4B0, symSize: 0x124 }
  - { offsetInCU: 0x2A21D, offset: 0x348BF, size: 0x8, addend: 0x0, symName: __ZNSt3__126__throw_bad_variant_accessB7v160006Ev, symObjAddr: 0xF2188, symBinAddr: 0x1000FB868, symSize: 0x90 }
  - { offsetInCU: 0x2A27D, offset: 0x3491F, size: 0x8, addend: 0x0, symName: __ZNSt3__18__invokeB7v160006INS_16__variant_detail12__visitation9__variant15__value_visitorIZN5Silly5printEvEUlRKT_E_EEJRKNS1_5__altILm0EiEEEEEDTclclsr3stdE7declvalIS6_EEspclsr3stdE7declvalIT0_EEEEOS6_DpOSF_, symObjAddr: 0xF3230, symBinAddr: 0x1000FC910, symSize: 0xBC }
  - { offsetInCU: 0x2A2CC, offset: 0x3496E, size: 0x8, addend: 0x0, symName: __ZNSt3__18__invokeB7v160006IZN5Silly5printEvEUlRKT_E_JRKiEEEDTclclsr3stdE7declvalIS2_EEspclsr3stdE7declvalIT0_EEEEOS2_DpOS8_, symObjAddr: 0xF3464, symBinAddr: 0x1000FCB44, symSize: 0xA0 }
  - { offsetInCU: 0x2A31B, offset: 0x349BD, size: 0x8, addend: 0x0, symName: __ZNSt3__18__invokeB7v160006INS_16__variant_detail12__visitation9__variant15__value_visitorIZN5Silly5printEvEUlRKT_E_EEJRKNS1_5__altILm1EdEEEEEDTclclsr3stdE7declvalIS6_EEspclsr3stdE7declvalIT0_EEEEOS6_DpOSF_, symObjAddr: 0xF3684, symBinAddr: 0x1000FCD64, symSize: 0xBC }
  - { offsetInCU: 0x2A36A, offset: 0x34A0C, size: 0x8, addend: 0x0, symName: __ZNSt3__18__invokeB7v160006IZN5Silly5printEvEUlRKT_E_JRKdEEEDTclclsr3stdE7declvalIS2_EEspclsr3stdE7declvalIT0_EEEEOS2_DpOS8_, symObjAddr: 0xF38B8, symBinAddr: 0x1000FCF98, symSize: 0xA0 }
  - { offsetInCU: 0x2A3B9, offset: 0x34A5B, size: 0x8, addend: 0x0, symName: __ZNSt3__18__invokeB7v160006INS_16__variant_detail12__visitation9__variant15__value_visitorIZN5Silly5printEvEUlRKT_E_EEJRKNS1_5__altILm2EbEEEEEDTclclsr3stdE7declvalIS6_EEspclsr3stdE7declvalIT0_EEEEOS6_DpOSF_, symObjAddr: 0xF3AB0, symBinAddr: 0x1000FD190, symSize: 0xA0 }
  - { offsetInCU: 0x2A408, offset: 0x34AAA, size: 0x8, addend: 0x0, symName: __ZNSt3__18__invokeB7v160006IZN5Silly5printEvEUlRKT_E_JRKbEEEDTclclsr3stdE7declvalIS2_EEspclsr3stdE7declvalIT0_EEEEOS2_DpOS8_, symObjAddr: 0xF3C90, symBinAddr: 0x1000FD370, symSize: 0x84 }
  - { offsetInCU: 0x2A457, offset: 0x34AF9, size: 0x8, addend: 0x0, symName: __ZNSt3__18__invokeB7v160006INS_16__variant_detail12__visitation9__variant15__value_visitorIZN5Silly5printEvEUlRKT_E_EEJRKNS1_5__altILm3ENS_12basic_stringIcNS_11char_traitsIcEENS_9allocatorIcEEEEEEEEEDTclclsr3stdE7declvalIS6_EEspclsr3stdE7declvalIT0_EEEEOS6_DpOSL_, symObjAddr: 0xF3EC4, symBinAddr: 0x1000FD5A4, symSize: 0xBC }
  - { offsetInCU: 0x2A4A6, offset: 0x34B48, size: 0x8, addend: 0x0, symName: __ZNSt3__18__invokeB7v160006IZN5Silly5printEvEUlRKT_E_JRKNS_12basic_stringIcNS_11char_traitsIcEENS_9allocatorIcEEEEEEEDTclclsr3stdE7declvalIS2_EEspclsr3stdE7declvalIT0_EEEEOS2_DpOSE_, symObjAddr: 0xF40F8, symBinAddr: 0x1000FD7D8, symSize: 0xA0 }
  - { offsetInCU: 0x2A4F5, offset: 0x34B97, size: 0x8, addend: 0x0, symName: __ZNSt3__14sortB7v160006INS_16reverse_iteratorINS_11__wrap_iterIPjEEEEEEvT_S6_, symObjAddr: 0xF4504, symBinAddr: 0x1000FDBE4, symSize: 0x354 }
  - { offsetInCU: 0x2A540, offset: 0x34BE2, size: 0x8, addend: 0x0, symName: __ZNSt3__14sortB7v160006INS_16reverse_iteratorINS_11__wrap_iterIPjEEEENS_6__lessIjjEEEEvT_S8_T0_, symObjAddr: 0xF5A7C, symBinAddr: 0x1000FF15C, symSize: 0x364 }
  - { offsetInCU: 0x2A5A7, offset: 0x34C49, size: 0x8, addend: 0x0, symName: __ZNSt3__111__sort_implB7v160006INS_17_ClassicAlgPolicyENS_16reverse_iteratorINS_11__wrap_iterIPjEEEENS_6__lessIjjEEEEvT0_S9_RT1_, symObjAddr: 0xF5DE0, symBinAddr: 0x1000FF4C0, symSize: 0x5D8 }
  - { offsetInCU: 0x2A65B, offset: 0x34CFD, size: 0x8, addend: 0x0, symName: __ZNSt3__123__debug_randomize_rangeB7v160006INS_17_ClassicAlgPolicyENS_16reverse_iteratorINS_11__wrap_iterIPjEEEES6_EEvT0_T1_, symObjAddr: 0xF63B8, symBinAddr: 0x1000FFA98, symSize: 0x268 }
  - { offsetInCU: 0x2A6B5, offset: 0x34D57, size: 0x8, addend: 0x0, symName: __ZNSt3__16__sortIRNS_6__lessIjjEENS_16reverse_iteratorINS_11__wrap_iterIPjEEEEEEvT0_S9_T_, symObjAddr: 0xF6620, symBinAddr: 0x1000FFD00, symSize: 0x450 }
  - { offsetInCU: 0x2A751, offset: 0x34DF3, size: 0x8, addend: 0x0, symName: __ZNSt3__113__unwrap_iterB7v160006INS_16reverse_iteratorINS_11__wrap_iterIPjEEEENS_18__unwrap_iter_implIS5_Lb0EEELi0EEEDTclsrT0_8__unwrapclsr3stdE7declvalIT_EEEES9_, symObjAddr: 0xF6A70, symBinAddr: 0x100100150, symSize: 0x2EC }
  - { offsetInCU: 0x2A79A, offset: 0x34E3C, size: 0x8, addend: 0x0, symName: __ZNSt3__17__log2iB7v160006IlEET_S1_, symObjAddr: 0xF6D5C, symBinAddr: 0x10010043C, symSize: 0x54 }
  - { offsetInCU: 0x2A7D1, offset: 0x34E73, size: 0x8, addend: 0x0, symName: __ZNSt3__1miB7v160006INS_11__wrap_iterIPjEES3_EEDTmicldtfp0_4baseEcldtfp_4baseEERKNS_16reverse_iteratorIT_EERKNS5_IT0_EE, symObjAddr: 0xF6DB0, symBinAddr: 0x100100490, symSize: 0x308 }
  - { offsetInCU: 0x2A890, offset: 0x34F32, size: 0x8, addend: 0x0, symName: __ZNSt3__124__sort3_maybe_branchlessB7v160006INS_17_ClassicAlgPolicyERNS_6__lessIjjEENS_16reverse_iteratorINS_11__wrap_iterIPjEEEEEENS_9enable_ifIXntsr21__use_branchless_sortIT0_T1_EE5valueEvE4typeESC_SC_SC_SB_, symObjAddr: 0xFA220, symBinAddr: 0x100103900, symSize: 0x458 }
  - { offsetInCU: 0x2A90E, offset: 0x34FB0, size: 0x8, addend: 0x0, symName: __ZNSt3__124__sort4_maybe_branchlessB7v160006INS_17_ClassicAlgPolicyERNS_6__lessIjjEENS_16reverse_iteratorINS_11__wrap_iterIPjEEEEEENS_9enable_ifIXntsr21__use_branchless_sortIT0_T1_EE5valueEvE4typeESC_SC_SC_SC_SB_, symObjAddr: 0xFA9D4, symBinAddr: 0x1001040B4, symSize: 0x510 }
  - { offsetInCU: 0x2A9A5, offset: 0x35047, size: 0x8, addend: 0x0, symName: __ZNSt3__124__sort5_maybe_branchlessB7v160006INS_17_ClassicAlgPolicyERNS_6__lessIjjEENS_16reverse_iteratorINS_11__wrap_iterIPjEEEEEENS_9enable_ifIXntsr21__use_branchless_sortIT0_T1_EE5valueEvE4typeESC_SC_SC_SC_SC_SB_, symObjAddr: 0xFAEE4, symBinAddr: 0x1001045C4, symSize: 0x5E8 }
  - { offsetInCU: 0x2AA50, offset: 0x350F2, size: 0x8, addend: 0x0, symName: __ZNSt3__114__partial_sortB7v160006INS_17_ClassicAlgPolicyERNS_6__lessIjjEENS_16reverse_iteratorINS_11__wrap_iterIPjEEEES9_EET1_SA_SA_T2_RT0_, symObjAddr: 0xFC050, symBinAddr: 0x100105730, symSize: 0x7C0 }
  - { offsetInCU: 0x2AAEA, offset: 0x3518C, size: 0x8, addend: 0x0, symName: __ZNSt3__119__sort5_wrap_policyB7v160006INS_17_ClassicAlgPolicyERNS_6__lessIjjEENS_16reverse_iteratorINS_11__wrap_iterIPjEEEEEEjT1_SA_SA_SA_SA_T0_, symObjAddr: 0xFC920, symBinAddr: 0x100106000, symSize: 0x624 }
  - { offsetInCU: 0x2ABA8, offset: 0x3524A, size: 0x8, addend: 0x0, symName: __ZNSt3__17__sort3B7v160006INS_17_ClassicAlgPolicyERNS_6__lessIjjEENS_16reverse_iteratorINS_11__wrap_iterIPjEEEEEEjT1_SA_SA_T0_, symObjAddr: 0xFCF44, symBinAddr: 0x100106624, symSize: 0x7F4 }
  - { offsetInCU: 0x2AC35, offset: 0x352D7, size: 0x8, addend: 0x0, symName: __ZNSt3__1eqB7v160006INS_11__wrap_iterIPjEES3_EEbRKNS_16reverse_iteratorIT_EERKNS4_IT0_EE, symObjAddr: 0xFD738, symBinAddr: 0x100106E18, symSize: 0x30C }
  - { offsetInCU: 0x2AC83, offset: 0x35325, size: 0x8, addend: 0x0, symName: __ZNSt3__1geB7v160006INS_11__wrap_iterIPjEES3_EEbRKNS_16reverse_iteratorIT_EERKNS4_IT0_EE, symObjAddr: 0xFDB44, symBinAddr: 0x100107224, symSize: 0x30C }
  - { offsetInCU: 0x2ACD4, offset: 0x35376, size: 0x8, addend: 0x0, symName: __ZNSt3__1ltB7v160006INS_11__wrap_iterIPjEES3_EEbRKNS_16reverse_iteratorIT_EERKNS4_IT0_EE, symObjAddr: 0xFDE50, symBinAddr: 0x100107530, symSize: 0x30C }
  - { offsetInCU: 0x2AD22, offset: 0x353C4, size: 0x8, addend: 0x0, symName: __ZNSt3__1gtB7v160006INS_11__wrap_iterIPjEES3_EEbRKNS_16reverse_iteratorIT_EERKNS4_IT0_EE, symObjAddr: 0xFE15C, symBinAddr: 0x10010783C, symSize: 0x30C }
  - { offsetInCU: 0x2AD70, offset: 0x35412, size: 0x8, addend: 0x0, symName: __ZNSt3__1neB7v160006INS_11__wrap_iterIPjEES3_EEbRKNS_16reverse_iteratorIT_EERKNS4_IT0_EE, symObjAddr: 0xFE468, symBinAddr: 0x100107B48, symSize: 0x30C }
  - { offsetInCU: 0x2ADBE, offset: 0x35460, size: 0x8, addend: 0x0, symName: __ZNSt3__19iter_swapB7v160006INS_16reverse_iteratorINS_11__wrap_iterIPjEEEES5_EEvT_T0_, symObjAddr: 0xFFF90, symBinAddr: 0x100109670, symSize: 0x30C }
  - { offsetInCU: 0x2AE0F, offset: 0x354B1, size: 0x8, addend: 0x0, symName: __ZNSt3__14swapB7v160006IjEENS_9enable_ifIXaasr21is_move_constructibleIT_EE5valuesr18is_move_assignableIS2_EE5valueEvE4typeERS2_S5_, symObjAddr: 0x10029C, symBinAddr: 0x10010997C, symSize: 0x260 }
  - { offsetInCU: 0x2AE60, offset: 0x35502, size: 0x8, addend: 0x0, symName: __ZNSt3__17__sort4B7v160006INS_17_ClassicAlgPolicyERNS_6__lessIjjEENS_16reverse_iteratorINS_11__wrap_iterIPjEEEEEEjT1_SA_SA_SA_T0_, symObjAddr: 0x100CF8, symBinAddr: 0x10010A3D8, symSize: 0x7BC }
  - { offsetInCU: 0x2AF00, offset: 0x355A2, size: 0x8, addend: 0x0, symName: __ZNSt3__119__partial_sort_implB7v160006INS_17_ClassicAlgPolicyERNS_6__lessIjjEENS_16reverse_iteratorINS_11__wrap_iterIPjEEEES9_EET1_SA_SA_T2_OT0_, symObjAddr: 0x101850, symBinAddr: 0x10010AF30, symSize: 0x89C }
  - { offsetInCU: 0x2AFA9, offset: 0x3564B, size: 0x8, addend: 0x0, symName: __ZNSt3__111__make_heapB7v160006INS_17_ClassicAlgPolicyERNS_6__lessIjjEENS_16reverse_iteratorINS_11__wrap_iterIPjEEEEEEvT1_SA_OT0_, symObjAddr: 0x1020EC, symBinAddr: 0x10010B7CC, symSize: 0x4E8 }
  - { offsetInCU: 0x2B059, offset: 0x356FB, size: 0x8, addend: 0x0, symName: __ZNSt3__111__sort_heapB7v160006INS_17_ClassicAlgPolicyERNS_6__lessIjjEENS_16reverse_iteratorINS_11__wrap_iterIPjEEEEEEvT1_SA_OT0_, symObjAddr: 0x1035D4, symBinAddr: 0x10010CCB4, symSize: 0x448 }
  - { offsetInCU: 0x2B0FA, offset: 0x3579C, size: 0x8, addend: 0x0, symName: __ZNSt3__110__pop_heapB7v160006INS_17_ClassicAlgPolicyENS_6__lessIjjEENS_16reverse_iteratorINS_11__wrap_iterIPjEEEEEEvT1_S9_RT0_NS_15iterator_traitsIS9_E15difference_typeE, symObjAddr: 0x103A1C, symBinAddr: 0x10010D0FC, symSize: 0x8C8 }
  - { offsetInCU: 0x2B1B3, offset: 0x35855, size: 0x8, addend: 0x0, symName: __ZNSt3__19__sift_upB7v160006INS_17_ClassicAlgPolicyERNS_6__lessIjjEENS_16reverse_iteratorINS_11__wrap_iterIPjEEEEEEvT1_SA_OT0_NS_15iterator_traitsISA_E15difference_typeE, symObjAddr: 0x104AEC, symBinAddr: 0x10010E1CC, symSize: 0xA9C }
  - { offsetInCU: 0x2B267, offset: 0x35909, size: 0x8, addend: 0x0, symName: __ZNSt3__17__sort5IRNS_6__lessIjjEENS_16reverse_iteratorINS_11__wrap_iterIPjEEEEEEjT0_S9_S9_S9_S9_T_, symObjAddr: 0x1056BC, symBinAddr: 0x10010ED9C, symSize: 0x9D4 }
  - { offsetInCU: 0x2B32B, offset: 0x359CD, size: 0x8, addend: 0x0, symName: __ZNSt3__1leB7v160006IPjEEbRKNS_11__wrap_iterIT_EES6_, symObjAddr: 0x106090, symBinAddr: 0x10010F770, symSize: 0xC4 }
  - { offsetInCU: 0x2B36E, offset: 0x35A10, size: 0x8, addend: 0x0, symName: __ZNSt3__1ltB7v160006IPjEEbRKNS_11__wrap_iterIT_EES6_, symObjAddr: 0x106154, symBinAddr: 0x10010F834, symSize: 0x9C }
  - { offsetInCU: 0x2B3B1, offset: 0x35A53, size: 0x8, addend: 0x0, symName: __ZNSt3__1gtB7v160006IPjEEbRKNS_11__wrap_iterIT_EES6_, symObjAddr: 0x1061F0, symBinAddr: 0x10010F8D0, symSize: 0xC0 }
  - { offsetInCU: 0x2B43C, offset: 0x35ADE, size: 0x8, addend: 0x0, symName: __ZNSt3__1miB7v160006IPKNS_6vectorINS_7variantIJidbNS_12basic_stringIcNS_11char_traitsIcEENS_9allocatorIcEEEEEEENS6_IS9_EEEESD_EEDTmicldtfp_4baseEcldtfp0_4baseEERKNS_11__wrap_iterIT_EERKNSF_IT0_EE, symObjAddr: 0x106524, symBinAddr: 0x10010FC04, symSize: 0x9C }
  - { offsetInCU: 0x2B488, offset: 0x35B2A, size: 0x8, addend: 0x0, symName: __ZNSt3__14moveB7v160006IPNS_6vectorINS_7variantIJidbNS_12basic_stringIcNS_11char_traitsIcEENS_9allocatorIcEEEEEEENS6_IS9_EEEESC_EET0_T_SE_SD_, symObjAddr: 0x10683C, symBinAddr: 0x10010FF1C, symSize: 0x2B4 }
  - { offsetInCU: 0x2B4E5, offset: 0x35B87, size: 0x8, addend: 0x0, symName: __ZNSt3__16__moveB7v160006INS_17_ClassicAlgPolicyEPNS_6vectorINS_7variantIJidbNS_12basic_stringIcNS_11char_traitsIcEENS_9allocatorIcEEEEEEENS7_ISA_EEEESD_SD_EENS_4pairIT0_T2_EESF_T1_SG_, symObjAddr: 0x107438, symBinAddr: 0x100110B18, symSize: 0x22C }
  - { offsetInCU: 0x2B554, offset: 0x35BF6, size: 0x8, addend: 0x0, symName: __ZNSt3__123__dispatch_copy_or_moveB7v160006INS_17_ClassicAlgPolicyENS_11__move_loopIS1_EENS_14__move_trivialEPNS_6vectorINS_7variantIJidbNS_12basic_stringIcNS_11char_traitsIcEENS_9allocatorIcEEEEEEENSA_ISD_EEEESG_SG_EENS_4pairIT2_T4_EESI_T3_SJ_, symObjAddr: 0x107664, symBinAddr: 0x100110D44, symSize: 0x22C }
  - { offsetInCU: 0x2B5D5, offset: 0x35C77, size: 0x8, addend: 0x0, symName: __ZNSt3__121__unwrap_and_dispatchB7v160006INS_10__overloadINS_11__move_loopINS_17_ClassicAlgPolicyEEENS_14__move_trivialEEEPNS_6vectorINS_7variantIJidbNS_12basic_stringIcNS_11char_traitsIcEENS_9allocatorIcEEEEEEENSC_ISF_EEEESI_SI_Li0EEENS_4pairIT0_T2_EESK_T1_SL_, symObjAddr: 0x107890, symBinAddr: 0x100110F70, symSize: 0x634 }
  - { offsetInCU: 0x2B693, offset: 0x35D35, size: 0x8, addend: 0x0, symName: __ZNSt3__15visitB7v160006IZN5Silly4joinEvEUlRKT_E_JRKNS_7variantIJidbNS_12basic_stringIcNS_11char_traitsIcEENS_9allocatorIcEEEEEEEEvEEDcOS2_DpOT0_, symObjAddr: 0x109730, symBinAddr: 0x100112D4C, symSize: 0xFC }
  - { offsetInCU: 0x2B6EF, offset: 0x35D91, size: 0x8, addend: 0x0, symName: __ZNSt3__1neB7v160006IPNS_6vectorINS_7variantIJidbNS_12basic_stringIcNS_11char_traitsIcEENS_9allocatorIcEEEEEEENS6_IS9_EEEEEEbRKNS_11__wrap_iterIT_EESH_, symObjAddr: 0x109FD8, symBinAddr: 0x1001135F4, symSize: 0xC4 }
  - { offsetInCU: 0x2B732, offset: 0x35DD4, size: 0x8, addend: 0x0, symName: __ZNSt3__15visitB7v160006IZN5Silly4joinEvEUlRKT_E0_JRKNS_7variantIJidbNS_12basic_stringIcNS_11char_traitsIcEENS_9allocatorIcEEEEEEEEvEEDcOS2_DpOT0_, symObjAddr: 0x10A190, symBinAddr: 0x1001137AC, symSize: 0xFC }
  - { offsetInCU: 0x2B78E, offset: 0x35E30, size: 0x8, addend: 0x0, symName: __ZNSt3__1neB7v160006IPNS_4pairINS_12basic_stringIcNS_11char_traitsIcEENS_9allocatorIcEEEEjEEEEbRKNS_11__wrap_iterIT_EESE_, symObjAddr: 0x10AC08, symBinAddr: 0x100114224, symSize: 0xC4 }
  - { offsetInCU: 0x2B7D1, offset: 0x35E73, size: 0x8, addend: 0x0, symName: __ZNSt3__13getB7v160006ILm0ENS_12basic_stringIcNS_11char_traitsIcEENS_9allocatorIcEEEEjEERKNS_13tuple_elementIXT_ENS_4pairIT0_T1_EEE4typeERKSB_, symObjAddr: 0x10ADC0, symBinAddr: 0x1001143DC, symSize: 0xB4 }
  - { offsetInCU: 0x2B81B, offset: 0x35EBD, size: 0x8, addend: 0x0, symName: __ZNSt3__13getB7v160006ILm1ENS_12basic_stringIcNS_11char_traitsIcEENS_9allocatorIcEEEEjEERKNS_13tuple_elementIXT_ENS_4pairIT0_T1_EEE4typeERKSB_, symObjAddr: 0x10AE74, symBinAddr: 0x100114490, symSize: 0xB4 }
  - { offsetInCU: 0x2B865, offset: 0x35F07, size: 0x8, addend: 0x0, symName: __ZNSt3__15visitB7v160006IZN5Silly4joinEvEUlRKT_E1_JRKNS_7variantIJidbNS_12basic_stringIcNS_11char_traitsIcEENS_9allocatorIcEEEEEEEEvEEDcOS2_DpOT0_, symObjAddr: 0x10B0FC, symBinAddr: 0x100114718, symSize: 0xFC }
  - { offsetInCU: 0x2B8C1, offset: 0x35F63, size: 0x8, addend: 0x0, symName: __ZNSt3__15visitB7v160006IZN5Silly4joinEvEUlRKT_E2_JRKNS_7variantIJidbNS_12basic_stringIcNS_11char_traitsIcEENS_9allocatorIcEEEEEEEEvEEDcOS2_DpOT0_, symObjAddr: 0x10B744, symBinAddr: 0x100114D60, symSize: 0xFC }
  - { offsetInCU: 0x2B91D, offset: 0x35FBF, size: 0x8, addend: 0x0, symName: __ZNSt3__15visitB7v160006IZN5Silly4joinEvEUlRKT_E3_JRKNS_7variantIJidbNS_12basic_stringIcNS_11char_traitsIcEENS_9allocatorIcEEEEEEEEvEEDcOS2_DpOT0_, symObjAddr: 0x10B840, symBinAddr: 0x100114E5C, symSize: 0xFC }
  - { offsetInCU: 0x2B979, offset: 0x3601B, size: 0x8, addend: 0x0, symName: __ZNSt3__1neB7v160006IPNS_6vectorINS_12basic_stringIcNS_11char_traitsIcEENS_9allocatorIcEEEENS5_IS7_EEEEEEbRKNS_11__wrap_iterIT_EESF_, symObjAddr: 0x10C164, symBinAddr: 0x100115780, symSize: 0xC4 }
  - { offsetInCU: 0x2B9BD, offset: 0x3605F, size: 0x8, addend: 0x0, symName: __ZNSt3__119__debug_db_insert_cB7v160006INS_6vectorINS_4pairINS_12basic_stringIcNS_11char_traitsIcEENS_9allocatorIcEEEEjEENS6_IS9_EEEEEEvPT_, symObjAddr: 0x10CA80, symBinAddr: 0x10011609C, symSize: 0x10 }
  - { offsetInCU: 0x2B9EE, offset: 0x36090, size: 0x8, addend: 0x0, symName: __ZNSt3__112__to_addressB7v160006INS_4pairINS_12basic_stringIcNS_11char_traitsIcEENS_9allocatorIcEEEEjEEEEPT_SA_, symObjAddr: 0x10E02C, symBinAddr: 0x100117648, symSize: 0x14 }
  - { offsetInCU: 0x2BA22, offset: 0x360C4, size: 0x8, addend: 0x0, symName: __ZNSt3__119__allocate_at_leastB7v160006INS_9allocatorINS_4pairINS_12basic_stringIcNS_11char_traitsIcEENS1_IcEEEEjEEEEEENS_19__allocation_resultINS_16allocator_traitsIT_E7pointerEEERSC_m, symObjAddr: 0x111794, symBinAddr: 0x10011ADB0, symSize: 0x28C }
  - { offsetInCU: 0x2BA67, offset: 0x36109, size: 0x8, addend: 0x0, symName: __ZNSt3__142__uninitialized_allocator_move_if_noexceptB7v160006INS_9allocatorINS_4pairINS_12basic_stringIcNS_11char_traitsIcEENS1_IcEEEEjEEEENS_16reverse_iteratorIPS8_EESC_SC_EET2_RT_T0_T1_SD_, symObjAddr: 0x1125D0, symBinAddr: 0x10011BBEC, symSize: 0x5D8 }
  - { offsetInCU: 0x2BB1C, offset: 0x361BE, size: 0x8, addend: 0x0, symName: __ZNSt3__14swapB7v160006IPNS_4pairINS_12basic_stringIcNS_11char_traitsIcEENS_9allocatorIcEEEEjEEEENS_9enable_ifIXaasr21is_move_constructibleIT_EE5valuesr18is_move_assignableISB_EE5valueEvE4typeERSB_SE_, symObjAddr: 0x112CD8, symBinAddr: 0x10011C2F4, symSize: 0x1C0 }
  - { offsetInCU: 0x2BB6E, offset: 0x36210, size: 0x8, addend: 0x0, symName: __ZNSt3__125__debug_db_invalidate_allB7v160006INS_6vectorINS_4pairINS_12basic_stringIcNS_11char_traitsIcEENS_9allocatorIcEEEEjEENS6_IS9_EEEEEEvPT_, symObjAddr: 0x1131F8, symBinAddr: 0x10011C814, symSize: 0x10 }
  - { offsetInCU: 0x2BB9E, offset: 0x36240, size: 0x8, addend: 0x0, symName: __ZNSt3__122__make_exception_guardB7v160006INS_29_AllocatorDestroyRangeReverseINS_9allocatorINS_4pairINS_12basic_stringIcNS_11char_traitsIcEENS2_IcEEEEjEEEENS_16reverse_iteratorIPS9_EEEEEENS_28__exception_guard_exceptionsIT_EESG_, symObjAddr: 0x113208, symBinAddr: 0x10011C824, symSize: 0x23C }
  - { offsetInCU: 0x2BBD5, offset: 0x36277, size: 0x8, addend: 0x0, symName: __ZNSt3__1neB7v160006IPNS_4pairINS_12basic_stringIcNS_11char_traitsIcEENS_9allocatorIcEEEEjEES9_EEbRKNS_16reverse_iteratorIT_EERKNSA_IT0_EE, symObjAddr: 0x1134D4, symBinAddr: 0x10011CAF0, symSize: 0x9C }
  - { offsetInCU: 0x2BC21, offset: 0x362C3, size: 0x8, addend: 0x0, symName: __ZNSt3__112__to_addressB7v160006INS_16reverse_iteratorIPNS_4pairINS_12basic_stringIcNS_11char_traitsIcEENS_9allocatorIcEEEEjEEEEvEENS_5decayIDTclsr19__to_address_helperIT_EE6__callclsr3stdE7declvalIRKSD_EEEEE4typeESF_, symObjAddr: 0x1135FC, symBinAddr: 0x10011CC18, symSize: 0x6C }
  - { offsetInCU: 0x2BC82, offset: 0x36324, size: 0x8, addend: 0x0, symName: __ZNSt3__119__allocator_destroyB7v160006INS_9allocatorINS_4pairINS_12basic_stringIcNS_11char_traitsIcEENS1_IcEEEEjEEEENS_16reverse_iteratorINSA_IPS8_EEEESD_EEvRT_T0_T1_, symObjAddr: 0x1148D4, symBinAddr: 0x10011DEF0, symSize: 0x1A4 }
  - { offsetInCU: 0x2BCE8, offset: 0x3638A, size: 0x8, addend: 0x0, symName: __ZNSt3__1neB7v160006INS_16reverse_iteratorIPNS_4pairINS_12basic_stringIcNS_11char_traitsIcEENS_9allocatorIcEEEEjEEEESB_EEbRKNS1_IT_EERKNS1_IT0_EE, symObjAddr: 0x114D14, symBinAddr: 0x10011E330, symSize: 0x324 }
  - { offsetInCU: 0x2BD36, offset: 0x363D8, size: 0x8, addend: 0x0, symName: __ZNSt3__112__to_addressB7v160006INS_16reverse_iteratorINS1_IPNS_4pairINS_12basic_stringIcNS_11char_traitsIcEENS_9allocatorIcEEEEjEEEEEEvEENS_5decayIDTclsr19__to_address_helperIT_EE6__callclsr3stdE7declvalIRKSE_EEEEE4typeESG_, symObjAddr: 0x115064, symBinAddr: 0x10011E680, symSize: 0x6C }
  - { offsetInCU: 0x2BD98, offset: 0x3643A, size: 0x8, addend: 0x0, symName: __ZNSt3__119__debug_db_insert_cB7v160006INS_6vectorINS1_INS_12basic_stringIcNS_11char_traitsIcEENS_9allocatorIcEEEENS5_IS7_EEEENS5_IS9_EEEEEEvPT_, symObjAddr: 0x116B34, symBinAddr: 0x100120150, symSize: 0x10 }
  - { offsetInCU: 0x2BE0E, offset: 0x364B0, size: 0x8, addend: 0x0, symName: __ZNSt3__18__invokeB7v160006INS_16__variant_detail12__visitation9__variant15__value_visitorIZN5Silly4joinEvEUlRKT_E_EEJRKNS1_5__altILm0EiEEEEEDTclclsr3stdE7declvalIS6_EEspclsr3stdE7declvalIT0_EEEEOS6_DpOSF_, symObjAddr: 0x117E50, symBinAddr: 0x10012146C, symSize: 0xC8 }
  - { offsetInCU: 0x2BE60, offset: 0x36502, size: 0x8, addend: 0x0, symName: __ZNSt3__18__invokeB7v160006IZN5Silly4joinEvEUlRKT_E_JRKiEEEDTclclsr3stdE7declvalIS2_EEspclsr3stdE7declvalIT0_EEEEOS2_DpOS8_, symObjAddr: 0x11809C, symBinAddr: 0x1001216B8, symSize: 0xAC }
  - { offsetInCU: 0x2BEB2, offset: 0x36554, size: 0x8, addend: 0x0, symName: __ZNSt3__18__invokeB7v160006INS_16__variant_detail12__visitation9__variant15__value_visitorIZN5Silly4joinEvEUlRKT_E_EEJRKNS1_5__altILm1EdEEEEEDTclclsr3stdE7declvalIS6_EEspclsr3stdE7declvalIT0_EEEEOS6_DpOSF_, symObjAddr: 0x1181E8, symBinAddr: 0x100121804, symSize: 0xC8 }
  - { offsetInCU: 0x2BF04, offset: 0x365A6, size: 0x8, addend: 0x0, symName: __ZNSt3__18__invokeB7v160006IZN5Silly4joinEvEUlRKT_E_JRKdEEEDTclclsr3stdE7declvalIS2_EEspclsr3stdE7declvalIT0_EEEEOS2_DpOS8_, symObjAddr: 0x118434, symBinAddr: 0x100121A50, symSize: 0xAC }
  - { offsetInCU: 0x2BF56, offset: 0x365F8, size: 0x8, addend: 0x0, symName: __ZNSt3__122__str_find_last_not_ofB7v160006IcmNS_11char_traitsIcEELm18446744073709551615EEET0_PKT_S3_S4_S3_, symObjAddr: 0x118AD8, symBinAddr: 0x1001220F4, symSize: 0x2D8 }
  - { offsetInCU: 0x2BFFD, offset: 0x3669F, size: 0x8, addend: 0x0, symName: __ZNSt3__18__invokeB7v160006INS_16__variant_detail12__visitation9__variant15__value_visitorIZN5Silly4joinEvEUlRKT_E_EEJRKNS1_5__altILm2EbEEEEEDTclclsr3stdE7declvalIS6_EEspclsr3stdE7declvalIT0_EEEEOS6_DpOSF_, symObjAddr: 0x119314, symBinAddr: 0x100122930, symSize: 0xAC }
  - { offsetInCU: 0x2C04F, offset: 0x366F1, size: 0x8, addend: 0x0, symName: __ZNSt3__18__invokeB7v160006IZN5Silly4joinEvEUlRKT_E_JRKbEEEDTclclsr3stdE7declvalIS2_EEspclsr3stdE7declvalIT0_EEEEOS2_DpOS8_, symObjAddr: 0x11950C, symBinAddr: 0x100122B28, symSize: 0x90 }
  - { offsetInCU: 0x2C0A1, offset: 0x36743, size: 0x8, addend: 0x0, symName: __ZNSt3__18__invokeB7v160006INS_16__variant_detail12__visitation9__variant15__value_visitorIZN5Silly4joinEvEUlRKT_E_EEJRKNS1_5__altILm3ENS_12basic_stringIcNS_11char_traitsIcEENS_9allocatorIcEEEEEEEEEDTclclsr3stdE7declvalIS6_EEspclsr3stdE7declvalIT0_EEEEOS6_DpOSL_, symObjAddr: 0x1199D0, symBinAddr: 0x100122CEC, symSize: 0xC8 }
  - { offsetInCU: 0x2C0F3, offset: 0x36795, size: 0x8, addend: 0x0, symName: __ZNSt3__18__invokeB7v160006IZN5Silly4joinEvEUlRKT_E_JRKNS_12basic_stringIcNS_11char_traitsIcEENS_9allocatorIcEEEEEEEDTclclsr3stdE7declvalIS2_EEspclsr3stdE7declvalIT0_EEEEOS2_DpOSE_, symObjAddr: 0x119C1C, symBinAddr: 0x100122F38, symSize: 0xAC }
  - { offsetInCU: 0x2C145, offset: 0x367E7, size: 0x8, addend: 0x0, symName: __ZNSt3__116forward_as_tupleB7v160006IJNS_7variantIJidbNS_12basic_stringIcNS_11char_traitsIcEENS_9allocatorIcEEEEEEEEEENS_5tupleIJDpOT_EEESC_, symObjAddr: 0x11BCA4, symBinAddr: 0x100124FC0, symSize: 0x244 }
  - { offsetInCU: 0x2C180, offset: 0x36822, size: 0x8, addend: 0x0, symName: __ZNSt3__13getB7v160006ILm0EJONS_7variantIJidbNS_12basic_stringIcNS_11char_traitsIcEENS_9allocatorIcEEEEEEEEEERNS_13tuple_elementIXT_ENS_5tupleIJDpT0_EEEE4typeERSE_, symObjAddr: 0x11CFF0, symBinAddr: 0x10012630C, symSize: 0xE0 }
  - { offsetInCU: 0x2C1DA, offset: 0x3687C, size: 0x8, addend: 0x0, symName: __ZNSt3__1eqB7v160006IPNS_6vectorINS_7variantIJidbNS_12basic_stringIcNS_11char_traitsIcEENS_9allocatorIcEEEEEEENS6_IS9_EEEEEEbRKNS_11__wrap_iterIT_EESH_, symObjAddr: 0x11D5A0, symBinAddr: 0x1001268BC, symSize: 0x9C }
  - { offsetInCU: 0x2C263, offset: 0x36905, size: 0x8, addend: 0x0, symName: __ZNSt3__18__invokeB7v160006INS_16__variant_detail12__visitation9__variant15__value_visitorIZN5Silly4joinEvEUlRKT_E0_EEJRKNS1_5__altILm0EiEEEEEDTclclsr3stdE7declvalIS6_EEspclsr3stdE7declvalIT0_EEEEOS6_DpOSF_, symObjAddr: 0x11E5F0, symBinAddr: 0x10012790C, symSize: 0xC8 }
  - { offsetInCU: 0x2C2B5, offset: 0x36957, size: 0x8, addend: 0x0, symName: __ZNSt3__18__invokeB7v160006IZN5Silly4joinEvEUlRKT_E0_JRKiEEEDTclclsr3stdE7declvalIS2_EEspclsr3stdE7declvalIT0_EEEEOS2_DpOS8_, symObjAddr: 0x11E83C, symBinAddr: 0x100127B58, symSize: 0xAC }
  - { offsetInCU: 0x2C307, offset: 0x369A9, size: 0x8, addend: 0x0, symName: __ZNSt3__18__invokeB7v160006INS_16__variant_detail12__visitation9__variant15__value_visitorIZN5Silly4joinEvEUlRKT_E0_EEJRKNS1_5__altILm1EdEEEEEDTclclsr3stdE7declvalIS6_EEspclsr3stdE7declvalIT0_EEEEOS6_DpOSF_, symObjAddr: 0x11E988, symBinAddr: 0x100127CA4, symSize: 0xC8 }
  - { offsetInCU: 0x2C359, offset: 0x369FB, size: 0x8, addend: 0x0, symName: __ZNSt3__18__invokeB7v160006IZN5Silly4joinEvEUlRKT_E0_JRKdEEEDTclclsr3stdE7declvalIS2_EEspclsr3stdE7declvalIT0_EEEEOS2_DpOS8_, symObjAddr: 0x11EBD4, symBinAddr: 0x100127EF0, symSize: 0xAC }
  - { offsetInCU: 0x2C3AB, offset: 0x36A4D, size: 0x8, addend: 0x0, symName: __ZNSt3__18__invokeB7v160006INS_16__variant_detail12__visitation9__variant15__value_visitorIZN5Silly4joinEvEUlRKT_E0_EEJRKNS1_5__altILm2EbEEEEEDTclclsr3stdE7declvalIS6_EEspclsr3stdE7declvalIT0_EEEEOS6_DpOSF_, symObjAddr: 0x11EF4C, symBinAddr: 0x100128268, symSize: 0xAC }
  - { offsetInCU: 0x2C3FD, offset: 0x36A9F, size: 0x8, addend: 0x0, symName: __ZNSt3__18__invokeB7v160006IZN5Silly4joinEvEUlRKT_E0_JRKbEEEDTclclsr3stdE7declvalIS2_EEspclsr3stdE7declvalIT0_EEEEOS2_DpOS8_, symObjAddr: 0x11F144, symBinAddr: 0x100128460, symSize: 0x90 }
  - { offsetInCU: 0x2C44F, offset: 0x36AF1, size: 0x8, addend: 0x0, symName: __ZNSt3__18__invokeB7v160006INS_16__variant_detail12__visitation9__variant15__value_visitorIZN5Silly4joinEvEUlRKT_E0_EEJRKNS1_5__altILm3ENS_12basic_stringIcNS_11char_traitsIcEENS_9allocatorIcEEEEEEEEEDTclclsr3stdE7declvalIS6_EEspclsr3stdE7declvalIT0_EEEEOS6_DpOSL_, symObjAddr: 0x11F308, symBinAddr: 0x100128624, symSize: 0xC8 }
  - { offsetInCU: 0x2C4A1, offset: 0x36B43, size: 0x8, addend: 0x0, symName: __ZNSt3__18__invokeB7v160006IZN5Silly4joinEvEUlRKT_E0_JRKNS_12basic_stringIcNS_11char_traitsIcEENS_9allocatorIcEEEEEEEDTclclsr3stdE7declvalIS2_EEspclsr3stdE7declvalIT0_EEEEOS2_DpOSE_, symObjAddr: 0x11F554, symBinAddr: 0x100128870, symSize: 0xAC }
  - { offsetInCU: 0x2C4F3, offset: 0x36B95, size: 0x8, addend: 0x0, symName: __ZNSt3__1eqB7v160006ERKNS_19__hash_map_iteratorINS_15__hash_iteratorIPNS_11__hash_nodeINS_17__hash_value_typeINS_7variantIJidbNS_12basic_stringIcNS_11char_traitsIcEENS_9allocatorIcEEEEEEENS_6vectorIjNS8_IjEEEEEEPvEEEEEESM_, symObjAddr: 0x11F8DC, symBinAddr: 0x100128BF8, symSize: 0xC0 }
  - { offsetInCU: 0x2C531, offset: 0x36BD3, size: 0x8, addend: 0x0, symName: __ZNSt3__120__throw_out_of_rangeB7v160006EPKc, symObjAddr: 0x11F99C, symBinAddr: 0x100128CB8, symSize: 0xB4 }
  - { offsetInCU: 0x2C55B, offset: 0x36BFD, size: 0x8, addend: 0x0, symName: __ZNSt3__1eqB7v160006IPNS_4pairINS_12basic_stringIcNS_11char_traitsIcEENS_9allocatorIcEEEEjEEEEbRKNS_11__wrap_iterIT_EESE_, symObjAddr: 0x11FF98, symBinAddr: 0x1001292B4, symSize: 0x9C }
  - { offsetInCU: 0x2C5E4, offset: 0x36C86, size: 0x8, addend: 0x0, symName: __ZNSt3__18__invokeB7v160006INS_16__variant_detail12__visitation9__variant15__value_visitorIZN5Silly4joinEvEUlRKT_E1_EEJRKNS1_5__altILm0EiEEEEEDTclclsr3stdE7declvalIS6_EEspclsr3stdE7declvalIT0_EEEEOS6_DpOSF_, symObjAddr: 0x121168, symBinAddr: 0x10012A484, symSize: 0xC8 }
  - { offsetInCU: 0x2C636, offset: 0x36CD8, size: 0x8, addend: 0x0, symName: __ZNSt3__18__invokeB7v160006IZN5Silly4joinEvEUlRKT_E1_JRKiEEEDTclclsr3stdE7declvalIS2_EEspclsr3stdE7declvalIT0_EEEEOS2_DpOS8_, symObjAddr: 0x1213B4, symBinAddr: 0x10012A6D0, symSize: 0xAC }
  - { offsetInCU: 0x2C688, offset: 0x36D2A, size: 0x8, addend: 0x0, symName: __ZNSt3__18__invokeB7v160006INS_16__variant_detail12__visitation9__variant15__value_visitorIZN5Silly4joinEvEUlRKT_E1_EEJRKNS1_5__altILm1EdEEEEEDTclclsr3stdE7declvalIS6_EEspclsr3stdE7declvalIT0_EEEEOS6_DpOSF_, symObjAddr: 0x121500, symBinAddr: 0x10012A81C, symSize: 0xC8 }
  - { offsetInCU: 0x2C6DA, offset: 0x36D7C, size: 0x8, addend: 0x0, symName: __ZNSt3__18__invokeB7v160006IZN5Silly4joinEvEUlRKT_E1_JRKdEEEDTclclsr3stdE7declvalIS2_EEspclsr3stdE7declvalIT0_EEEEOS2_DpOS8_, symObjAddr: 0x12174C, symBinAddr: 0x10012AA68, symSize: 0xAC }
  - { offsetInCU: 0x2C72C, offset: 0x36DCE, size: 0x8, addend: 0x0, symName: __ZNSt3__18__invokeB7v160006INS_16__variant_detail12__visitation9__variant15__value_visitorIZN5Silly4joinEvEUlRKT_E1_EEJRKNS1_5__altILm2EbEEEEEDTclclsr3stdE7declvalIS6_EEspclsr3stdE7declvalIT0_EEEEOS6_DpOSF_, symObjAddr: 0x121AC4, symBinAddr: 0x10012ADE0, symSize: 0xAC }
  - { offsetInCU: 0x2C77E, offset: 0x36E20, size: 0x8, addend: 0x0, symName: __ZNSt3__18__invokeB7v160006IZN5Silly4joinEvEUlRKT_E1_JRKbEEEDTclclsr3stdE7declvalIS2_EEspclsr3stdE7declvalIT0_EEEEOS2_DpOS8_, symObjAddr: 0x121CBC, symBinAddr: 0x10012AFD8, symSize: 0x90 }
  - { offsetInCU: 0x2C7D0, offset: 0x36E72, size: 0x8, addend: 0x0, symName: __ZNSt3__18__invokeB7v160006INS_16__variant_detail12__visitation9__variant15__value_visitorIZN5Silly4joinEvEUlRKT_E1_EEJRKNS1_5__altILm3ENS_12basic_stringIcNS_11char_traitsIcEENS_9allocatorIcEEEEEEEEEDTclclsr3stdE7declvalIS6_EEspclsr3stdE7declvalIT0_EEEEOS6_DpOSL_, symObjAddr: 0x121E80, symBinAddr: 0x10012B19C, symSize: 0xC8 }
  - { offsetInCU: 0x2C822, offset: 0x36EC4, size: 0x8, addend: 0x0, symName: __ZNSt3__18__invokeB7v160006IZN5Silly4joinEvEUlRKT_E1_JRKNS_12basic_stringIcNS_11char_traitsIcEENS_9allocatorIcEEEEEEEDTclclsr3stdE7declvalIS2_EEspclsr3stdE7declvalIT0_EEEEOS2_DpOSE_, symObjAddr: 0x1220CC, symBinAddr: 0x10012B3E8, symSize: 0xAC }
  - { offsetInCU: 0x2C875, offset: 0x36F17, size: 0x8, addend: 0x0, symName: __ZNSt3__112__to_addressB7v160006INS_6vectorINS_12basic_stringIcNS_11char_traitsIcEENS_9allocatorIcEEEENS5_IS7_EEEEEEPT_SB_, symObjAddr: 0x12341C, symBinAddr: 0x10012C738, symSize: 0x14 }
  - { offsetInCU: 0x2C8A9, offset: 0x36F4B, size: 0x8, addend: 0x0, symName: __ZNSt3__122__make_exception_guardB7v160006INS_6vectorINS_12basic_stringIcNS_11char_traitsIcEENS_9allocatorIcEEEENS5_IS7_EEE16__destroy_vectorEEENS_28__exception_guard_exceptionsIT_EESC_, symObjAddr: 0x124AFC, symBinAddr: 0x10012DE18, symSize: 0x2BC }
  - { offsetInCU: 0x2C8E2, offset: 0x36F84, size: 0x8, addend: 0x0, symName: __ZNSt3__119__allocate_at_leastB7v160006INS_9allocatorINS_6vectorINS_12basic_stringIcNS_11char_traitsIcEENS1_IcEEEENS1_IS7_EEEEEEEENS_19__allocation_resultINS_16allocator_traitsIT_E7pointerEEERSD_m, symObjAddr: 0x127D5C, symBinAddr: 0x100131078, symSize: 0x28C }
  - { offsetInCU: 0x2C927, offset: 0x36FC9, size: 0x8, addend: 0x0, symName: __ZNSt3__142__uninitialized_allocator_move_if_noexceptB7v160006INS_9allocatorINS_6vectorINS_12basic_stringIcNS_11char_traitsIcEENS1_IcEEEENS1_IS7_EEEEEENS_16reverse_iteratorIPS9_EESD_SD_EET2_RT_T0_T1_SE_, symObjAddr: 0x128BB4, symBinAddr: 0x100131ED0, symSize: 0x5D8 }
  - { offsetInCU: 0x2C9DC, offset: 0x3707E, size: 0x8, addend: 0x0, symName: __ZNSt3__14swapB7v160006IPNS_6vectorINS_12basic_stringIcNS_11char_traitsIcEENS_9allocatorIcEEEENS5_IS7_EEEEEENS_9enable_ifIXaasr21is_move_constructibleIT_EE5valuesr18is_move_assignableISC_EE5valueEvE4typeERSC_SF_, symObjAddr: 0x1292BC, symBinAddr: 0x1001325D8, symSize: 0x1C0 }
  - { offsetInCU: 0x2CA2E, offset: 0x370D0, size: 0x8, addend: 0x0, symName: __ZNSt3__125__debug_db_invalidate_allB7v160006INS_6vectorINS1_INS_12basic_stringIcNS_11char_traitsIcEENS_9allocatorIcEEEENS5_IS7_EEEENS5_IS9_EEEEEEvPT_, symObjAddr: 0x1297F4, symBinAddr: 0x100132B10, symSize: 0x10 }
  - { offsetInCU: 0x2CA5E, offset: 0x37100, size: 0x8, addend: 0x0, symName: __ZNSt3__122__make_exception_guardB7v160006INS_29_AllocatorDestroyRangeReverseINS_9allocatorINS_6vectorINS_12basic_stringIcNS_11char_traitsIcEENS2_IcEEEENS2_IS8_EEEEEENS_16reverse_iteratorIPSA_EEEEEENS_28__exception_guard_exceptionsIT_EESH_, symObjAddr: 0x129804, symBinAddr: 0x100132B20, symSize: 0x23C }
  - { offsetInCU: 0x2CA95, offset: 0x37137, size: 0x8, addend: 0x0, symName: __ZNSt3__1neB7v160006IPNS_6vectorINS_12basic_stringIcNS_11char_traitsIcEENS_9allocatorIcEEEENS5_IS7_EEEESA_EEbRKNS_16reverse_iteratorIT_EERKNSB_IT0_EE, symObjAddr: 0x129AD0, symBinAddr: 0x100132DEC, symSize: 0x9C }
  - { offsetInCU: 0x2CAE1, offset: 0x37183, size: 0x8, addend: 0x0, symName: __ZNSt3__112__to_addressB7v160006INS_16reverse_iteratorIPNS_6vectorINS_12basic_stringIcNS_11char_traitsIcEENS_9allocatorIcEEEENS6_IS8_EEEEEEvEENS_5decayIDTclsr19__to_address_helperIT_EE6__callclsr3stdE7declvalIRKSE_EEEEE4typeESG_, symObjAddr: 0x129BF8, symBinAddr: 0x100132F14, symSize: 0x6C }
  - { offsetInCU: 0x2CB19, offset: 0x371BB, size: 0x8, addend: 0x0, symName: __ZNSt3__115__debug_db_swapB7v160006INS_6vectorINS_12basic_stringIcNS_11char_traitsIcEENS_9allocatorIcEEEENS5_IS7_EEEEEEvPT_SB_, symObjAddr: 0x12AD70, symBinAddr: 0x10013408C, symSize: 0x14 }
  - { offsetInCU: 0x2CB81, offset: 0x37223, size: 0x8, addend: 0x0, symName: __ZNSt3__119__allocator_destroyB7v160006INS_9allocatorINS_6vectorINS_12basic_stringIcNS_11char_traitsIcEENS1_IcEEEENS1_IS7_EEEEEENS_16reverse_iteratorINSB_IPS9_EEEESE_EEvRT_T0_T1_, symObjAddr: 0x12B3F4, symBinAddr: 0x100134710, symSize: 0x1A4 }
  - { offsetInCU: 0x2CBE7, offset: 0x37289, size: 0x8, addend: 0x0, symName: __ZNSt3__1neB7v160006INS_16reverse_iteratorIPNS_6vectorINS_12basic_stringIcNS_11char_traitsIcEENS_9allocatorIcEEEENS6_IS8_EEEEEESC_EEbRKNS1_IT_EERKNS1_IT0_EE, symObjAddr: 0x12B834, symBinAddr: 0x100134B50, symSize: 0x324 }
  - { offsetInCU: 0x2CC35, offset: 0x372D7, size: 0x8, addend: 0x0, symName: __ZNSt3__112__to_addressB7v160006INS_16reverse_iteratorINS1_IPNS_6vectorINS_12basic_stringIcNS_11char_traitsIcEENS_9allocatorIcEEEENS6_IS8_EEEEEEEEvEENS_5decayIDTclsr19__to_address_helperIT_EE6__callclsr3stdE7declvalIRKSF_EEEEE4typeESH_, symObjAddr: 0x12BB84, symBinAddr: 0x100134EA0, symSize: 0x6C }
  - { offsetInCU: 0x2CCDC, offset: 0x3737E, size: 0x8, addend: 0x0, symName: __ZNSt3__18__invokeB7v160006INS_16__variant_detail12__visitation9__variant15__value_visitorIZN5Silly4joinEvEUlRKT_E2_EEJRKNS1_5__altILm0EiEEEEEDTclclsr3stdE7declvalIS6_EEspclsr3stdE7declvalIT0_EEEEOS6_DpOSF_, symObjAddr: 0x12E148, symBinAddr: 0x100137464, symSize: 0xC8 }
  - { offsetInCU: 0x2CD2E, offset: 0x373D0, size: 0x8, addend: 0x0, symName: __ZNSt3__18__invokeB7v160006IZN5Silly4joinEvEUlRKT_E2_JRKiEEEDTclclsr3stdE7declvalIS2_EEspclsr3stdE7declvalIT0_EEEEOS2_DpOS8_, symObjAddr: 0x12E394, symBinAddr: 0x1001376B0, symSize: 0xAC }
  - { offsetInCU: 0x2CD80, offset: 0x37422, size: 0x8, addend: 0x0, symName: __ZNSt3__18__invokeB7v160006INS_16__variant_detail12__visitation9__variant15__value_visitorIZN5Silly4joinEvEUlRKT_E2_EEJRKNS1_5__altILm1EdEEEEEDTclclsr3stdE7declvalIS6_EEspclsr3stdE7declvalIT0_EEEEOS6_DpOSF_, symObjAddr: 0x12E4E0, symBinAddr: 0x1001377FC, symSize: 0xC8 }
  - { offsetInCU: 0x2CDD2, offset: 0x37474, size: 0x8, addend: 0x0, symName: __ZNSt3__18__invokeB7v160006IZN5Silly4joinEvEUlRKT_E2_JRKdEEEDTclclsr3stdE7declvalIS2_EEspclsr3stdE7declvalIT0_EEEEOS2_DpOS8_, symObjAddr: 0x12E72C, symBinAddr: 0x100137A48, symSize: 0xAC }
  - { offsetInCU: 0x2CE24, offset: 0x374C6, size: 0x8, addend: 0x0, symName: __ZNSt3__18__invokeB7v160006INS_16__variant_detail12__visitation9__variant15__value_visitorIZN5Silly4joinEvEUlRKT_E2_EEJRKNS1_5__altILm2EbEEEEEDTclclsr3stdE7declvalIS6_EEspclsr3stdE7declvalIT0_EEEEOS6_DpOSF_, symObjAddr: 0x12EAA4, symBinAddr: 0x100137DC0, symSize: 0xAC }
  - { offsetInCU: 0x2CE76, offset: 0x37518, size: 0x8, addend: 0x0, symName: __ZNSt3__18__invokeB7v160006IZN5Silly4joinEvEUlRKT_E2_JRKbEEEDTclclsr3stdE7declvalIS2_EEspclsr3stdE7declvalIT0_EEEEOS2_DpOS8_, symObjAddr: 0x12EC9C, symBinAddr: 0x100137FB8, symSize: 0x90 }
  - { offsetInCU: 0x2CEC8, offset: 0x3756A, size: 0x8, addend: 0x0, symName: __ZNSt3__18__invokeB7v160006INS_16__variant_detail12__visitation9__variant15__value_visitorIZN5Silly4joinEvEUlRKT_E2_EEJRKNS1_5__altILm3ENS_12basic_stringIcNS_11char_traitsIcEENS_9allocatorIcEEEEEEEEEDTclclsr3stdE7declvalIS6_EEspclsr3stdE7declvalIT0_EEEEOS6_DpOSL_, symObjAddr: 0x12EE60, symBinAddr: 0x10013817C, symSize: 0xC8 }
  - { offsetInCU: 0x2CF1A, offset: 0x375BC, size: 0x8, addend: 0x0, symName: __ZNSt3__18__invokeB7v160006IZN5Silly4joinEvEUlRKT_E2_JRKNS_12basic_stringIcNS_11char_traitsIcEENS_9allocatorIcEEEEEEEDTclclsr3stdE7declvalIS2_EEspclsr3stdE7declvalIT0_EEEEOS2_DpOSE_, symObjAddr: 0x12F0AC, symBinAddr: 0x1001383C8, symSize: 0xAC }
  - { offsetInCU: 0x2CFB2, offset: 0x37654, size: 0x8, addend: 0x0, symName: __ZNSt3__18__invokeB7v160006INS_16__variant_detail12__visitation9__variant15__value_visitorIZN5Silly4joinEvEUlRKT_E3_EEJRKNS1_5__altILm0EiEEEEEDTclclsr3stdE7declvalIS6_EEspclsr3stdE7declvalIT0_EEEEOS6_DpOSF_, symObjAddr: 0x1303E8, symBinAddr: 0x100139704, symSize: 0xC8 }
  - { offsetInCU: 0x2D004, offset: 0x376A6, size: 0x8, addend: 0x0, symName: __ZNSt3__18__invokeB7v160006IZN5Silly4joinEvEUlRKT_E3_JRKiEEEDTclclsr3stdE7declvalIS2_EEspclsr3stdE7declvalIT0_EEEEOS2_DpOS8_, symObjAddr: 0x130634, symBinAddr: 0x100139950, symSize: 0xAC }
  - { offsetInCU: 0x2D056, offset: 0x376F8, size: 0x8, addend: 0x0, symName: __ZNSt3__18__invokeB7v160006INS_16__variant_detail12__visitation9__variant15__value_visitorIZN5Silly4joinEvEUlRKT_E3_EEJRKNS1_5__altILm1EdEEEEEDTclclsr3stdE7declvalIS6_EEspclsr3stdE7declvalIT0_EEEEOS6_DpOSF_, symObjAddr: 0x130780, symBinAddr: 0x100139A9C, symSize: 0xC8 }
  - { offsetInCU: 0x2D0A8, offset: 0x3774A, size: 0x8, addend: 0x0, symName: __ZNSt3__18__invokeB7v160006IZN5Silly4joinEvEUlRKT_E3_JRKdEEEDTclclsr3stdE7declvalIS2_EEspclsr3stdE7declvalIT0_EEEEOS2_DpOS8_, symObjAddr: 0x1309CC, symBinAddr: 0x100139CE8, symSize: 0xAC }
  - { offsetInCU: 0x2D0FA, offset: 0x3779C, size: 0x8, addend: 0x0, symName: __ZNSt3__18__invokeB7v160006INS_16__variant_detail12__visitation9__variant15__value_visitorIZN5Silly4joinEvEUlRKT_E3_EEJRKNS1_5__altILm2EbEEEEEDTclclsr3stdE7declvalIS6_EEspclsr3stdE7declvalIT0_EEEEOS6_DpOSF_, symObjAddr: 0x130D44, symBinAddr: 0x10013A060, symSize: 0xAC }
  - { offsetInCU: 0x2D14C, offset: 0x377EE, size: 0x8, addend: 0x0, symName: __ZNSt3__18__invokeB7v160006IZN5Silly4joinEvEUlRKT_E3_JRKbEEEDTclclsr3stdE7declvalIS2_EEspclsr3stdE7declvalIT0_EEEEOS2_DpOS8_, symObjAddr: 0x130F3C, symBinAddr: 0x10013A258, symSize: 0x90 }
  - { offsetInCU: 0x2D19E, offset: 0x37840, size: 0x8, addend: 0x0, symName: __ZNSt3__18__invokeB7v160006INS_16__variant_detail12__visitation9__variant15__value_visitorIZN5Silly4joinEvEUlRKT_E3_EEJRKNS1_5__altILm3ENS_12basic_stringIcNS_11char_traitsIcEENS_9allocatorIcEEEEEEEEEDTclclsr3stdE7declvalIS6_EEspclsr3stdE7declvalIT0_EEEEOS6_DpOSL_, symObjAddr: 0x131100, symBinAddr: 0x10013A41C, symSize: 0xC8 }
  - { offsetInCU: 0x2D1F0, offset: 0x37892, size: 0x8, addend: 0x0, symName: __ZNSt3__18__invokeB7v160006IZN5Silly4joinEvEUlRKT_E3_JRKNS_12basic_stringIcNS_11char_traitsIcEENS_9allocatorIcEEEEEEEDTclclsr3stdE7declvalIS2_EEspclsr3stdE7declvalIT0_EEEEOS2_DpOSE_, symObjAddr: 0x13134C, symBinAddr: 0x10013A668, symSize: 0xAC }
  - { offsetInCU: 0x2D242, offset: 0x378E4, size: 0x8, addend: 0x0, symName: __ZNSt3__1eqB7v160006IPNS_6vectorINS_12basic_stringIcNS_11char_traitsIcEENS_9allocatorIcEEEENS5_IS7_EEEEEEbRKNS_11__wrap_iterIT_EESF_, symObjAddr: 0x131A74, symBinAddr: 0x10013AD90, symSize: 0x9C }
  - { offsetInCU: 0x2D286, offset: 0x37928, size: 0x8, addend: 0x0, symName: __ZNSt3__118__debug_db_erase_cB7v160006INS_6vectorINS1_INS_12basic_stringIcNS_11char_traitsIcEENS_9allocatorIcEEEENS5_IS7_EEEENS5_IS9_EEEEEEvPT_, symObjAddr: 0x132454, symBinAddr: 0x10013B770, symSize: 0x10 }
  - { offsetInCU: 0x2D2B7, offset: 0x37959, size: 0x8, addend: 0x0, symName: __ZNSt3__118__debug_db_erase_cB7v160006INS_6vectorINS_4pairINS_12basic_stringIcNS_11char_traitsIcEENS_9allocatorIcEEEEjEENS6_IS9_EEEEEEvPT_, symObjAddr: 0x132FA8, symBinAddr: 0x10013C2C4, symSize: 0x10 }
  - { offsetInCU: 0x2D2E8, offset: 0x3798A, size: 0x8, addend: 0x0, symName: __ZNSt3__118__debug_db_erase_cB7v160006INS_12__hash_tableINS_17__hash_value_typeINS_12basic_stringIcNS_11char_traitsIcEENS_9allocatorIcEEEE5TableEENS_22__unordered_map_hasherIS8_SA_NS_4hashIS8_EENS_8equal_toIS8_EELb1EEENS_21__unordered_map_equalIS8_SA_SF_SD_Lb1EEENS6_ISA_EEEEEEvPT_, symObjAddr: 0x133B24, symBinAddr: 0x10013CE40, symSize: 0x10 }
  - { offsetInCU: 0x2DB18, offset: 0x381BA, size: 0x8, addend: 0x0, symName: __ZSt28__throw_bad_array_new_lengthB7v160006v, symObjAddr: 0x2EFC8, symBinAddr: 0x10003F530, symSize: 0x7C }
  - { offsetInCU: 0x2DBE5, offset: 0x38287, size: 0x8, addend: 0x0, symName: _.str.69, symObjAddr: 0x1A7AE0, symBinAddr: 0x1001745C0, symSize: 0x0 }
  - { offsetInCU: 0x2DBF6, offset: 0x38298, size: 0x8, addend: 0x0, symName: _.str.70, symObjAddr: 0x1A7B00, symBinAddr: 0x1001745E0, symSize: 0x0 }
  - { offsetInCU: 0x2DC13, offset: 0x382B5, size: 0x8, addend: 0x0, symName: _.str.71, symObjAddr: 0x1A7B20, symBinAddr: 0x100174600, symSize: 0x0 }
  - { offsetInCU: 0x2DC30, offset: 0x382D2, size: 0x8, addend: 0x0, symName: _.str.72, symObjAddr: 0x1A7B60, symBinAddr: 0x100174640, symSize: 0x0 }
  - { offsetInCU: 0x2DC4D, offset: 0x382EF, size: 0x8, addend: 0x0, symName: _.str.73, symObjAddr: 0x1A7BC0, symBinAddr: 0x1001746A0, symSize: 0x0 }
  - { offsetInCU: 0x2DC5E, offset: 0x38300, size: 0x8, addend: 0x0, symName: _.str.74, symObjAddr: 0x1A7C00, symBinAddr: 0x1001746E0, symSize: 0x0 }
  - { offsetInCU: 0x2DC6F, offset: 0x38311, size: 0x8, addend: 0x0, symName: _.str.75, symObjAddr: 0x1A7C20, symBinAddr: 0x100174700, symSize: 0x0 }
  - { offsetInCU: 0x2DC80, offset: 0x38322, size: 0x8, addend: 0x0, symName: _.str.76, symObjAddr: 0x1A7C40, symBinAddr: 0x100174720, symSize: 0x0 }
  - { offsetInCU: 0x2DC9D, offset: 0x3833F, size: 0x8, addend: 0x0, symName: _.str.77, symObjAddr: 0x1A7C60, symBinAddr: 0x100174740, symSize: 0x0 }
  - { offsetInCU: 0x2DCAE, offset: 0x38350, size: 0x8, addend: 0x0, symName: _.str.78, symObjAddr: 0x1A7C80, symBinAddr: 0x100174760, symSize: 0x0 }
  - { offsetInCU: 0x2DCC0, offset: 0x38362, size: 0x8, addend: 0x0, symName: _.str.79, symObjAddr: 0x1A7CA0, symBinAddr: 0x100174780, symSize: 0x0 }
  - { offsetInCU: 0x2DCD3, offset: 0x38375, size: 0x8, addend: 0x0, symName: _.str.80, symObjAddr: 0x1A7CC0, symBinAddr: 0x1001747A0, symSize: 0x0 }
  - { offsetInCU: 0x2DCE5, offset: 0x38387, size: 0x8, addend: 0x0, symName: _.str.82, symObjAddr: 0x1A7CE0, symBinAddr: 0x1001747C0, symSize: 0x0 }
  - { offsetInCU: 0x2DD03, offset: 0x383A5, size: 0x8, addend: 0x0, symName: _.str.83, symObjAddr: 0x1A7D20, symBinAddr: 0x100174800, symSize: 0x0 }
  - { offsetInCU: 0x2DD16, offset: 0x383B8, size: 0x8, addend: 0x0, symName: _.str.84, symObjAddr: 0x1A7D60, symBinAddr: 0x100174840, symSize: 0x0 }
  - { offsetInCU: 0x2DD29, offset: 0x383CB, size: 0x8, addend: 0x0, symName: _.str.85, symObjAddr: 0x1A7D80, symBinAddr: 0x100174860, symSize: 0x0 }
  - { offsetInCU: 0x2DD3C, offset: 0x383DE, size: 0x8, addend: 0x0, symName: _.str.86, symObjAddr: 0x1A7DA0, symBinAddr: 0x100174880, symSize: 0x0 }
  - { offsetInCU: 0x2DD4F, offset: 0x383F1, size: 0x8, addend: 0x0, symName: _.str.87, symObjAddr: 0x1A7DC0, symBinAddr: 0x1001748A0, symSize: 0x0 }
  - { offsetInCU: 0x2DD62, offset: 0x38404, size: 0x8, addend: 0x0, symName: _.str.88, symObjAddr: 0x1A7DE0, symBinAddr: 0x1001748C0, symSize: 0x0 }
  - { offsetInCU: 0x2DD75, offset: 0x38417, size: 0x8, addend: 0x0, symName: _.str.89, symObjAddr: 0x1A7E00, symBinAddr: 0x1001748E0, symSize: 0x0 }
  - { offsetInCU: 0x2DD88, offset: 0x3842A, size: 0x8, addend: 0x0, symName: _.str.90, symObjAddr: 0x1A7E20, symBinAddr: 0x100174900, symSize: 0x0 }
  - { offsetInCU: 0x2DD9B, offset: 0x3843D, size: 0x8, addend: 0x0, symName: _.str.91, symObjAddr: 0x1A7E40, symBinAddr: 0x100174920, symSize: 0x0 }
  - { offsetInCU: 0x2DDAE, offset: 0x38450, size: 0x8, addend: 0x0, symName: _.str.95, symObjAddr: 0x1A7E80, symBinAddr: 0x100174960, symSize: 0x0 }
  - { offsetInCU: 0x2DDC1, offset: 0x38463, size: 0x8, addend: 0x0, symName: _.str.96, symObjAddr: 0x1A7EC0, symBinAddr: 0x1001749A0, symSize: 0x0 }
  - { offsetInCU: 0x2DDD4, offset: 0x38476, size: 0x8, addend: 0x0, symName: _.str.97, symObjAddr: 0x1A7EE0, symBinAddr: 0x1001749C0, symSize: 0x0 }
  - { offsetInCU: 0x2DDF3, offset: 0x38495, size: 0x8, addend: 0x0, symName: _.str.105, symObjAddr: 0x1A7F00, symBinAddr: 0x1001749E0, symSize: 0x0 }
  - { offsetInCU: 0x2DE12, offset: 0x384B4, size: 0x8, addend: 0x0, symName: _.str.106, symObjAddr: 0x1A7F40, symBinAddr: 0x100174A20, symSize: 0x0 }
  - { offsetInCU: 0x2DE25, offset: 0x384C7, size: 0x8, addend: 0x0, symName: _.str.108, symObjAddr: 0x1A7F80, symBinAddr: 0x100174A60, symSize: 0x0 }
  - { offsetInCU: 0x2DE38, offset: 0x384DA, size: 0x8, addend: 0x0, symName: _.str.109, symObjAddr: 0x1A7FA0, symBinAddr: 0x100174A80, symSize: 0x0 }
  - { offsetInCU: 0x2DE57, offset: 0x384F9, size: 0x8, addend: 0x0, symName: _.str.110, symObjAddr: 0x1A8000, symBinAddr: 0x100174AE0, symSize: 0x0 }
  - { offsetInCU: 0x2DE6A, offset: 0x3850C, size: 0x8, addend: 0x0, symName: _.str.111, symObjAddr: 0x1A8040, symBinAddr: 0x100174B20, symSize: 0x0 }
  - { offsetInCU: 0x2DE7D, offset: 0x3851F, size: 0x8, addend: 0x0, symName: _.str.112, symObjAddr: 0x1A8060, symBinAddr: 0x100174B40, symSize: 0x0 }
  - { offsetInCU: 0x2DE9C, offset: 0x3853E, size: 0x8, addend: 0x0, symName: _.str.113, symObjAddr: 0x1A80A0, symBinAddr: 0x100174B80, symSize: 0x0 }
  - { offsetInCU: 0x2DEAF, offset: 0x38551, size: 0x8, addend: 0x0, symName: _.str.114, symObjAddr: 0x1A80C0, symBinAddr: 0x100174BA0, symSize: 0x0 }
  - { offsetInCU: 0x2DEC2, offset: 0x38564, size: 0x8, addend: 0x0, symName: _.str.115, symObjAddr: 0x1A80E0, symBinAddr: 0x100174BC0, symSize: 0x0 }
  - { offsetInCU: 0x2EA50, offset: 0x390F2, size: 0x8, addend: 0x0, symName: __ZNSt3__16vectorINS_12basic_stringIcNS_11char_traitsIcEENS_9allocatorIcEEEENS4_IS6_EEE26__swap_out_circular_bufferERNS_14__split_bufferIS6_RS7_EE, symObjAddr: 0x2AB00, symBinAddr: 0x10003B518, symSize: 0x864 }
  - { offsetInCU: 0x2EC60, offset: 0x39302, size: 0x8, addend: 0x0, symName: __ZNSt3__16vectorI10ColumnTypeNS_9allocatorIS1_EEE26__swap_out_circular_bufferERNS_14__split_bufferIS1_RS3_EE, symObjAddr: 0x35854, symBinAddr: 0x100045C34, symSize: 0x864 }
  - { offsetInCU: 0x2FB39, offset: 0x3A1DB, size: 0x8, addend: 0x0, symName: __ZNSt3__16vectorINS0_INS_7variantIJidbNS_12basic_stringIcNS_11char_traitsIcEENS_9allocatorIcEEEEEEENS5_IS8_EEEENS5_ISA_EEE26__swap_out_circular_bufferERNS_14__split_bufferISA_RSB_EE, symObjAddr: 0xB1780, symBinAddr: 0x1000BAF20, symSize: 0x864 }
  - { offsetInCU: 0x2FBB9, offset: 0x3A25B, size: 0x8, addend: 0x0, symName: __ZNSt3__16vectorINS_7variantIJidbNS_12basic_stringIcNS_11char_traitsIcEENS_9allocatorIcEEEEEEENS5_IS8_EEE26__swap_out_circular_bufferERNS_14__split_bufferIS8_RS9_EE, symObjAddr: 0xB8C2C, symBinAddr: 0x1000C23CC, symSize: 0x864 }
  - { offsetInCU: 0x2FC8E, offset: 0x3A330, size: 0x8, addend: 0x0, symName: __ZNSt3__16vectorIjNS_9allocatorIjEEE26__swap_out_circular_bufferERNS_14__split_bufferIjRS2_EE, symObjAddr: 0xCF280, symBinAddr: 0x1000D8A20, symSize: 0x864 }
  - { offsetInCU: 0x2FCD2, offset: 0x3A374, size: 0x8, addend: 0x0, symName: __ZNSt3__16vectorIjNS_9allocatorIjEEE26__swap_out_circular_bufferERNS_14__split_bufferIjRS2_EEPj, symObjAddr: 0xE7304, symBinAddr: 0x1000F0AA4, symSize: 0xA20 }
  - { offsetInCU: 0x2FF44, offset: 0x3A5E6, size: 0x8, addend: 0x0, symName: __ZN5Silly5printEv, symObjAddr: 0xF120, symBinAddr: 0x100020104, symSize: 0x5148 }
  - { offsetInCU: 0x30495, offset: 0x3AB37, size: 0x8, addend: 0x0, symName: __ZNSt3__16vectorINS_4pairINS_12basic_stringIcNS_11char_traitsIcEENS_9allocatorIcEEEEjEENS5_IS8_EEE26__swap_out_circular_bufferERNS_14__split_bufferIS8_RS9_EE, symObjAddr: 0x10FF50, symBinAddr: 0x10011956C, symSize: 0x864 }
  - { offsetInCU: 0x30529, offset: 0x3ABCB, size: 0x8, addend: 0x0, symName: __ZN5Silly4joinEv, symObjAddr: 0x183EC, symBinAddr: 0x1000293D0, symSize: 0x6404 }
  - { offsetInCU: 0x30FEC, offset: 0x3B68E, size: 0x8, addend: 0x0, symName: __ZNSt3__16vectorINS0_INS_12basic_stringIcNS_11char_traitsIcEENS_9allocatorIcEEEENS4_IS6_EEEENS4_IS8_EEE26__swap_out_circular_bufferERNS_14__split_bufferIS8_RS9_EE, symObjAddr: 0x126504, symBinAddr: 0x10012F820, symSize: 0x864 }
  - { offsetInCU: 0x32DF3, offset: 0x3D495, size: 0x8, addend: 0x0, symName: _main, symObjAddr: 0x0, symBinAddr: 0x100015BC4, symSize: 0x480 }
  - { offsetInCU: 0x32EA7, offset: 0x3D549, size: 0x8, addend: 0x0, symName: __ZNSt3__113basic_istreamIcNS_11char_traitsIcEEErsB7v160006EPFRNS_8ios_baseES5_E, symObjAddr: 0x480, symBinAddr: 0x100016044, symSize: 0x248 }
  - { offsetInCU: 0x32EDA, offset: 0x3D57C, size: 0x8, addend: 0x0, symName: __ZNSt3__113basic_ostreamIcNS_11char_traitsIcEEElsB7v160006EPFRNS_8ios_baseES5_E, symObjAddr: 0x7F4, symBinAddr: 0x1000163B8, symSize: 0x248 }
  - { offsetInCU: 0x32F0D, offset: 0x3D5AF, size: 0x8, addend: 0x0, symName: __ZN5SillyC1Ev, symObjAddr: 0xA3C, symBinAddr: 0x100016600, symSize: 0x78 }
  - { offsetInCU: 0x32F38, offset: 0x3D5DA, size: 0x8, addend: 0x0, symName: __ZN5Silly7getModeEiPPc, symObjAddr: 0xAB4, symBinAddr: 0x100016678, symSize: 0x630 }
  - { offsetInCU: 0x32FAF, offset: 0x3D651, size: 0x8, addend: 0x0, symName: __ZN5Silly6readInEv, symObjAddr: 0x10E4, symBinAddr: 0x100016CA8, symSize: 0xB7C }
  - { offsetInCU: 0x32FD4, offset: 0x3D676, size: 0x8, addend: 0x0, symName: __ZN5SillyD1Ev, symObjAddr: 0x1C60, symBinAddr: 0x100017824, symSize: 0x78 }
  - { offsetInCU: 0x32FFF, offset: 0x3D6A1, size: 0x8, addend: 0x0, symName: __ZNSt3__18ios_base4setfB7v160006Ej, symObjAddr: 0x1CD8, symBinAddr: 0x10001789C, symSize: 0x250 }
  - { offsetInCU: 0x33044, offset: 0x3D6E6, size: 0x8, addend: 0x0, symName: __ZN5SillyC2Ev, symObjAddr: 0x1F28, symBinAddr: 0x100017AEC, symSize: 0xFC }
  - { offsetInCU: 0x3306F, offset: 0x3D711, size: 0x8, addend: 0x0, symName: __ZNSt3__112basic_stringIcNS_11char_traitsIcEENS_9allocatorIcEEEC1B7v160006Ev, symObjAddr: 0x2024, symBinAddr: 0x100017BE8, symSize: 0x78 }
  - { offsetInCU: 0x33097, offset: 0x3D739, size: 0x8, addend: 0x0, symName: __ZNSt3__113unordered_mapINS_12basic_stringIcNS_11char_traitsIcEENS_9allocatorIcEEEE5TableNS_4hashIS6_EENS_8equal_toIS6_EENS4_INS_4pairIKS6_S7_EEEEEC1B7v160006Ev, symObjAddr: 0x209C, symBinAddr: 0x100017C60, symSize: 0x78 }
  - { offsetInCU: 0x330BF, offset: 0x3D761, size: 0x8, addend: 0x0, symName: __ZNSt3__112basic_stringIcNS_11char_traitsIcEENS_9allocatorIcEEEC2B7v160006Ev, symObjAddr: 0x2114, symBinAddr: 0x100017CD8, symSize: 0x280 }
  - { offsetInCU: 0x330ED, offset: 0x3D78F, size: 0x8, addend: 0x0, symName: __ZNSt3__113unordered_mapINS_12basic_stringIcNS_11char_traitsIcEENS_9allocatorIcEEEE5TableNS_4hashIS6_EENS_8equal_toIS6_EENS4_INS_4pairIKS6_S7_EEEEEC2B7v160006Ev, symObjAddr: 0x2B78, symBinAddr: 0x100017F58, symSize: 0x94 }
  - { offsetInCU: 0x33115, offset: 0x3D7B7, size: 0x8, addend: 0x0, symName: __ZNSt3__112__hash_tableINS_17__hash_value_typeINS_12basic_stringIcNS_11char_traitsIcEENS_9allocatorIcEEEE5TableEENS_22__unordered_map_hasherIS7_S9_NS_4hashIS7_EENS_8equal_toIS7_EELb1EEENS_21__unordered_map_equalIS7_S9_SE_SC_Lb1EEENS5_IS9_EEEC1Ev, symObjAddr: 0x2C0C, symBinAddr: 0x100017FEC, symSize: 0x78 }
  - { offsetInCU: 0x33140, offset: 0x3D7E2, size: 0x8, addend: 0x0, symName: __ZNSt3__112__hash_tableINS_17__hash_value_typeINS_12basic_stringIcNS_11char_traitsIcEENS_9allocatorIcEEEE5TableEENS_22__unordered_map_hasherIS7_S9_NS_4hashIS7_EENS_8equal_toIS7_EELb1EEENS_21__unordered_map_equalIS7_S9_SE_SC_Lb1EEENS5_IS9_EEEC2Ev, symObjAddr: 0x2C94, symBinAddr: 0x100018074, symSize: 0x3E0 }
  - { offsetInCU: 0x3316C, offset: 0x3D80E, size: 0x8, addend: 0x0, symName: __ZNSt3__110unique_ptrIA_PNS_16__hash_node_baseIPNS_11__hash_nodeINS_17__hash_value_typeINS_12basic_stringIcNS_11char_traitsIcEENS_9allocatorIcEEEE5TableEEPvEEEENS_25__bucket_list_deallocatorINS7_ISG_EEEEEC1B7v160006ILb1EvEEv, symObjAddr: 0x3074, symBinAddr: 0x100018454, symSize: 0x78 }
  - { offsetInCU: 0x331A0, offset: 0x3D842, size: 0x8, addend: 0x0, symName: __ZNSt3__117__compressed_pairINS_16__hash_node_baseIPNS_11__hash_nodeINS_17__hash_value_typeINS_12basic_stringIcNS_11char_traitsIcEENS_9allocatorIcEEEE5TableEEPvEEEENS7_ISD_EEEC1B7v160006ILb1EvEEv, symObjAddr: 0x30EC, symBinAddr: 0x1000184CC, symSize: 0x78 }
  - { offsetInCU: 0x331D9, offset: 0x3D87B, size: 0x8, addend: 0x0, symName: __ZNSt3__117__compressed_pairImNS_22__unordered_map_hasherINS_12basic_stringIcNS_11char_traitsIcEENS_9allocatorIcEEEENS_17__hash_value_typeIS7_5TableEENS_4hashIS7_EENS_8equal_toIS7_EELb1EEEEC1B7v160006IiNS_18__default_init_tagEEEOT_OT0_, symObjAddr: 0x3164, symBinAddr: 0x100018544, symSize: 0x88 }
  - { offsetInCU: 0x33234, offset: 0x3D8D6, size: 0x8, addend: 0x0, symName: __ZNSt3__117__compressed_pairIfNS_21__unordered_map_equalINS_12basic_stringIcNS_11char_traitsIcEENS_9allocatorIcEEEENS_17__hash_value_typeIS7_5TableEENS_8equal_toIS7_EENS_4hashIS7_EELb1EEEEC1B7v160006IfNS_18__default_init_tagEEEOT_OT0_, symObjAddr: 0x31EC, symBinAddr: 0x1000185CC, symSize: 0x88 }
  - { offsetInCU: 0x3328A, offset: 0x3D92C, size: 0x8, addend: 0x0, symName: __ZNSt3__110unique_ptrIA_PNS_16__hash_node_baseIPNS_11__hash_nodeINS_17__hash_value_typeINS_12basic_stringIcNS_11char_traitsIcEENS_9allocatorIcEEEE5TableEEPvEEEENS_25__bucket_list_deallocatorINS7_ISG_EEEEEC2B7v160006ILb1EvEEv, symObjAddr: 0x3274, symBinAddr: 0x100018654, symSize: 0x268 }
  - { offsetInCU: 0x332C4, offset: 0x3D966, size: 0x8, addend: 0x0, symName: __ZNSt3__117__compressed_pairIPPNS_16__hash_node_baseIPNS_11__hash_nodeINS_17__hash_value_typeINS_12basic_stringIcNS_11char_traitsIcEENS_9allocatorIcEEEE5TableEEPvEEEENS_25__bucket_list_deallocatorINS7_ISG_EEEEEC1B7v160006INS_16__value_init_tagESN_EEOT_OT0_, symObjAddr: 0x34DC, symBinAddr: 0x1000188BC, symSize: 0x88 }
  - { offsetInCU: 0x3331A, offset: 0x3D9BC, size: 0x8, addend: 0x0, symName: __ZNSt3__117__compressed_pairIPPNS_16__hash_node_baseIPNS_11__hash_nodeINS_17__hash_value_typeINS_12basic_stringIcNS_11char_traitsIcEENS_9allocatorIcEEEE5TableEEPvEEEENS_25__bucket_list_deallocatorINS7_ISG_EEEEEC2B7v160006INS_16__value_init_tagESN_EEOT_OT0_, symObjAddr: 0x3564, symBinAddr: 0x100018944, symSize: 0x118 }
  - { offsetInCU: 0x33370, offset: 0x3DA12, size: 0x8, addend: 0x0, symName: __ZNSt3__122__compressed_pair_elemIPPNS_16__hash_node_baseIPNS_11__hash_nodeINS_17__hash_value_typeINS_12basic_stringIcNS_11char_traitsIcEENS_9allocatorIcEEEE5TableEEPvEEEELi0ELb0EEC2B7v160006ENS_16__value_init_tagE, symObjAddr: 0x367C, symBinAddr: 0x100018A5C, symSize: 0xB8 }
  - { offsetInCU: 0x333A3, offset: 0x3DA45, size: 0x8, addend: 0x0, symName: __ZNSt3__122__compressed_pair_elemINS_25__bucket_list_deallocatorINS_9allocatorIPNS_16__hash_node_baseIPNS_11__hash_nodeINS_17__hash_value_typeINS_12basic_stringIcNS_11char_traitsIcEENS2_IcEEEE5TableEEPvEEEEEEEELi1ELb0EEC2B7v160006ENS_16__value_init_tagE, symObjAddr: 0x3734, symBinAddr: 0x100018B14, symSize: 0x78 }
  - { offsetInCU: 0x333D6, offset: 0x3DA78, size: 0x8, addend: 0x0, symName: __ZNSt3__125__bucket_list_deallocatorINS_9allocatorIPNS_16__hash_node_baseIPNS_11__hash_nodeINS_17__hash_value_typeINS_12basic_stringIcNS_11char_traitsIcEENS1_IcEEEE5TableEEPvEEEEEEEC1B7v160006Ev, symObjAddr: 0x37AC, symBinAddr: 0x100018B8C, symSize: 0x78 }
  - { offsetInCU: 0x333FE, offset: 0x3DAA0, size: 0x8, addend: 0x0, symName: __ZNSt3__125__bucket_list_deallocatorINS_9allocatorIPNS_16__hash_node_baseIPNS_11__hash_nodeINS_17__hash_value_typeINS_12basic_stringIcNS_11char_traitsIcEENS1_IcEEEE5TableEEPvEEEEEEEC2B7v160006Ev, symObjAddr: 0x3824, symBinAddr: 0x100018C04, symSize: 0x2CC }
  - { offsetInCU: 0x33427, offset: 0x3DAC9, size: 0x8, addend: 0x0, symName: __ZNSt3__117__compressed_pairImNS_9allocatorIPNS_16__hash_node_baseIPNS_11__hash_nodeINS_17__hash_value_typeINS_12basic_stringIcNS_11char_traitsIcEENS1_IcEEEE5TableEEPvEEEEEEEC1B7v160006IiNS_18__default_init_tagEEEOT_OT0_, symObjAddr: 0x3AF0, symBinAddr: 0x100018ED0, symSize: 0x88 }
  - { offsetInCU: 0x3347D, offset: 0x3DB1F, size: 0x8, addend: 0x0, symName: __ZNSt3__117__compressed_pairImNS_9allocatorIPNS_16__hash_node_baseIPNS_11__hash_nodeINS_17__hash_value_typeINS_12basic_stringIcNS_11char_traitsIcEENS1_IcEEEE5TableEEPvEEEEEEEC2B7v160006IiNS_18__default_init_tagEEEOT_OT0_, symObjAddr: 0x3B78, symBinAddr: 0x100018F58, symSize: 0x140 }
  - { offsetInCU: 0x334D3, offset: 0x3DB75, size: 0x8, addend: 0x0, symName: __ZNSt3__122__compressed_pair_elemImLi0ELb0EEC2B7v160006IivEEOT_, symObjAddr: 0x3CB8, symBinAddr: 0x100019098, symSize: 0x16C }
  - { offsetInCU: 0x33514, offset: 0x3DBB6, size: 0x8, addend: 0x0, symName: __ZNSt3__122__compressed_pair_elemINS_9allocatorIPNS_16__hash_node_baseIPNS_11__hash_nodeINS_17__hash_value_typeINS_12basic_stringIcNS_11char_traitsIcEENS1_IcEEEE5TableEEPvEEEEEELi1ELb1EEC2B7v160006ENS_18__default_init_tagE, symObjAddr: 0x3E24, symBinAddr: 0x100019204, symSize: 0x84 }
  - { offsetInCU: 0x33547, offset: 0x3DBE9, size: 0x8, addend: 0x0, symName: __ZNSt3__19allocatorIPNS_16__hash_node_baseIPNS_11__hash_nodeINS_17__hash_value_typeINS_12basic_stringIcNS_11char_traitsIcEENS0_IcEEEE5TableEEPvEEEEEC2B7v160006Ev, symObjAddr: 0x3EA8, symBinAddr: 0x100019288, symSize: 0x84 }
  - { offsetInCU: 0x3356F, offset: 0x3DC11, size: 0x8, addend: 0x0, symName: __ZNSt3__116__non_trivial_ifILb1ENS_9allocatorIPNS_16__hash_node_baseIPNS_11__hash_nodeINS_17__hash_value_typeINS_12basic_stringIcNS_11char_traitsIcEENS1_IcEEEE5TableEEPvEEEEEEEC2B7v160006Ev, symObjAddr: 0x3F2C, symBinAddr: 0x10001930C, symSize: 0x54 }
  - { offsetInCU: 0x33597, offset: 0x3DC39, size: 0x8, addend: 0x0, symName: __ZNSt3__117__compressed_pairINS_16__hash_node_baseIPNS_11__hash_nodeINS_17__hash_value_typeINS_12basic_stringIcNS_11char_traitsIcEENS_9allocatorIcEEEE5TableEEPvEEEENS7_ISD_EEEC2B7v160006ILb1EvEEv, symObjAddr: 0x3F80, symBinAddr: 0x100019360, symSize: 0xEC }
  - { offsetInCU: 0x335CB, offset: 0x3DC6D, size: 0x8, addend: 0x0, symName: __ZNSt3__122__compressed_pair_elemINS_16__hash_node_baseIPNS_11__hash_nodeINS_17__hash_value_typeINS_12basic_stringIcNS_11char_traitsIcEENS_9allocatorIcEEEE5TableEEPvEEEELi0ELb0EEC2B7v160006ENS_16__value_init_tagE, symObjAddr: 0x406C, symBinAddr: 0x10001944C, symSize: 0x78 }
  - { offsetInCU: 0x335FE, offset: 0x3DCA0, size: 0x8, addend: 0x0, symName: __ZNSt3__122__compressed_pair_elemINS_9allocatorINS_11__hash_nodeINS_17__hash_value_typeINS_12basic_stringIcNS_11char_traitsIcEENS1_IcEEEE5TableEEPvEEEELi1ELb1EEC2B7v160006ENS_16__value_init_tagE, symObjAddr: 0x40E4, symBinAddr: 0x1000194C4, symSize: 0x84 }
  - { offsetInCU: 0x33631, offset: 0x3DCD3, size: 0x8, addend: 0x0, symName: __ZNSt3__116__hash_node_baseIPNS_11__hash_nodeINS_17__hash_value_typeINS_12basic_stringIcNS_11char_traitsIcEENS_9allocatorIcEEEE5TableEEPvEEEC1B7v160006Ev, symObjAddr: 0x4168, symBinAddr: 0x100019548, symSize: 0x78 }
  - { offsetInCU: 0x33659, offset: 0x3DCFB, size: 0x8, addend: 0x0, symName: __ZNSt3__116__hash_node_baseIPNS_11__hash_nodeINS_17__hash_value_typeINS_12basic_stringIcNS_11char_traitsIcEENS_9allocatorIcEEEE5TableEEPvEEEC2B7v160006Ev, symObjAddr: 0x41E0, symBinAddr: 0x1000195C0, symSize: 0xB8 }
  - { offsetInCU: 0x33681, offset: 0x3DD23, size: 0x8, addend: 0x0, symName: __ZNSt3__19allocatorINS_11__hash_nodeINS_17__hash_value_typeINS_12basic_stringIcNS_11char_traitsIcEENS0_IcEEEE5TableEEPvEEEC2B7v160006Ev, symObjAddr: 0x4298, symBinAddr: 0x100019678, symSize: 0x84 }
  - { offsetInCU: 0x336A9, offset: 0x3DD4B, size: 0x8, addend: 0x0, symName: __ZNSt3__116__non_trivial_ifILb1ENS_9allocatorINS_11__hash_nodeINS_17__hash_value_typeINS_12basic_stringIcNS_11char_traitsIcEENS1_IcEEEE5TableEEPvEEEEEC2B7v160006Ev, symObjAddr: 0x431C, symBinAddr: 0x1000196FC, symSize: 0x54 }
  - { offsetInCU: 0x336D1, offset: 0x3DD73, size: 0x8, addend: 0x0, symName: __ZNSt3__117__compressed_pairImNS_22__unordered_map_hasherINS_12basic_stringIcNS_11char_traitsIcEENS_9allocatorIcEEEENS_17__hash_value_typeIS7_5TableEENS_4hashIS7_EENS_8equal_toIS7_EELb1EEEEC2B7v160006IiNS_18__default_init_tagEEEOT_OT0_, symObjAddr: 0x4370, symBinAddr: 0x100019750, symSize: 0x140 }
  - { offsetInCU: 0x33727, offset: 0x3DDC9, size: 0x8, addend: 0x0, symName: __ZNSt3__122__compressed_pair_elemINS_22__unordered_map_hasherINS_12basic_stringIcNS_11char_traitsIcEENS_9allocatorIcEEEENS_17__hash_value_typeIS7_5TableEENS_4hashIS7_EENS_8equal_toIS7_EELb1EEELi1ELb1EEC2B7v160006ENS_18__default_init_tagE, symObjAddr: 0x44B0, symBinAddr: 0x100019890, symSize: 0x84 }
  - { offsetInCU: 0x3375A, offset: 0x3DDFC, size: 0x8, addend: 0x0, symName: __ZNSt3__122__unordered_map_hasherINS_12basic_stringIcNS_11char_traitsIcEENS_9allocatorIcEEEENS_17__hash_value_typeIS6_5TableEENS_4hashIS6_EENS_8equal_toIS6_EELb1EEC2B7v160006Ev, symObjAddr: 0x4534, symBinAddr: 0x100019914, symSize: 0x54 }
  - { offsetInCU: 0x33782, offset: 0x3DE24, size: 0x8, addend: 0x0, symName: __ZNSt3__117__compressed_pairIfNS_21__unordered_map_equalINS_12basic_stringIcNS_11char_traitsIcEENS_9allocatorIcEEEENS_17__hash_value_typeIS7_5TableEENS_8equal_toIS7_EENS_4hashIS7_EELb1EEEEC2B7v160006IfNS_18__default_init_tagEEEOT_OT0_, symObjAddr: 0x4588, symBinAddr: 0x100019968, symSize: 0x140 }
  - { offsetInCU: 0x337D8, offset: 0x3DE7A, size: 0x8, addend: 0x0, symName: __ZNSt3__122__compressed_pair_elemIfLi0ELb0EEC2B7v160006IfvEEOT_, symObjAddr: 0x46C8, symBinAddr: 0x100019AA8, symSize: 0x194 }
  - { offsetInCU: 0x33819, offset: 0x3DEBB, size: 0x8, addend: 0x0, symName: __ZNSt3__122__compressed_pair_elemINS_21__unordered_map_equalINS_12basic_stringIcNS_11char_traitsIcEENS_9allocatorIcEEEENS_17__hash_value_typeIS7_5TableEENS_8equal_toIS7_EENS_4hashIS7_EELb1EEELi1ELb1EEC2B7v160006ENS_18__default_init_tagE, symObjAddr: 0x485C, symBinAddr: 0x100019C3C, symSize: 0x84 }
  - { offsetInCU: 0x3384C, offset: 0x3DEEE, size: 0x8, addend: 0x0, symName: __ZNSt3__121__unordered_map_equalINS_12basic_stringIcNS_11char_traitsIcEENS_9allocatorIcEEEENS_17__hash_value_typeIS6_5TableEENS_8equal_toIS6_EENS_4hashIS6_EELb1EEC2B7v160006Ev, symObjAddr: 0x48E0, symBinAddr: 0x100019CC0, symSize: 0x54 }
  - { offsetInCU: 0x33874, offset: 0x3DF16, size: 0x8, addend: 0x0, symName: __ZN5Silly9printHelpEPc, symObjAddr: 0x4934, symBinAddr: 0x100019D14, symSize: 0x11C }
  - { offsetInCU: 0x338A7, offset: 0x3DF49, size: 0x8, addend: 0x0, symName: __ZNSt3__113basic_ostreamIcNS_11char_traitsIcEEElsB7v160006EPFRS3_S4_E, symObjAddr: 0x4B20, symBinAddr: 0x100019F00, symSize: 0x108 }
  - { offsetInCU: 0x338FD, offset: 0x3DF9F, size: 0x8, addend: 0x0, symName: __ZNKSt3__19basic_iosIcNS_11char_traitsIcEEE4failB7v160006Ev, symObjAddr: 0x93FC, symBinAddr: 0x10001A3E0, symSize: 0x124 }
  - { offsetInCU: 0x33922, offset: 0x3DFC4, size: 0x8, addend: 0x0, symName: __ZN5Silly6createEv, symObjAddr: 0xAEC8, symBinAddr: 0x10001BEAC, symSize: 0x16A4 }
  - { offsetInCU: 0x33A15, offset: 0x3E0B7, size: 0x8, addend: 0x0, symName: __ZN5Silly6removeEv, symObjAddr: 0xC89C, symBinAddr: 0x10001D880, symSize: 0x73C }
  - { offsetInCU: 0x33A4D, offset: 0x3E0EF, size: 0x8, addend: 0x0, symName: __ZN5Silly6insertEv, symObjAddr: 0xCFD8, symBinAddr: 0x10001DFBC, symSize: 0x2138 }
  - { offsetInCU: 0x33B59, offset: 0x3E1FB, size: 0x8, addend: 0x0, symName: __ZN5Silly9deleteRowEv, symObjAddr: 0x14278, symBinAddr: 0x10002525C, symSize: 0x4164 }
  - { offsetInCU: 0x33D93, offset: 0x3E435, size: 0x8, addend: 0x0, symName: __ZN5Silly12userGenerateEv, symObjAddr: 0x1E7F0, symBinAddr: 0x10002F7D4, symSize: 0x1650 }
  - { offsetInCU: 0x33E27, offset: 0x3E4C9, size: 0x8, addend: 0x0, symName: __ZNKSt3__18ios_base4failB7v160006Ev, symObjAddr: 0x1FEBC, symBinAddr: 0x100030EA0, symSize: 0x170 }
  - { offsetInCU: 0x33E6C, offset: 0x3E50E, size: 0x8, addend: 0x0, symName: __ZNKSt3__113basic_istreamIcNS_11char_traitsIcEEE6sentrycvbB7v160006Ev, symObjAddr: 0x2002C, symBinAddr: 0x100031010, symSize: 0xE8 }
  - { offsetInCU: 0x33E91, offset: 0x3E533, size: 0x8, addend: 0x0, symName: __ZNSt3__112basic_stringIcNS_11char_traitsIcEENS_9allocatorIcEEE5clearB7v160006Ev, symObjAddr: 0x20114, symBinAddr: 0x1000310F8, symSize: 0x3B4 }
  - { offsetInCU: 0x33EB9, offset: 0x3E55B, size: 0x8, addend: 0x0, symName: __ZNKSt3__112basic_stringIcNS_11char_traitsIcEENS_9allocatorIcEEE8max_sizeB7v160006Ev, symObjAddr: 0x204C8, symBinAddr: 0x1000314AC, symSize: 0x1B8 }
  - { offsetInCU: 0x33F0B, offset: 0x3E5AD, size: 0x8, addend: 0x0, symName: __ZNSt3__114numeric_limitsIlE3maxB7v160006Ev, symObjAddr: 0x20680, symBinAddr: 0x100031664, symSize: 0x14 }
  - { offsetInCU: 0x33F1F, offset: 0x3E5C1, size: 0x8, addend: 0x0, symName: __ZNSt3__115basic_streambufIcNS_11char_traitsIcEEE5sgetcB7v160006Ev, symObjAddr: 0x20694, symBinAddr: 0x100031678, symSize: 0x418 }
  - { offsetInCU: 0x33F44, offset: 0x3E5E6, size: 0x8, addend: 0x0, symName: __ZNSt3__111char_traitsIcE12to_char_typeEi, symObjAddr: 0x20AAC, symBinAddr: 0x100031A90, symSize: 0x18 }
  - { offsetInCU: 0x33F67, offset: 0x3E609, size: 0x8, addend: 0x0, symName: __ZNKSt3__15ctypeIcE2isB7v160006Ejc, symObjAddr: 0x20AC4, symBinAddr: 0x100031AA8, symSize: 0x314 }
  - { offsetInCU: 0x33FAA, offset: 0x3E64C, size: 0x8, addend: 0x0, symName: __ZNSt3__115basic_streambufIcNS_11char_traitsIcEEE6sbumpcB7v160006Ev, symObjAddr: 0x20DD8, symBinAddr: 0x100031DBC, symSize: 0x4D8 }
  - { offsetInCU: 0x33FCF, offset: 0x3E671, size: 0x8, addend: 0x0, symName: __ZNSt3__18ios_base18__setstate_nothrowB7v160006Ej, symObjAddr: 0x212B0, symBinAddr: 0x100032294, symSize: 0x320 }
  - { offsetInCU: 0x34003, offset: 0x3E6A5, size: 0x8, addend: 0x0, symName: __ZNKSt3__19basic_iosIcNS_11char_traitsIcEEE10exceptionsB7v160006Ev, symObjAddr: 0x215D0, symBinAddr: 0x1000325B4, symSize: 0x120 }
  - { offsetInCU: 0x34028, offset: 0x3E6CA, size: 0x8, addend: 0x0, symName: __ZNSt3__111char_traitsIcE6assignERcRKc, symObjAddr: 0x21700, symBinAddr: 0x1000326E4, symSize: 0xF4 }
  - { offsetInCU: 0x34059, offset: 0x3E6FB, size: 0x8, addend: 0x0, symName: __ZNSt3__112basic_stringIcNS_11char_traitsIcEENS_9allocatorIcEEE15__set_long_sizeB7v160006Em, symObjAddr: 0x217F4, symBinAddr: 0x1000327D8, symSize: 0x220 }
  - { offsetInCU: 0x3408D, offset: 0x3E72F, size: 0x8, addend: 0x0, symName: __ZNSt3__112basic_stringIcNS_11char_traitsIcEENS_9allocatorIcEEE16__set_short_sizeB7v160006Em, symObjAddr: 0x21A14, symBinAddr: 0x1000329F8, symSize: 0x394 }
  - { offsetInCU: 0x340CB, offset: 0x3E76D, size: 0x8, addend: 0x0, symName: __ZNSt3__116allocator_traitsINS_9allocatorIcEEE8max_sizeB7v160006IS2_vEEmRKS2_, symObjAddr: 0x21DA8, symBinAddr: 0x100032D8C, symSize: 0x24 }
  - { offsetInCU: 0x340FA, offset: 0x3E79C, size: 0x8, addend: 0x0, symName: __ZNKSt3__112basic_stringIcNS_11char_traitsIcEENS_9allocatorIcEEE7__allocB7v160006Ev, symObjAddr: 0x21DCC, symBinAddr: 0x100032DB0, symSize: 0xDC }
  - { offsetInCU: 0x3411F, offset: 0x3E7C1, size: 0x8, addend: 0x0, symName: __ZNSt3__114numeric_limitsImE3maxB7v160006Ev, symObjAddr: 0x21EA8, symBinAddr: 0x100032E8C, symSize: 0x14 }
  - { offsetInCU: 0x34133, offset: 0x3E7D5, size: 0x8, addend: 0x0, symName: __ZNKSt3__19allocatorIcE8max_sizeB7v160006Ev, symObjAddr: 0x21EBC, symBinAddr: 0x100032EA0, symSize: 0x4C }
  - { offsetInCU: 0x34158, offset: 0x3E7FA, size: 0x8, addend: 0x0, symName: __ZNKSt3__117__compressed_pairINS_12basic_stringIcNS_11char_traitsIcEENS_9allocatorIcEEE5__repES5_E6secondB7v160006Ev, symObjAddr: 0x21F08, symBinAddr: 0x100032EEC, symSize: 0x108 }
  - { offsetInCU: 0x3417D, offset: 0x3E81F, size: 0x8, addend: 0x0, symName: __ZNKSt3__122__compressed_pair_elemINS_9allocatorIcEELi1ELb1EE5__getB7v160006Ev, symObjAddr: 0x22010, symBinAddr: 0x100032FF4, symSize: 0x74 }
  - { offsetInCU: 0x341A2, offset: 0x3E844, size: 0x8, addend: 0x0, symName: __ZNSt3__123__libcpp_numeric_limitsImLb1EE3maxB7v160006Ev, symObjAddr: 0x22084, symBinAddr: 0x100033068, symSize: 0x8 }
  - { offsetInCU: 0x341B6, offset: 0x3E858, size: 0x8, addend: 0x0, symName: __ZNSt3__123__libcpp_numeric_limitsIlLb1EE3maxB7v160006Ev, symObjAddr: 0x2208C, symBinAddr: 0x100033070, symSize: 0x8 }
  - { offsetInCU: 0x341CA, offset: 0x3E86C, size: 0x8, addend: 0x0, symName: __ZNSt3__111char_traitsIcE11to_int_typeEc, symObjAddr: 0x22094, symBinAddr: 0x100033078, symSize: 0x14 }
  - { offsetInCU: 0x341ED, offset: 0x3E88F, size: 0x8, addend: 0x0, symName: __Z7isasciii, symObjAddr: 0x220A8, symBinAddr: 0x10003308C, symSize: 0x24 }
  - { offsetInCU: 0x34219, offset: 0x3E8BB, size: 0x8, addend: 0x0, symName: __ZNKSt3__18ios_base10exceptionsB7v160006Ev, symObjAddr: 0x220CC, symBinAddr: 0x1000330B0, symSize: 0x160 }
  - { offsetInCU: 0x34245, offset: 0x3E8E7, size: 0x8, addend: 0x0, symName: __ZN5TableC1Ev, symObjAddr: 0x226CC, symBinAddr: 0x100033210, symSize: 0x78 }
  - { offsetInCU: 0x34270, offset: 0x3E912, size: 0x8, addend: 0x0, symName: __ZNSt3__16vectorINS_12basic_stringIcNS_11char_traitsIcEENS_9allocatorIcEEEENS4_IS6_EEE6resizeEm, symObjAddr: 0x22744, symBinAddr: 0x100033288, symSize: 0x1F4 }
  - { offsetInCU: 0x342B5, offset: 0x3E957, size: 0x8, addend: 0x0, symName: __ZNSt3__16vectorI10ColumnTypeNS_9allocatorIS1_EEE6resizeEm, symObjAddr: 0x22938, symBinAddr: 0x10003347C, symSize: 0x1EC }
  - { offsetInCU: 0x342FA, offset: 0x3E99C, size: 0x8, addend: 0x0, symName: __ZNSt3__113unordered_mapINS_12basic_stringIcNS_11char_traitsIcEENS_9allocatorIcEEEE5TableNS_4hashIS6_EENS_8equal_toIS6_EENS4_INS_4pairIKS6_S7_EEEEE4findB7v160006ERSD_, symObjAddr: 0x22BE4, symBinAddr: 0x100033728, symSize: 0x390 }
  - { offsetInCU: 0x34330, offset: 0x3E9D2, size: 0x8, addend: 0x0, symName: __ZNSt3__113unordered_mapINS_12basic_stringIcNS_11char_traitsIcEENS_9allocatorIcEEEE5TableNS_4hashIS6_EENS_8equal_toIS6_EENS4_INS_4pairIKS6_S7_EEEEE3endB7v160006Ev, symObjAddr: 0x22F74, symBinAddr: 0x100033AB8, symSize: 0x340 }
  - { offsetInCU: 0x34356, offset: 0x3E9F8, size: 0x8, addend: 0x0, symName: __ZNSt3__16vectorI10ColumnTypeNS_9allocatorIS1_EEEixB7v160006Em, symObjAddr: 0x232B4, symBinAddr: 0x100033DF8, symSize: 0x1B0 }
  - { offsetInCU: 0x3438C, offset: 0x3EA2E, size: 0x8, addend: 0x0, symName: __ZNSt3__16vectorINS_12basic_stringIcNS_11char_traitsIcEENS_9allocatorIcEEEENS4_IS6_EEEixB7v160006Em, symObjAddr: 0x23464, symBinAddr: 0x100033FA8, symSize: 0x1D4 }
  - { offsetInCU: 0x343C2, offset: 0x3EA64, size: 0x8, addend: 0x0, symName: __ZNSt3__113unordered_mapINS_12basic_stringIcNS_11char_traitsIcEENS_9allocatorIcEEEE5TableNS_4hashIS6_EENS_8equal_toIS6_EENS4_INS_4pairIKS6_S7_EEEEEixERSD_, symObjAddr: 0x23638, symBinAddr: 0x10003417C, symSize: 0x4F8 }
  - { offsetInCU: 0x34404, offset: 0x3EAA6, size: 0x8, addend: 0x0, symName: __ZN5TableaSERKS_, symObjAddr: 0x23B30, symBinAddr: 0x100034674, symSize: 0x7DC }
  - { offsetInCU: 0x34434, offset: 0x3EAD6, size: 0x8, addend: 0x0, symName: __ZNSt3__16vectorINS_12basic_stringIcNS_11char_traitsIcEENS_9allocatorIcEEEENS4_IS6_EEE5beginB7v160006Ev, symObjAddr: 0x24438, symBinAddr: 0x100034E50, symSize: 0x2B0 }
  - { offsetInCU: 0x3445C, offset: 0x3EAFE, size: 0x8, addend: 0x0, symName: __ZNSt3__16vectorINS_12basic_stringIcNS_11char_traitsIcEENS_9allocatorIcEEEENS4_IS6_EEE3endB7v160006Ev, symObjAddr: 0x246E8, symBinAddr: 0x100035100, symSize: 0x2B4 }
  - { offsetInCU: 0x34484, offset: 0x3EB26, size: 0x8, addend: 0x0, symName: __ZNKSt3__111__wrap_iterIPNS_12basic_stringIcNS_11char_traitsIcEENS_9allocatorIcEEEEEdeB7v160006Ev, symObjAddr: 0x24A60, symBinAddr: 0x100035478, symSize: 0xF4 }
  - { offsetInCU: 0x344A9, offset: 0x3EB4B, size: 0x8, addend: 0x0, symName: __ZNSt3__111__wrap_iterIPNS_12basic_stringIcNS_11char_traitsIcEENS_9allocatorIcEEEEEppB7v160006Ev, symObjAddr: 0x24B54, symBinAddr: 0x10003556C, symSize: 0x1A8 }
  - { offsetInCU: 0x344CE, offset: 0x3EB70, size: 0x8, addend: 0x0, symName: __ZN5TableD1Ev, symObjAddr: 0x24CFC, symBinAddr: 0x100035714, symSize: 0x78 }
  - { offsetInCU: 0x344F9, offset: 0x3EB9B, size: 0x8, addend: 0x0, symName: __ZN5TableC2Ev, symObjAddr: 0x24D74, symBinAddr: 0x10003578C, symSize: 0x140 }
  - { offsetInCU: 0x34524, offset: 0x3EBC6, size: 0x8, addend: 0x0, symName: __ZNSt3__16vectorINS_12basic_stringIcNS_11char_traitsIcEENS_9allocatorIcEEEENS4_IS6_EEEC1B7v160006Ev, symObjAddr: 0x24EB4, symBinAddr: 0x1000358CC, symSize: 0x78 }
  - { offsetInCU: 0x3454C, offset: 0x3EBEE, size: 0x8, addend: 0x0, symName: __ZNSt3__16vectorI10ColumnTypeNS_9allocatorIS1_EEEC1B7v160006Ev, symObjAddr: 0x24F2C, symBinAddr: 0x100035944, symSize: 0x78 }
  - { offsetInCU: 0x34574, offset: 0x3EC16, size: 0x8, addend: 0x0, symName: __ZNSt3__16vectorINS0_INS_7variantIJidbNS_12basic_stringIcNS_11char_traitsIcEENS_9allocatorIcEEEEEEENS5_IS8_EEEENS5_ISA_EEEC1B7v160006Ev, symObjAddr: 0x24FA4, symBinAddr: 0x1000359BC, symSize: 0x78 }
  - { offsetInCU: 0x3459C, offset: 0x3EC3E, size: 0x8, addend: 0x0, symName: __ZNSt3__113unordered_mapINS_7variantIJidbNS_12basic_stringIcNS_11char_traitsIcEENS_9allocatorIcEEEEEEENS_6vectorIjNS5_IjEEEENS_4hashIS8_EENS_8equal_toIS8_EENS5_INS_4pairIKS8_SB_EEEEEC1B7v160006Ev, symObjAddr: 0x2501C, symBinAddr: 0x100035A34, symSize: 0x78 }
  - { offsetInCU: 0x345C4, offset: 0x3EC66, size: 0x8, addend: 0x0, symName: __ZNSt3__13mapINS_7variantIJidbNS_12basic_stringIcNS_11char_traitsIcEENS_9allocatorIcEEEEEEENS_6vectorIjNS5_IjEEEENS_4lessIS8_EENS5_INS_4pairIKS8_SB_EEEEEC1B7v160006Ev, symObjAddr: 0x25094, symBinAddr: 0x100035AAC, symSize: 0x78 }
  - { offsetInCU: 0x345EC, offset: 0x3EC8E, size: 0x8, addend: 0x0, symName: __ZNSt3__16vectorINS_12basic_stringIcNS_11char_traitsIcEENS_9allocatorIcEEEENS4_IS6_EEEC2B7v160006Ev, symObjAddr: 0x2510C, symBinAddr: 0x100035B24, symSize: 0x34C }
  - { offsetInCU: 0x3461A, offset: 0x3ECBC, size: 0x8, addend: 0x0, symName: __ZNSt3__117__compressed_pairIPNS_12basic_stringIcNS_11char_traitsIcEENS_9allocatorIcEEEENS4_IS6_EEEC1B7v160006IDnNS_18__default_init_tagEEEOT_OT0_, symObjAddr: 0x25458, symBinAddr: 0x100035E70, symSize: 0x88 }
  - { offsetInCU: 0x34670, offset: 0x3ED12, size: 0x8, addend: 0x0, symName: __ZNSt3__117__compressed_pairIPNS_12basic_stringIcNS_11char_traitsIcEENS_9allocatorIcEEEENS4_IS6_EEEC2B7v160006IDnNS_18__default_init_tagEEEOT_OT0_, symObjAddr: 0x254F0, symBinAddr: 0x100035F08, symSize: 0x140 }
  - { offsetInCU: 0x346C6, offset: 0x3ED68, size: 0x8, addend: 0x0, symName: __ZNSt3__122__compressed_pair_elemIPNS_12basic_stringIcNS_11char_traitsIcEENS_9allocatorIcEEEELi0ELb0EEC2B7v160006IDnvEEOT_, symObjAddr: 0x25630, symBinAddr: 0x100036048, symSize: 0xBC }
  - { offsetInCU: 0x34707, offset: 0x3EDA9, size: 0x8, addend: 0x0, symName: __ZNSt3__122__compressed_pair_elemINS_9allocatorINS_12basic_stringIcNS_11char_traitsIcEENS1_IcEEEEEELi1ELb1EEC2B7v160006ENS_18__default_init_tagE, symObjAddr: 0x256EC, symBinAddr: 0x100036104, symSize: 0x84 }
  - { offsetInCU: 0x3473A, offset: 0x3EDDC, size: 0x8, addend: 0x0, symName: __ZNSt3__19allocatorINS_12basic_stringIcNS_11char_traitsIcEENS0_IcEEEEEC2B7v160006Ev, symObjAddr: 0x25770, symBinAddr: 0x100036188, symSize: 0x84 }
  - { offsetInCU: 0x34762, offset: 0x3EE04, size: 0x8, addend: 0x0, symName: __ZNSt3__116__non_trivial_ifILb1ENS_9allocatorINS_12basic_stringIcNS_11char_traitsIcEENS1_IcEEEEEEEC2B7v160006Ev, symObjAddr: 0x257F4, symBinAddr: 0x10003620C, symSize: 0x54 }
  - { offsetInCU: 0x3478A, offset: 0x3EE2C, size: 0x8, addend: 0x0, symName: __ZNSt3__16vectorI10ColumnTypeNS_9allocatorIS1_EEEC2B7v160006Ev, symObjAddr: 0x25848, symBinAddr: 0x100036260, symSize: 0x34C }
  - { offsetInCU: 0x347B3, offset: 0x3EE55, size: 0x8, addend: 0x0, symName: __ZNSt3__117__compressed_pairIP10ColumnTypeNS_9allocatorIS1_EEEC1B7v160006IDnNS_18__default_init_tagEEEOT_OT0_, symObjAddr: 0x25B94, symBinAddr: 0x1000365AC, symSize: 0x88 }
  - { offsetInCU: 0x34809, offset: 0x3EEAB, size: 0x8, addend: 0x0, symName: __ZNSt3__117__compressed_pairIP10ColumnTypeNS_9allocatorIS1_EEEC2B7v160006IDnNS_18__default_init_tagEEEOT_OT0_, symObjAddr: 0x25C2C, symBinAddr: 0x100036644, symSize: 0x140 }
  - { offsetInCU: 0x3485F, offset: 0x3EF01, size: 0x8, addend: 0x0, symName: __ZNSt3__122__compressed_pair_elemIP10ColumnTypeLi0ELb0EEC2B7v160006IDnvEEOT_, symObjAddr: 0x25D6C, symBinAddr: 0x100036784, symSize: 0xBC }
  - { offsetInCU: 0x348A0, offset: 0x3EF42, size: 0x8, addend: 0x0, symName: __ZNSt3__122__compressed_pair_elemINS_9allocatorI10ColumnTypeEELi1ELb1EEC2B7v160006ENS_18__default_init_tagE, symObjAddr: 0x25E28, symBinAddr: 0x100036840, symSize: 0x84 }
  - { offsetInCU: 0x348D3, offset: 0x3EF75, size: 0x8, addend: 0x0, symName: __ZNSt3__19allocatorI10ColumnTypeEC2B7v160006Ev, symObjAddr: 0x25EAC, symBinAddr: 0x1000368C4, symSize: 0x84 }
  - { offsetInCU: 0x348FB, offset: 0x3EF9D, size: 0x8, addend: 0x0, symName: __ZNSt3__116__non_trivial_ifILb1ENS_9allocatorI10ColumnTypeEEEC2B7v160006Ev, symObjAddr: 0x25F30, symBinAddr: 0x100036948, symSize: 0x54 }
  - { offsetInCU: 0x34923, offset: 0x3EFC5, size: 0x8, addend: 0x0, symName: __ZNSt3__16vectorINS0_INS_7variantIJidbNS_12basic_stringIcNS_11char_traitsIcEENS_9allocatorIcEEEEEEENS5_IS8_EEEENS5_ISA_EEEC2B7v160006Ev, symObjAddr: 0x25F84, symBinAddr: 0x10003699C, symSize: 0x34C }
  - { offsetInCU: 0x3494C, offset: 0x3EFEE, size: 0x8, addend: 0x0, symName: __ZNSt3__117__compressed_pairIPNS_6vectorINS_7variantIJidbNS_12basic_stringIcNS_11char_traitsIcEENS_9allocatorIcEEEEEEENS6_IS9_EEEENS6_ISB_EEEC1B7v160006IDnNS_18__default_init_tagEEEOT_OT0_, symObjAddr: 0x262D0, symBinAddr: 0x100036CE8, symSize: 0x88 }
  - { offsetInCU: 0x349A2, offset: 0x3F044, size: 0x8, addend: 0x0, symName: __ZNSt3__117__compressed_pairIPNS_6vectorINS_7variantIJidbNS_12basic_stringIcNS_11char_traitsIcEENS_9allocatorIcEEEEEEENS6_IS9_EEEENS6_ISB_EEEC2B7v160006IDnNS_18__default_init_tagEEEOT_OT0_, symObjAddr: 0x26368, symBinAddr: 0x100036D80, symSize: 0x140 }
  - { offsetInCU: 0x349F8, offset: 0x3F09A, size: 0x8, addend: 0x0, symName: __ZNSt3__122__compressed_pair_elemIPNS_6vectorINS_7variantIJidbNS_12basic_stringIcNS_11char_traitsIcEENS_9allocatorIcEEEEEEENS6_IS9_EEEELi0ELb0EEC2B7v160006IDnvEEOT_, symObjAddr: 0x264A8, symBinAddr: 0x100036EC0, symSize: 0xBC }
  - { offsetInCU: 0x34A39, offset: 0x3F0DB, size: 0x8, addend: 0x0, symName: __ZNSt3__122__compressed_pair_elemINS_9allocatorINS_6vectorINS_7variantIJidbNS_12basic_stringIcNS_11char_traitsIcEENS1_IcEEEEEEENS1_IS9_EEEEEELi1ELb1EEC2B7v160006ENS_18__default_init_tagE, symObjAddr: 0x26564, symBinAddr: 0x100036F7C, symSize: 0x84 }
  - { offsetInCU: 0x34A6C, offset: 0x3F10E, size: 0x8, addend: 0x0, symName: __ZNSt3__19allocatorINS_6vectorINS_7variantIJidbNS_12basic_stringIcNS_11char_traitsIcEENS0_IcEEEEEEENS0_IS8_EEEEEC2B7v160006Ev, symObjAddr: 0x265E8, symBinAddr: 0x100037000, symSize: 0x84 }
  - { offsetInCU: 0x34A94, offset: 0x3F136, size: 0x8, addend: 0x0, symName: __ZNSt3__116__non_trivial_ifILb1ENS_9allocatorINS_6vectorINS_7variantIJidbNS_12basic_stringIcNS_11char_traitsIcEENS1_IcEEEEEEENS1_IS9_EEEEEEEC2B7v160006Ev, symObjAddr: 0x2666C, symBinAddr: 0x100037084, symSize: 0x54 }
  - { offsetInCU: 0x34ABC, offset: 0x3F15E, size: 0x8, addend: 0x0, symName: __ZNSt3__113unordered_mapINS_7variantIJidbNS_12basic_stringIcNS_11char_traitsIcEENS_9allocatorIcEEEEEEENS_6vectorIjNS5_IjEEEENS_4hashIS8_EENS_8equal_toIS8_EENS5_INS_4pairIKS8_SB_EEEEEC2B7v160006Ev, symObjAddr: 0x266C0, symBinAddr: 0x1000370D8, symSize: 0x94 }
  - { offsetInCU: 0x34AE4, offset: 0x3F186, size: 0x8, addend: 0x0, symName: __ZNSt3__112__hash_tableINS_17__hash_value_typeINS_7variantIJidbNS_12basic_stringIcNS_11char_traitsIcEENS_9allocatorIcEEEEEEENS_6vectorIjNS6_IjEEEEEENS_22__unordered_map_hasherIS9_SD_NS_4hashIS9_EENS_8equal_toIS9_EELb1EEENS_21__unordered_map_equalIS9_SD_SI_SG_Lb1EEENS6_ISD_EEEC1Ev, symObjAddr: 0x26754, symBinAddr: 0x10003716C, symSize: 0x78 }
  - { offsetInCU: 0x34B0F, offset: 0x3F1B1, size: 0x8, addend: 0x0, symName: __ZNSt3__112__hash_tableINS_17__hash_value_typeINS_7variantIJidbNS_12basic_stringIcNS_11char_traitsIcEENS_9allocatorIcEEEEEEENS_6vectorIjNS6_IjEEEEEENS_22__unordered_map_hasherIS9_SD_NS_4hashIS9_EENS_8equal_toIS9_EELb1EEENS_21__unordered_map_equalIS9_SD_SI_SG_Lb1EEENS6_ISD_EEEC2Ev, symObjAddr: 0x267DC, symBinAddr: 0x1000371F4, symSize: 0x3E0 }
  - { offsetInCU: 0x34B3B, offset: 0x3F1DD, size: 0x8, addend: 0x0, symName: __ZNSt3__110unique_ptrIA_PNS_16__hash_node_baseIPNS_11__hash_nodeINS_17__hash_value_typeINS_7variantIJidbNS_12basic_stringIcNS_11char_traitsIcEENS_9allocatorIcEEEEEEENS_6vectorIjNS8_IjEEEEEEPvEEEENS_25__bucket_list_deallocatorINS8_ISK_EEEEEC1B7v160006ILb1EvEEv, symObjAddr: 0x26BBC, symBinAddr: 0x1000375D4, symSize: 0x78 }
  - { offsetInCU: 0x34B6F, offset: 0x3F211, size: 0x8, addend: 0x0, symName: __ZNSt3__117__compressed_pairINS_16__hash_node_baseIPNS_11__hash_nodeINS_17__hash_value_typeINS_7variantIJidbNS_12basic_stringIcNS_11char_traitsIcEENS_9allocatorIcEEEEEEENS_6vectorIjNS8_IjEEEEEEPvEEEENS8_ISH_EEEC1B7v160006ILb1EvEEv, symObjAddr: 0x26C34, symBinAddr: 0x10003764C, symSize: 0x78 }
  - { offsetInCU: 0x34BA3, offset: 0x3F245, size: 0x8, addend: 0x0, symName: __ZNSt3__117__compressed_pairImNS_22__unordered_map_hasherINS_7variantIJidbNS_12basic_stringIcNS_11char_traitsIcEENS_9allocatorIcEEEEEEENS_17__hash_value_typeIS9_NS_6vectorIjNS6_IjEEEEEENS_4hashIS9_EENS_8equal_toIS9_EELb1EEEEC1B7v160006IiNS_18__default_init_tagEEEOT_OT0_, symObjAddr: 0x26CAC, symBinAddr: 0x1000376C4, symSize: 0x88 }
  - { offsetInCU: 0x34BF9, offset: 0x3F29B, size: 0x8, addend: 0x0, symName: __ZNSt3__117__compressed_pairIfNS_21__unordered_map_equalINS_7variantIJidbNS_12basic_stringIcNS_11char_traitsIcEENS_9allocatorIcEEEEEEENS_17__hash_value_typeIS9_NS_6vectorIjNS6_IjEEEEEENS_8equal_toIS9_EENS_4hashIS9_EELb1EEEEC1B7v160006IfNS_18__default_init_tagEEEOT_OT0_, symObjAddr: 0x26D34, symBinAddr: 0x10003774C, symSize: 0x88 }
  - { offsetInCU: 0x34C4F, offset: 0x3F2F1, size: 0x8, addend: 0x0, symName: __ZNSt3__110unique_ptrIA_PNS_16__hash_node_baseIPNS_11__hash_nodeINS_17__hash_value_typeINS_7variantIJidbNS_12basic_stringIcNS_11char_traitsIcEENS_9allocatorIcEEEEEEENS_6vectorIjNS8_IjEEEEEEPvEEEENS_25__bucket_list_deallocatorINS8_ISK_EEEEEC2B7v160006ILb1EvEEv, symObjAddr: 0x26DBC, symBinAddr: 0x1000377D4, symSize: 0x268 }
  - { offsetInCU: 0x34C84, offset: 0x3F326, size: 0x8, addend: 0x0, symName: __ZNSt3__117__compressed_pairIPPNS_16__hash_node_baseIPNS_11__hash_nodeINS_17__hash_value_typeINS_7variantIJidbNS_12basic_stringIcNS_11char_traitsIcEENS_9allocatorIcEEEEEEENS_6vectorIjNS8_IjEEEEEEPvEEEENS_25__bucket_list_deallocatorINS8_ISK_EEEEEC1B7v160006INS_16__value_init_tagESR_EEOT_OT0_, symObjAddr: 0x27024, symBinAddr: 0x100037A3C, symSize: 0x88 }
  - { offsetInCU: 0x34CDA, offset: 0x3F37C, size: 0x8, addend: 0x0, symName: __ZNSt3__117__compressed_pairIPPNS_16__hash_node_baseIPNS_11__hash_nodeINS_17__hash_value_typeINS_7variantIJidbNS_12basic_stringIcNS_11char_traitsIcEENS_9allocatorIcEEEEEEENS_6vectorIjNS8_IjEEEEEEPvEEEENS_25__bucket_list_deallocatorINS8_ISK_EEEEEC2B7v160006INS_16__value_init_tagESR_EEOT_OT0_, symObjAddr: 0x270AC, symBinAddr: 0x100037AC4, symSize: 0x118 }
  - { offsetInCU: 0x34D30, offset: 0x3F3D2, size: 0x8, addend: 0x0, symName: __ZNSt3__122__compressed_pair_elemIPPNS_16__hash_node_baseIPNS_11__hash_nodeINS_17__hash_value_typeINS_7variantIJidbNS_12basic_stringIcNS_11char_traitsIcEENS_9allocatorIcEEEEEEENS_6vectorIjNS8_IjEEEEEEPvEEEELi0ELb0EEC2B7v160006ENS_16__value_init_tagE, symObjAddr: 0x271C4, symBinAddr: 0x100037BDC, symSize: 0xB8 }
  - { offsetInCU: 0x34D63, offset: 0x3F405, size: 0x8, addend: 0x0, symName: __ZNSt3__122__compressed_pair_elemINS_25__bucket_list_deallocatorINS_9allocatorIPNS_16__hash_node_baseIPNS_11__hash_nodeINS_17__hash_value_typeINS_7variantIJidbNS_12basic_stringIcNS_11char_traitsIcEENS2_IcEEEEEEENS_6vectorIjNS2_IjEEEEEEPvEEEEEEEELi1ELb0EEC2B7v160006ENS_16__value_init_tagE, symObjAddr: 0x2727C, symBinAddr: 0x100037C94, symSize: 0x78 }
  - { offsetInCU: 0x34D96, offset: 0x3F438, size: 0x8, addend: 0x0, symName: __ZNSt3__125__bucket_list_deallocatorINS_9allocatorIPNS_16__hash_node_baseIPNS_11__hash_nodeINS_17__hash_value_typeINS_7variantIJidbNS_12basic_stringIcNS_11char_traitsIcEENS1_IcEEEEEEENS_6vectorIjNS1_IjEEEEEEPvEEEEEEEC1B7v160006Ev, symObjAddr: 0x272F4, symBinAddr: 0x100037D0C, symSize: 0x78 }
  - { offsetInCU: 0x34DBE, offset: 0x3F460, size: 0x8, addend: 0x0, symName: __ZNSt3__125__bucket_list_deallocatorINS_9allocatorIPNS_16__hash_node_baseIPNS_11__hash_nodeINS_17__hash_value_typeINS_7variantIJidbNS_12basic_stringIcNS_11char_traitsIcEENS1_IcEEEEEEENS_6vectorIjNS1_IjEEEEEEPvEEEEEEEC2B7v160006Ev, symObjAddr: 0x2736C, symBinAddr: 0x100037D84, symSize: 0x2CC }
  - { offsetInCU: 0x34DE7, offset: 0x3F489, size: 0x8, addend: 0x0, symName: __ZNSt3__117__compressed_pairImNS_9allocatorIPNS_16__hash_node_baseIPNS_11__hash_nodeINS_17__hash_value_typeINS_7variantIJidbNS_12basic_stringIcNS_11char_traitsIcEENS1_IcEEEEEEENS_6vectorIjNS1_IjEEEEEEPvEEEEEEEC1B7v160006IiNS_18__default_init_tagEEEOT_OT0_, symObjAddr: 0x27638, symBinAddr: 0x100038050, symSize: 0x88 }
  - { offsetInCU: 0x34E3D, offset: 0x3F4DF, size: 0x8, addend: 0x0, symName: __ZNSt3__117__compressed_pairImNS_9allocatorIPNS_16__hash_node_baseIPNS_11__hash_nodeINS_17__hash_value_typeINS_7variantIJidbNS_12basic_stringIcNS_11char_traitsIcEENS1_IcEEEEEEENS_6vectorIjNS1_IjEEEEEEPvEEEEEEEC2B7v160006IiNS_18__default_init_tagEEEOT_OT0_, symObjAddr: 0x276C0, symBinAddr: 0x1000380D8, symSize: 0x140 }
  - { offsetInCU: 0x34E93, offset: 0x3F535, size: 0x8, addend: 0x0, symName: __ZNSt3__122__compressed_pair_elemINS_9allocatorIPNS_16__hash_node_baseIPNS_11__hash_nodeINS_17__hash_value_typeINS_7variantIJidbNS_12basic_stringIcNS_11char_traitsIcEENS1_IcEEEEEEENS_6vectorIjNS1_IjEEEEEEPvEEEEEELi1ELb1EEC2B7v160006ENS_18__default_init_tagE, symObjAddr: 0x27800, symBinAddr: 0x100038218, symSize: 0x84 }
  - { offsetInCU: 0x34EC6, offset: 0x3F568, size: 0x8, addend: 0x0, symName: __ZNSt3__19allocatorIPNS_16__hash_node_baseIPNS_11__hash_nodeINS_17__hash_value_typeINS_7variantIJidbNS_12basic_stringIcNS_11char_traitsIcEENS0_IcEEEEEEENS_6vectorIjNS0_IjEEEEEEPvEEEEEC2B7v160006Ev, symObjAddr: 0x27884, symBinAddr: 0x10003829C, symSize: 0x84 }
  - { offsetInCU: 0x34EEE, offset: 0x3F590, size: 0x8, addend: 0x0, symName: __ZNSt3__116__non_trivial_ifILb1ENS_9allocatorIPNS_16__hash_node_baseIPNS_11__hash_nodeINS_17__hash_value_typeINS_7variantIJidbNS_12basic_stringIcNS_11char_traitsIcEENS1_IcEEEEEEENS_6vectorIjNS1_IjEEEEEEPvEEEEEEEC2B7v160006Ev, symObjAddr: 0x27908, symBinAddr: 0x100038320, symSize: 0x54 }
  - { offsetInCU: 0x34F16, offset: 0x3F5B8, size: 0x8, addend: 0x0, symName: __ZNSt3__117__compressed_pairINS_16__hash_node_baseIPNS_11__hash_nodeINS_17__hash_value_typeINS_7variantIJidbNS_12basic_stringIcNS_11char_traitsIcEENS_9allocatorIcEEEEEEENS_6vectorIjNS8_IjEEEEEEPvEEEENS8_ISH_EEEC2B7v160006ILb1EvEEv, symObjAddr: 0x2795C, symBinAddr: 0x100038374, symSize: 0xEC }
  - { offsetInCU: 0x34F4A, offset: 0x3F5EC, size: 0x8, addend: 0x0, symName: __ZNSt3__122__compressed_pair_elemINS_16__hash_node_baseIPNS_11__hash_nodeINS_17__hash_value_typeINS_7variantIJidbNS_12basic_stringIcNS_11char_traitsIcEENS_9allocatorIcEEEEEEENS_6vectorIjNS8_IjEEEEEEPvEEEELi0ELb0EEC2B7v160006ENS_16__value_init_tagE, symObjAddr: 0x27A48, symBinAddr: 0x100038460, symSize: 0x78 }
  - { offsetInCU: 0x34F7D, offset: 0x3F61F, size: 0x8, addend: 0x0, symName: __ZNSt3__122__compressed_pair_elemINS_9allocatorINS_11__hash_nodeINS_17__hash_value_typeINS_7variantIJidbNS_12basic_stringIcNS_11char_traitsIcEENS1_IcEEEEEEENS_6vectorIjNS1_IjEEEEEEPvEEEELi1ELb1EEC2B7v160006ENS_16__value_init_tagE, symObjAddr: 0x27AC0, symBinAddr: 0x1000384D8, symSize: 0x84 }
  - { offsetInCU: 0x34FB0, offset: 0x3F652, size: 0x8, addend: 0x0, symName: __ZNSt3__116__hash_node_baseIPNS_11__hash_nodeINS_17__hash_value_typeINS_7variantIJidbNS_12basic_stringIcNS_11char_traitsIcEENS_9allocatorIcEEEEEEENS_6vectorIjNS7_IjEEEEEEPvEEEC1B7v160006Ev, symObjAddr: 0x27B44, symBinAddr: 0x10003855C, symSize: 0x78 }
  - { offsetInCU: 0x34FD8, offset: 0x3F67A, size: 0x8, addend: 0x0, symName: __ZNSt3__116__hash_node_baseIPNS_11__hash_nodeINS_17__hash_value_typeINS_7variantIJidbNS_12basic_stringIcNS_11char_traitsIcEENS_9allocatorIcEEEEEEENS_6vectorIjNS7_IjEEEEEEPvEEEC2B7v160006Ev, symObjAddr: 0x27BBC, symBinAddr: 0x1000385D4, symSize: 0xB8 }
  - { offsetInCU: 0x35000, offset: 0x3F6A2, size: 0x8, addend: 0x0, symName: __ZNSt3__19allocatorINS_11__hash_nodeINS_17__hash_value_typeINS_7variantIJidbNS_12basic_stringIcNS_11char_traitsIcEENS0_IcEEEEEEENS_6vectorIjNS0_IjEEEEEEPvEEEC2B7v160006Ev, symObjAddr: 0x27C74, symBinAddr: 0x10003868C, symSize: 0x84 }
  - { offsetInCU: 0x35028, offset: 0x3F6CA, size: 0x8, addend: 0x0, symName: __ZNSt3__116__non_trivial_ifILb1ENS_9allocatorINS_11__hash_nodeINS_17__hash_value_typeINS_7variantIJidbNS_12basic_stringIcNS_11char_traitsIcEENS1_IcEEEEEEENS_6vectorIjNS1_IjEEEEEEPvEEEEEC2B7v160006Ev, symObjAddr: 0x27CF8, symBinAddr: 0x100038710, symSize: 0x54 }
  - { offsetInCU: 0x35050, offset: 0x3F6F2, size: 0x8, addend: 0x0, symName: __ZNSt3__117__compressed_pairImNS_22__unordered_map_hasherINS_7variantIJidbNS_12basic_stringIcNS_11char_traitsIcEENS_9allocatorIcEEEEEEENS_17__hash_value_typeIS9_NS_6vectorIjNS6_IjEEEEEENS_4hashIS9_EENS_8equal_toIS9_EELb1EEEEC2B7v160006IiNS_18__default_init_tagEEEOT_OT0_, symObjAddr: 0x27D4C, symBinAddr: 0x100038764, symSize: 0x140 }
  - { offsetInCU: 0x350A6, offset: 0x3F748, size: 0x8, addend: 0x0, symName: __ZNSt3__122__compressed_pair_elemINS_22__unordered_map_hasherINS_7variantIJidbNS_12basic_stringIcNS_11char_traitsIcEENS_9allocatorIcEEEEEEENS_17__hash_value_typeIS9_NS_6vectorIjNS6_IjEEEEEENS_4hashIS9_EENS_8equal_toIS9_EELb1EEELi1ELb1EEC2B7v160006ENS_18__default_init_tagE, symObjAddr: 0x27E8C, symBinAddr: 0x1000388A4, symSize: 0x84 }
  - { offsetInCU: 0x350D9, offset: 0x3F77B, size: 0x8, addend: 0x0, symName: __ZNSt3__122__unordered_map_hasherINS_7variantIJidbNS_12basic_stringIcNS_11char_traitsIcEENS_9allocatorIcEEEEEEENS_17__hash_value_typeIS8_NS_6vectorIjNS5_IjEEEEEENS_4hashIS8_EENS_8equal_toIS8_EELb1EEC2B7v160006Ev, symObjAddr: 0x27F10, symBinAddr: 0x100038928, symSize: 0x54 }
  - { offsetInCU: 0x35101, offset: 0x3F7A3, size: 0x8, addend: 0x0, symName: __ZNSt3__117__compressed_pairIfNS_21__unordered_map_equalINS_7variantIJidbNS_12basic_stringIcNS_11char_traitsIcEENS_9allocatorIcEEEEEEENS_17__hash_value_typeIS9_NS_6vectorIjNS6_IjEEEEEENS_8equal_toIS9_EENS_4hashIS9_EELb1EEEEC2B7v160006IfNS_18__default_init_tagEEEOT_OT0_, symObjAddr: 0x27F64, symBinAddr: 0x10003897C, symSize: 0x140 }
  - { offsetInCU: 0x35157, offset: 0x3F7F9, size: 0x8, addend: 0x0, symName: __ZNSt3__122__compressed_pair_elemINS_21__unordered_map_equalINS_7variantIJidbNS_12basic_stringIcNS_11char_traitsIcEENS_9allocatorIcEEEEEEENS_17__hash_value_typeIS9_NS_6vectorIjNS6_IjEEEEEENS_8equal_toIS9_EENS_4hashIS9_EELb1EEELi1ELb1EEC2B7v160006ENS_18__default_init_tagE, symObjAddr: 0x280A4, symBinAddr: 0x100038ABC, symSize: 0x84 }
  - { offsetInCU: 0x3518A, offset: 0x3F82C, size: 0x8, addend: 0x0, symName: __ZNSt3__121__unordered_map_equalINS_7variantIJidbNS_12basic_stringIcNS_11char_traitsIcEENS_9allocatorIcEEEEEEENS_17__hash_value_typeIS8_NS_6vectorIjNS5_IjEEEEEENS_8equal_toIS8_EENS_4hashIS8_EELb1EEC2B7v160006Ev, symObjAddr: 0x28128, symBinAddr: 0x100038B40, symSize: 0x54 }
  - { offsetInCU: 0x351B2, offset: 0x3F854, size: 0x8, addend: 0x0, symName: __ZNSt3__13mapINS_7variantIJidbNS_12basic_stringIcNS_11char_traitsIcEENS_9allocatorIcEEEEEEENS_6vectorIjNS5_IjEEEENS_4lessIS8_EENS5_INS_4pairIKS8_SB_EEEEEC2B7v160006Ev, symObjAddr: 0x2817C, symBinAddr: 0x100038B94, symSize: 0x240 }
  - { offsetInCU: 0x351DB, offset: 0x3F87D, size: 0x8, addend: 0x0, symName: __ZNSt3__119__map_value_compareINS_7variantIJidbNS_12basic_stringIcNS_11char_traitsIcEENS_9allocatorIcEEEEEEENS_12__value_typeIS8_NS_6vectorIjNS5_IjEEEEEENS_4lessIS8_EELb1EEC1B7v160006ESF_, symObjAddr: 0x283BC, symBinAddr: 0x100038DD4, symSize: 0x5C }
  - { offsetInCU: 0x35212, offset: 0x3F8B4, size: 0x8, addend: 0x0, symName: __ZNSt3__16__treeINS_12__value_typeINS_7variantIJidbNS_12basic_stringIcNS_11char_traitsIcEENS_9allocatorIcEEEEEEENS_6vectorIjNS6_IjEEEEEENS_19__map_value_compareIS9_SD_NS_4lessIS9_EELb1EEENS6_ISD_EEEC1ERKSH_, symObjAddr: 0x28418, symBinAddr: 0x100038E30, symSize: 0x80 }
  - { offsetInCU: 0x3524C, offset: 0x3F8EE, size: 0x8, addend: 0x0, symName: __ZNSt3__119__map_value_compareINS_7variantIJidbNS_12basic_stringIcNS_11char_traitsIcEENS_9allocatorIcEEEEEEENS_12__value_typeIS8_NS_6vectorIjNS5_IjEEEEEENS_4lessIS8_EELb1EEC2B7v160006ESF_, symObjAddr: 0x28498, symBinAddr: 0x100038EB0, symSize: 0x54 }
  - { offsetInCU: 0x35283, offset: 0x3F925, size: 0x8, addend: 0x0, symName: __ZNSt3__16__treeINS_12__value_typeINS_7variantIJidbNS_12basic_stringIcNS_11char_traitsIcEENS_9allocatorIcEEEEEEENS_6vectorIjNS6_IjEEEEEENS_19__map_value_compareIS9_SD_NS_4lessIS9_EELb1EEENS6_ISD_EEEC2ERKSH_, symObjAddr: 0x284EC, symBinAddr: 0x100038F04, symSize: 0x394 }
  - { offsetInCU: 0x352BF, offset: 0x3F961, size: 0x8, addend: 0x0, symName: __ZNSt3__117__compressed_pairINS_15__tree_end_nodeIPNS_16__tree_node_baseIPvEEEENS_9allocatorINS_11__tree_nodeINS_12__value_typeINS_7variantIJidbNS_12basic_stringIcNS_11char_traitsIcEENS7_IcEEEEEEENS_6vectorIjNS7_IjEEEEEES3_EEEEEC1B7v160006ILb1EvEEv, symObjAddr: 0x28880, symBinAddr: 0x100039298, symSize: 0x78 }
  - { offsetInCU: 0x352F3, offset: 0x3F995, size: 0x8, addend: 0x0, symName: __ZNSt3__117__compressed_pairImNS_19__map_value_compareINS_7variantIJidbNS_12basic_stringIcNS_11char_traitsIcEENS_9allocatorIcEEEEEEENS_12__value_typeIS9_NS_6vectorIjNS6_IjEEEEEENS_4lessIS9_EELb1EEEEC1B7v160006IiRKSH_EEOT_OT0_, symObjAddr: 0x288F8, symBinAddr: 0x100039310, symSize: 0x88 }
  - { offsetInCU: 0x35349, offset: 0x3F9EB, size: 0x8, addend: 0x0, symName: __ZNSt3__16__treeINS_12__value_typeINS_7variantIJidbNS_12basic_stringIcNS_11char_traitsIcEENS_9allocatorIcEEEEEEENS_6vectorIjNS6_IjEEEEEENS_19__map_value_compareIS9_SD_NS_4lessIS9_EELb1EEENS6_ISD_EEE10__end_nodeB7v160006Ev, symObjAddr: 0x28980, symBinAddr: 0x100039398, symSize: 0x104 }
  - { offsetInCU: 0x3536E, offset: 0x3FA10, size: 0x8, addend: 0x0, symName: __ZNSt3__16__treeINS_12__value_typeINS_7variantIJidbNS_12basic_stringIcNS_11char_traitsIcEENS_9allocatorIcEEEEEEENS_6vectorIjNS6_IjEEEEEENS_19__map_value_compareIS9_SD_NS_4lessIS9_EELb1EEENS6_ISD_EEE12__begin_nodeB7v160006Ev, symObjAddr: 0x28A84, symBinAddr: 0x10003949C, symSize: 0xAC }
  - { offsetInCU: 0x35393, offset: 0x3FA35, size: 0x8, addend: 0x0, symName: __ZNSt3__117__compressed_pairINS_15__tree_end_nodeIPNS_16__tree_node_baseIPvEEEENS_9allocatorINS_11__tree_nodeINS_12__value_typeINS_7variantIJidbNS_12basic_stringIcNS_11char_traitsIcEENS7_IcEEEEEEENS_6vectorIjNS7_IjEEEEEES3_EEEEEC2B7v160006ILb1EvEEv, symObjAddr: 0x28B30, symBinAddr: 0x100039548, symSize: 0xEC }
  - { offsetInCU: 0x353C7, offset: 0x3FA69, size: 0x8, addend: 0x0, symName: __ZNSt3__122__compressed_pair_elemINS_15__tree_end_nodeIPNS_16__tree_node_baseIPvEEEELi0ELb0EEC2B7v160006ENS_16__value_init_tagE, symObjAddr: 0x28C1C, symBinAddr: 0x100039634, symSize: 0x78 }
  - { offsetInCU: 0x353FA, offset: 0x3FA9C, size: 0x8, addend: 0x0, symName: __ZNSt3__122__compressed_pair_elemINS_9allocatorINS_11__tree_nodeINS_12__value_typeINS_7variantIJidbNS_12basic_stringIcNS_11char_traitsIcEENS1_IcEEEEEEENS_6vectorIjNS1_IjEEEEEEPvEEEELi1ELb1EEC2B7v160006ENS_16__value_init_tagE, symObjAddr: 0x28C94, symBinAddr: 0x1000396AC, symSize: 0x84 }
  - { offsetInCU: 0x3542D, offset: 0x3FACF, size: 0x8, addend: 0x0, symName: __ZNSt3__115__tree_end_nodeIPNS_16__tree_node_baseIPvEEEC1B7v160006Ev, symObjAddr: 0x28D18, symBinAddr: 0x100039730, symSize: 0x78 }
  - { offsetInCU: 0x35455, offset: 0x3FAF7, size: 0x8, addend: 0x0, symName: __ZNSt3__115__tree_end_nodeIPNS_16__tree_node_baseIPvEEEC2B7v160006Ev, symObjAddr: 0x28D90, symBinAddr: 0x1000397A8, symSize: 0xB8 }
  - { offsetInCU: 0x3547D, offset: 0x3FB1F, size: 0x8, addend: 0x0, symName: __ZNSt3__19allocatorINS_11__tree_nodeINS_12__value_typeINS_7variantIJidbNS_12basic_stringIcNS_11char_traitsIcEENS0_IcEEEEEEENS_6vectorIjNS0_IjEEEEEEPvEEEC2B7v160006Ev, symObjAddr: 0x28E48, symBinAddr: 0x100039860, symSize: 0x84 }
  - { offsetInCU: 0x354A5, offset: 0x3FB47, size: 0x8, addend: 0x0, symName: __ZNSt3__116__non_trivial_ifILb1ENS_9allocatorINS_11__tree_nodeINS_12__value_typeINS_7variantIJidbNS_12basic_stringIcNS_11char_traitsIcEENS1_IcEEEEEEENS_6vectorIjNS1_IjEEEEEEPvEEEEEC2B7v160006Ev, symObjAddr: 0x28ECC, symBinAddr: 0x1000398E4, symSize: 0x54 }
  - { offsetInCU: 0x354CD, offset: 0x3FB6F, size: 0x8, addend: 0x0, symName: __ZNSt3__117__compressed_pairImNS_19__map_value_compareINS_7variantIJidbNS_12basic_stringIcNS_11char_traitsIcEENS_9allocatorIcEEEEEEENS_12__value_typeIS9_NS_6vectorIjNS6_IjEEEEEENS_4lessIS9_EELb1EEEEC2B7v160006IiRKSH_EEOT_OT0_, symObjAddr: 0x28F20, symBinAddr: 0x100039938, symSize: 0x170 }
  - { offsetInCU: 0x35523, offset: 0x3FBC5, size: 0x8, addend: 0x0, symName: __ZNSt3__122__compressed_pair_elemINS_19__map_value_compareINS_7variantIJidbNS_12basic_stringIcNS_11char_traitsIcEENS_9allocatorIcEEEEEEENS_12__value_typeIS9_NS_6vectorIjNS6_IjEEEEEENS_4lessIS9_EELb1EEELi1ELb1EEC2B7v160006IRKSH_vEEOT_, symObjAddr: 0x29090, symBinAddr: 0x100039AA8, symSize: 0x58 }
  - { offsetInCU: 0x35564, offset: 0x3FC06, size: 0x8, addend: 0x0, symName: __ZNSt3__114pointer_traitsIPNS_15__tree_end_nodeIPNS_16__tree_node_baseIPvEEEEE10pointer_toB7v160006ERS6_, symObjAddr: 0x290E8, symBinAddr: 0x100039B00, symSize: 0x14 }
  - { offsetInCU: 0x35587, offset: 0x3FC29, size: 0x8, addend: 0x0, symName: __ZNSt3__117__compressed_pairINS_15__tree_end_nodeIPNS_16__tree_node_baseIPvEEEENS_9allocatorINS_11__tree_nodeINS_12__value_typeINS_7variantIJidbNS_12basic_stringIcNS_11char_traitsIcEENS7_IcEEEEEEENS_6vectorIjNS7_IjEEEEEES3_EEEEE5firstB7v160006Ev, symObjAddr: 0x290FC, symBinAddr: 0x100039B14, symSize: 0x124 }
  - { offsetInCU: 0x355AC, offset: 0x3FC4E, size: 0x8, addend: 0x0, symName: __ZNSt3__122__compressed_pair_elemINS_15__tree_end_nodeIPNS_16__tree_node_baseIPvEEEELi0ELb0EE5__getB7v160006Ev, symObjAddr: 0x29220, symBinAddr: 0x100039C38, symSize: 0xAC }
  - { offsetInCU: 0x355D1, offset: 0x3FC73, size: 0x8, addend: 0x0, symName: __ZNKSt3__16vectorINS_12basic_stringIcNS_11char_traitsIcEENS_9allocatorIcEEEENS4_IS6_EEE4sizeB7v160006Ev, symObjAddr: 0x292CC, symBinAddr: 0x100039CE4, symSize: 0xF8 }
  - { offsetInCU: 0x355F6, offset: 0x3FC98, size: 0x8, addend: 0x0, symName: __ZNSt3__16vectorINS_12basic_stringIcNS_11char_traitsIcEENS_9allocatorIcEEEENS4_IS6_EEE8__appendEm, symObjAddr: 0x293C4, symBinAddr: 0x100039DDC, symSize: 0x4D0 }
  - { offsetInCU: 0x35657, offset: 0x3FCF9, size: 0x8, addend: 0x0, symName: __ZNSt3__16vectorINS_12basic_stringIcNS_11char_traitsIcEENS_9allocatorIcEEEENS4_IS6_EEE17__destruct_at_endB7v160006EPS6_, symObjAddr: 0x29894, symBinAddr: 0x10003A2AC, symSize: 0xB0 }
  - { offsetInCU: 0x3569A, offset: 0x3FD3C, size: 0x8, addend: 0x0, symName: __ZNSt3__16vectorINS_12basic_stringIcNS_11char_traitsIcEENS_9allocatorIcEEEENS4_IS6_EEE9__end_capB7v160006Ev, symObjAddr: 0x29944, symBinAddr: 0x10003A35C, symSize: 0x100 }
  - { offsetInCU: 0x356BF, offset: 0x3FD61, size: 0x8, addend: 0x0, symName: __ZNSt3__16vectorINS_12basic_stringIcNS_11char_traitsIcEENS_9allocatorIcEEEENS4_IS6_EEE18__construct_at_endEm, symObjAddr: 0x29A44, symBinAddr: 0x10003A45C, symSize: 0x5A0 }
  - { offsetInCU: 0x35739, offset: 0x3FDDB, size: 0x8, addend: 0x0, symName: __ZNSt3__16vectorINS_12basic_stringIcNS_11char_traitsIcEENS_9allocatorIcEEEENS4_IS6_EEE7__allocB7v160006Ev, symObjAddr: 0x29FE4, symBinAddr: 0x10003A9FC, symSize: 0xE4 }
  - { offsetInCU: 0x3575E, offset: 0x3FE00, size: 0x8, addend: 0x0, symName: __ZNKSt3__16vectorINS_12basic_stringIcNS_11char_traitsIcEENS_9allocatorIcEEEENS4_IS6_EEE11__recommendB7v160006Em, symObjAddr: 0x2A0C8, symBinAddr: 0x10003AAE0, symSize: 0x45C }
  - { offsetInCU: 0x357B9, offset: 0x3FE5B, size: 0x8, addend: 0x0, symName: __ZNSt3__114__split_bufferINS_12basic_stringIcNS_11char_traitsIcEENS_9allocatorIcEEEERNS4_IS6_EEEC1EmmS8_, symObjAddr: 0x2A524, symBinAddr: 0x10003AF3C, symSize: 0x90 }
  - { offsetInCU: 0x3580E, offset: 0x3FEB0, size: 0x8, addend: 0x0, symName: __ZNSt3__114__split_bufferINS_12basic_stringIcNS_11char_traitsIcEENS_9allocatorIcEEEERNS4_IS6_EEE18__construct_at_endEm, symObjAddr: 0x2A5B4, symBinAddr: 0x10003AFCC, symSize: 0x54C }
  - { offsetInCU: 0x35856, offset: 0x3FEF8, size: 0x8, addend: 0x0, symName: __ZNSt3__114__split_bufferINS_12basic_stringIcNS_11char_traitsIcEENS_9allocatorIcEEEERNS4_IS6_EEED1Ev, symObjAddr: 0x2B364, symBinAddr: 0x10003BD7C, symSize: 0x78 }
  - { offsetInCU: 0x35881, offset: 0x3FF23, size: 0x8, addend: 0x0, symName: __ZNSt3__117__compressed_pairIPNS_12basic_stringIcNS_11char_traitsIcEENS_9allocatorIcEEEENS4_IS6_EEE5firstB7v160006Ev, symObjAddr: 0x2B3DC, symBinAddr: 0x10003BDF4, symSize: 0x124 }
  - { offsetInCU: 0x358A6, offset: 0x3FF48, size: 0x8, addend: 0x0, symName: __ZNSt3__122__compressed_pair_elemIPNS_12basic_stringIcNS_11char_traitsIcEENS_9allocatorIcEEEELi0ELb0EE5__getB7v160006Ev, symObjAddr: 0x2B500, symBinAddr: 0x10003BF18, symSize: 0xAC }
  - { offsetInCU: 0x358E4, offset: 0x3FF86, size: 0x8, addend: 0x0, symName: __ZNSt3__16vectorINS_12basic_stringIcNS_11char_traitsIcEENS_9allocatorIcEEEENS4_IS6_EEE21_ConstructTransactionC1B7v160006ERS8_m, symObjAddr: 0x2B5AC, symBinAddr: 0x10003BFC4, symSize: 0x88 }
  - { offsetInCU: 0x3592A, offset: 0x3FFCC, size: 0x8, addend: 0x0, symName: __ZNSt3__116allocator_traitsINS_9allocatorINS_12basic_stringIcNS_11char_traitsIcEENS1_IcEEEEEEE9constructB7v160006IS6_JEvEEvRS7_PT_DpOT0_, symObjAddr: 0x2B634, symBinAddr: 0x10003C04C, symSize: 0x2C }
  - { offsetInCU: 0x3596E, offset: 0x40010, size: 0x8, addend: 0x0, symName: __ZNSt3__16vectorINS_12basic_stringIcNS_11char_traitsIcEENS_9allocatorIcEEEENS4_IS6_EEE21_ConstructTransactionD1B7v160006Ev, symObjAddr: 0x2B674, symBinAddr: 0x10003C08C, symSize: 0x78 }
  - { offsetInCU: 0x35996, offset: 0x40038, size: 0x8, addend: 0x0, symName: __ZNSt3__16vectorINS_12basic_stringIcNS_11char_traitsIcEENS_9allocatorIcEEEENS4_IS6_EEE21_ConstructTransactionC2B7v160006ERS8_m, symObjAddr: 0x2B6EC, symBinAddr: 0x10003C104, symSize: 0x3E0 }
  - { offsetInCU: 0x359DC, offset: 0x4007E, size: 0x8, addend: 0x0, symName: __ZNKSt3__16vectorINS_12basic_stringIcNS_11char_traitsIcEENS_9allocatorIcEEEENS4_IS6_EEE19__annotate_increaseB7v160006Em, symObjAddr: 0x2BACC, symBinAddr: 0x10003C4E4, symSize: 0x46C }
  - { offsetInCU: 0x35A10, offset: 0x400B2, size: 0x8, addend: 0x0, symName: __ZNKSt3__16vectorINS_12basic_stringIcNS_11char_traitsIcEENS_9allocatorIcEEEENS4_IS6_EEE31__annotate_contiguous_containerEPKvSA_SA_SA_, symObjAddr: 0x2BF38, symBinAddr: 0x10003C950, symSize: 0x9C }
  - { offsetInCU: 0x35A71, offset: 0x40113, size: 0x8, addend: 0x0, symName: __ZNKSt3__16vectorINS_12basic_stringIcNS_11char_traitsIcEENS_9allocatorIcEEEENS4_IS6_EEE4dataB7v160006Ev, symObjAddr: 0x2BFD4, symBinAddr: 0x10003C9EC, symSize: 0xB0 }
  - { offsetInCU: 0x35A96, offset: 0x40138, size: 0x8, addend: 0x0, symName: __ZNKSt3__16vectorINS_12basic_stringIcNS_11char_traitsIcEENS_9allocatorIcEEEENS4_IS6_EEE8capacityB7v160006Ev, symObjAddr: 0x2C084, symBinAddr: 0x10003CA9C, symSize: 0x144 }
  - { offsetInCU: 0x35ABB, offset: 0x4015D, size: 0x8, addend: 0x0, symName: __ZNKSt3__16vectorINS_12basic_stringIcNS_11char_traitsIcEENS_9allocatorIcEEEENS4_IS6_EEE9__end_capB7v160006Ev, symObjAddr: 0x2C1C8, symBinAddr: 0x10003CBE0, symSize: 0x100 }
  - { offsetInCU: 0x35AE0, offset: 0x40182, size: 0x8, addend: 0x0, symName: __ZNKSt3__117__compressed_pairIPNS_12basic_stringIcNS_11char_traitsIcEENS_9allocatorIcEEEENS4_IS6_EEE5firstB7v160006Ev, symObjAddr: 0x2C2C8, symBinAddr: 0x10003CCE0, symSize: 0x124 }
  - { offsetInCU: 0x35B05, offset: 0x401A7, size: 0x8, addend: 0x0, symName: __ZNKSt3__122__compressed_pair_elemIPNS_12basic_stringIcNS_11char_traitsIcEENS_9allocatorIcEEEELi0ELb0EE5__getB7v160006Ev, symObjAddr: 0x2C3EC, symBinAddr: 0x10003CE04, symSize: 0xAC }
  - { offsetInCU: 0x35B2A, offset: 0x401CC, size: 0x8, addend: 0x0, symName: __ZNSt3__19allocatorINS_12basic_stringIcNS_11char_traitsIcEENS0_IcEEEEE9constructB7v160006IS5_JEEEvPT_DpOT0_, symObjAddr: 0x2C498, symBinAddr: 0x10003CEB0, symSize: 0x9C }
  - { offsetInCU: 0x35B6C, offset: 0x4020E, size: 0x8, addend: 0x0, symName: __ZNSt3__16vectorINS_12basic_stringIcNS_11char_traitsIcEENS_9allocatorIcEEEENS4_IS6_EEE21_ConstructTransactionD2B7v160006Ev, symObjAddr: 0x2C534, symBinAddr: 0x10003CF4C, symSize: 0x390 }
  - { offsetInCU: 0x35B94, offset: 0x40236, size: 0x8, addend: 0x0, symName: __ZNKSt3__16vectorINS_12basic_stringIcNS_11char_traitsIcEENS_9allocatorIcEEEENS4_IS6_EEE17__annotate_shrinkB7v160006Em, symObjAddr: 0x2C8C4, symBinAddr: 0x10003D2DC, symSize: 0x378 }
  - { offsetInCU: 0x35BC8, offset: 0x4026A, size: 0x8, addend: 0x0, symName: __ZNSt3__117__compressed_pairIPNS_12basic_stringIcNS_11char_traitsIcEENS_9allocatorIcEEEENS4_IS6_EEE6secondB7v160006Ev, symObjAddr: 0x2CC3C, symBinAddr: 0x10003D654, symSize: 0x108 }
  - { offsetInCU: 0x35BED, offset: 0x4028F, size: 0x8, addend: 0x0, symName: __ZNSt3__122__compressed_pair_elemINS_9allocatorINS_12basic_stringIcNS_11char_traitsIcEENS1_IcEEEEEELi1ELb1EE5__getB7v160006Ev, symObjAddr: 0x2CD44, symBinAddr: 0x10003D75C, symSize: 0x74 }
  - { offsetInCU: 0x35C12, offset: 0x402B4, size: 0x8, addend: 0x0, symName: __ZNKSt3__16vectorINS_12basic_stringIcNS_11char_traitsIcEENS_9allocatorIcEEEENS4_IS6_EEE8max_sizeEv, symObjAddr: 0x2CDB8, symBinAddr: 0x10003D7D0, symSize: 0x3B8 }
  - { offsetInCU: 0x35C3A, offset: 0x402DC, size: 0x8, addend: 0x0, symName: __ZNKSt3__16vectorINS_12basic_stringIcNS_11char_traitsIcEENS_9allocatorIcEEEENS4_IS6_EEE20__throw_length_errorB7v160006Ev, symObjAddr: 0x2D170, symBinAddr: 0x10003DB88, symSize: 0x80 }
  - { offsetInCU: 0x35C69, offset: 0x4030B, size: 0x8, addend: 0x0, symName: __ZNSt3__116allocator_traitsINS_9allocatorINS_12basic_stringIcNS_11char_traitsIcEENS1_IcEEEEEEE8max_sizeB7v160006IS7_vEEmRKS7_, symObjAddr: 0x2D3F8, symBinAddr: 0x10003DD0C, symSize: 0x24 }
  - { offsetInCU: 0x35C98, offset: 0x4033A, size: 0x8, addend: 0x0, symName: __ZNKSt3__16vectorINS_12basic_stringIcNS_11char_traitsIcEENS_9allocatorIcEEEENS4_IS6_EEE7__allocB7v160006Ev, symObjAddr: 0x2D41C, symBinAddr: 0x10003DD30, symSize: 0xE4 }
  - { offsetInCU: 0x35CBD, offset: 0x4035F, size: 0x8, addend: 0x0, symName: __ZNKSt3__19allocatorINS_12basic_stringIcNS_11char_traitsIcEENS0_IcEEEEE8max_sizeB7v160006Ev, symObjAddr: 0x2D8AC, symBinAddr: 0x10003DE14, symSize: 0x50 }
  - { offsetInCU: 0x35CE2, offset: 0x40384, size: 0x8, addend: 0x0, symName: __ZNKSt3__117__compressed_pairIPNS_12basic_stringIcNS_11char_traitsIcEENS_9allocatorIcEEEENS4_IS6_EEE6secondB7v160006Ev, symObjAddr: 0x2D8FC, symBinAddr: 0x10003DE64, symSize: 0x108 }
  - { offsetInCU: 0x35D07, offset: 0x403A9, size: 0x8, addend: 0x0, symName: __ZNKSt3__122__compressed_pair_elemINS_9allocatorINS_12basic_stringIcNS_11char_traitsIcEENS1_IcEEEEEELi1ELb1EE5__getB7v160006Ev, symObjAddr: 0x2DA04, symBinAddr: 0x10003DF6C, symSize: 0x74 }
  - { offsetInCU: 0x35D2C, offset: 0x403CE, size: 0x8, addend: 0x0, symName: __ZNSt12length_errorC1B7v160006EPKc, symObjAddr: 0x2DB2C, symBinAddr: 0x10003E094, symSize: 0x80 }
  - { offsetInCU: 0x35D62, offset: 0x40404, size: 0x8, addend: 0x0, symName: __ZNSt12length_errorC2B7v160006EPKc, symObjAddr: 0x2DBAC, symBinAddr: 0x10003E114, symSize: 0x128 }
  - { offsetInCU: 0x35D98, offset: 0x4043A, size: 0x8, addend: 0x0, symName: __ZNSt3__114__split_bufferINS_12basic_stringIcNS_11char_traitsIcEENS_9allocatorIcEEEERNS4_IS6_EEEC2EmmS8_, symObjAddr: 0x2DF94, symBinAddr: 0x10003E4FC, symSize: 0x7E8 }
  - { offsetInCU: 0x35E13, offset: 0x404B5, size: 0x8, addend: 0x0, symName: __ZNSt3__117__compressed_pairIPNS_12basic_stringIcNS_11char_traitsIcEENS_9allocatorIcEEEERNS4_IS6_EEEC1B7v160006IDnS9_EEOT_OT0_, symObjAddr: 0x2E77C, symBinAddr: 0x10003ECE4, symSize: 0x88 }
  - { offsetInCU: 0x35E69, offset: 0x4050B, size: 0x8, addend: 0x0, symName: __ZNSt3__114__split_bufferINS_12basic_stringIcNS_11char_traitsIcEENS_9allocatorIcEEEERNS4_IS6_EEE7__allocB7v160006Ev, symObjAddr: 0x2EA90, symBinAddr: 0x10003EFF8, symSize: 0xE4 }
  - { offsetInCU: 0x35E8E, offset: 0x40530, size: 0x8, addend: 0x0, symName: __ZNSt3__114__split_bufferINS_12basic_stringIcNS_11char_traitsIcEENS_9allocatorIcEEEERNS4_IS6_EEE9__end_capB7v160006Ev, symObjAddr: 0x2EB74, symBinAddr: 0x10003F0DC, symSize: 0x100 }
  - { offsetInCU: 0x35EB3, offset: 0x40555, size: 0x8, addend: 0x0, symName: __ZNSt3__117__compressed_pairIPNS_12basic_stringIcNS_11char_traitsIcEENS_9allocatorIcEEEERNS4_IS6_EEEC2B7v160006IDnS9_EEOT_OT0_, symObjAddr: 0x2EC74, symBinAddr: 0x10003F1DC, symSize: 0x198 }
  - { offsetInCU: 0x35F09, offset: 0x405AB, size: 0x8, addend: 0x0, symName: __ZNSt3__122__compressed_pair_elemIRNS_9allocatorINS_12basic_stringIcNS_11char_traitsIcEENS1_IcEEEEEELi1ELb0EEC2B7v160006IS8_vEEOT_, symObjAddr: 0x2EE0C, symBinAddr: 0x10003F374, symSize: 0xEC }
  - { offsetInCU: 0x35F4A, offset: 0x405EC, size: 0x8, addend: 0x0, symName: __ZNSt3__19allocatorINS_12basic_stringIcNS_11char_traitsIcEENS0_IcEEEEE8allocateB7v160006Em, symObjAddr: 0x2EEF8, symBinAddr: 0x10003F460, symSize: 0xD0 }
  - { offsetInCU: 0x35F7D, offset: 0x4061F, size: 0x8, addend: 0x0, symName: __ZNSt3__117__compressed_pairIPNS_12basic_stringIcNS_11char_traitsIcEENS_9allocatorIcEEEERNS4_IS6_EEE6secondB7v160006Ev, symObjAddr: 0x2F154, symBinAddr: 0x10003F6BC, symSize: 0x110 }
  - { offsetInCU: 0x35FA2, offset: 0x40644, size: 0x8, addend: 0x0, symName: __ZNSt3__122__compressed_pair_elemIRNS_9allocatorINS_12basic_stringIcNS_11char_traitsIcEENS1_IcEEEEEELi1ELb0EE5__getB7v160006Ev, symObjAddr: 0x2F264, symBinAddr: 0x10003F7CC, symSize: 0xD8 }
  - { offsetInCU: 0x35FC7, offset: 0x40669, size: 0x8, addend: 0x0, symName: __ZNSt3__117__compressed_pairIPNS_12basic_stringIcNS_11char_traitsIcEENS_9allocatorIcEEEERNS4_IS6_EEE5firstB7v160006Ev, symObjAddr: 0x2F33C, symBinAddr: 0x10003F8A4, symSize: 0x124 }
  - { offsetInCU: 0x35FF6, offset: 0x40698, size: 0x8, addend: 0x0, symName: __ZNSt3__114__split_bufferINS_12basic_stringIcNS_11char_traitsIcEENS_9allocatorIcEEEERNS4_IS6_EEE21_ConstructTransactionC1B7v160006EPPS6_m, symObjAddr: 0x2F460, symBinAddr: 0x10003F9C8, symSize: 0x88 }
  - { offsetInCU: 0x3603A, offset: 0x406DC, size: 0x8, addend: 0x0, symName: __ZNSt3__114__split_bufferINS_12basic_stringIcNS_11char_traitsIcEENS_9allocatorIcEEEERNS4_IS6_EEE21_ConstructTransactionD1B7v160006Ev, symObjAddr: 0x2F4E8, symBinAddr: 0x10003FA50, symSize: 0x78 }
  - { offsetInCU: 0x36062, offset: 0x40704, size: 0x8, addend: 0x0, symName: __ZNSt3__114__split_bufferINS_12basic_stringIcNS_11char_traitsIcEENS_9allocatorIcEEEERNS4_IS6_EEE21_ConstructTransactionC2B7v160006EPPS6_m, symObjAddr: 0x2F560, symBinAddr: 0x10003FAC8, symSize: 0x32C }
  - { offsetInCU: 0x360A6, offset: 0x40748, size: 0x8, addend: 0x0, symName: __ZNSt3__114__split_bufferINS_12basic_stringIcNS_11char_traitsIcEENS_9allocatorIcEEEERNS4_IS6_EEE21_ConstructTransactionD2B7v160006Ev, symObjAddr: 0x2F88C, symBinAddr: 0x10003FDF4, symSize: 0x174 }
  - { offsetInCU: 0x360CE, offset: 0x40770, size: 0x8, addend: 0x0, symName: __ZNKSt3__16vectorINS_12basic_stringIcNS_11char_traitsIcEENS_9allocatorIcEEEENS4_IS6_EEE17__annotate_deleteB7v160006Ev, symObjAddr: 0x2FA00, symBinAddr: 0x10003FF68, symSize: 0x388 }
  - { offsetInCU: 0x360F3, offset: 0x40795, size: 0x8, addend: 0x0, symName: __ZNSt3__116reverse_iteratorIPNS_12basic_stringIcNS_11char_traitsIcEENS_9allocatorIcEEEEEC1B7v160006ES7_, symObjAddr: 0x30360, symBinAddr: 0x1000408C8, symSize: 0x80 }
  - { offsetInCU: 0x36129, offset: 0x407CB, size: 0x8, addend: 0x0, symName: __ZNKSt3__116reverse_iteratorIPNS_12basic_stringIcNS_11char_traitsIcEENS_9allocatorIcEEEEE4baseB7v160006Ev, symObjAddr: 0x303E0, symBinAddr: 0x100040948, symSize: 0xB0 }
  - { offsetInCU: 0x3614E, offset: 0x407F0, size: 0x8, addend: 0x0, symName: __ZNKSt3__16vectorINS_12basic_stringIcNS_11char_traitsIcEENS_9allocatorIcEEEENS4_IS6_EEE14__annotate_newB7v160006Em, symObjAddr: 0x30650, symBinAddr: 0x100040BB8, symSize: 0x378 }
  - { offsetInCU: 0x36182, offset: 0x40824, size: 0x8, addend: 0x0, symName: __ZNSt3__129_AllocatorDestroyRangeReverseINS_9allocatorINS_12basic_stringIcNS_11char_traitsIcEENS1_IcEEEEEENS_16reverse_iteratorIPS6_EEEC1B7v160006ERS7_RSA_SD_, symObjAddr: 0x30C14, symBinAddr: 0x10004117C, symSize: 0x90 }
  - { offsetInCU: 0x361DC, offset: 0x4087E, size: 0x8, addend: 0x0, symName: __ZNSt3__116allocator_traitsINS_9allocatorINS_12basic_stringIcNS_11char_traitsIcEENS1_IcEEEEEEE9constructB7v160006IS6_JS6_EvEEvRS7_PT_DpOT0_, symObjAddr: 0x30D40, symBinAddr: 0x1000412A8, symSize: 0x8C }
  - { offsetInCU: 0x36235, offset: 0x408D7, size: 0x8, addend: 0x0, symName: __ZNKSt3__116reverse_iteratorIPNS_12basic_stringIcNS_11char_traitsIcEENS_9allocatorIcEEEEEdeB7v160006Ev, symObjAddr: 0x30E38, symBinAddr: 0x1000413A0, symSize: 0x184 }
  - { offsetInCU: 0x36268, offset: 0x4090A, size: 0x8, addend: 0x0, symName: __ZNSt3__116reverse_iteratorIPNS_12basic_stringIcNS_11char_traitsIcEENS_9allocatorIcEEEEEppB7v160006Ev, symObjAddr: 0x30FBC, symBinAddr: 0x100041524, symSize: 0x1B0 }
  - { offsetInCU: 0x3628D, offset: 0x4092F, size: 0x8, addend: 0x0, symName: __ZNSt3__128__exception_guard_exceptionsINS_29_AllocatorDestroyRangeReverseINS_9allocatorINS_12basic_stringIcNS_11char_traitsIcEENS2_IcEEEEEENS_16reverse_iteratorIPS7_EEEEE10__completeB7v160006Ev, symObjAddr: 0x3116C, symBinAddr: 0x1000416D4, symSize: 0xD8 }
  - { offsetInCU: 0x362B2, offset: 0x40954, size: 0x8, addend: 0x0, symName: __ZNSt3__128__exception_guard_exceptionsINS_29_AllocatorDestroyRangeReverseINS_9allocatorINS_12basic_stringIcNS_11char_traitsIcEENS2_IcEEEEEENS_16reverse_iteratorIPS7_EEEEED1B7v160006Ev, symObjAddr: 0x31244, symBinAddr: 0x1000417AC, symSize: 0x78 }
  - { offsetInCU: 0x362DA, offset: 0x4097C, size: 0x8, addend: 0x0, symName: __ZNSt3__128__exception_guard_exceptionsINS_29_AllocatorDestroyRangeReverseINS_9allocatorINS_12basic_stringIcNS_11char_traitsIcEENS2_IcEEEEEENS_16reverse_iteratorIPS7_EEEEEC1B7v160006ESC_, symObjAddr: 0x312BC, symBinAddr: 0x100041824, symSize: 0x84 }
  - { offsetInCU: 0x36311, offset: 0x409B3, size: 0x8, addend: 0x0, symName: __ZNSt3__128__exception_guard_exceptionsINS_29_AllocatorDestroyRangeReverseINS_9allocatorINS_12basic_stringIcNS_11char_traitsIcEENS2_IcEEEEEENS_16reverse_iteratorIPS7_EEEEEC2B7v160006ESC_, symObjAddr: 0x31340, symBinAddr: 0x1000418A8, symSize: 0xF8 }
  - { offsetInCU: 0x36348, offset: 0x409EA, size: 0x8, addend: 0x0, symName: __ZNSt3__129_AllocatorDestroyRangeReverseINS_9allocatorINS_12basic_stringIcNS_11char_traitsIcEENS1_IcEEEEEENS_16reverse_iteratorIPS6_EEEC2B7v160006ERS7_RSA_SD_, symObjAddr: 0x31438, symBinAddr: 0x1000419A0, symSize: 0x20C }
  - { offsetInCU: 0x3639D, offset: 0x40A3F, size: 0x8, addend: 0x0, symName: __ZNSt3__19allocatorINS_12basic_stringIcNS_11char_traitsIcEENS0_IcEEEEE9constructB7v160006IS5_JS5_EEEvPT_DpOT0_, symObjAddr: 0x31644, symBinAddr: 0x100041BAC, symSize: 0xEC }
  - { offsetInCU: 0x363F8, offset: 0x40A9A, size: 0x8, addend: 0x0, symName: __ZNSt3__119__to_address_helperINS_16reverse_iteratorIPNS_12basic_stringIcNS_11char_traitsIcEENS_9allocatorIcEEEEEEvE6__callB7v160006ERKS9_, symObjAddr: 0x318B8, symBinAddr: 0x100041C98, symSize: 0x70 }
  - { offsetInCU: 0x3641B, offset: 0x40ABD, size: 0x8, addend: 0x0, symName: __ZNKSt3__116reverse_iteratorIPNS_12basic_stringIcNS_11char_traitsIcEENS_9allocatorIcEEEEEptB7v160006Ev, symObjAddr: 0x31928, symBinAddr: 0x100041D08, symSize: 0x6C }
  - { offsetInCU: 0x36440, offset: 0x40AE2, size: 0x8, addend: 0x0, symName: __ZNSt3__128__exception_guard_exceptionsINS_29_AllocatorDestroyRangeReverseINS_9allocatorINS_12basic_stringIcNS_11char_traitsIcEENS2_IcEEEEEENS_16reverse_iteratorIPS7_EEEEED2B7v160006Ev, symObjAddr: 0x31994, symBinAddr: 0x100041D74, symSize: 0x17C }
  - { offsetInCU: 0x36468, offset: 0x40B0A, size: 0x8, addend: 0x0, symName: __ZNKSt3__129_AllocatorDestroyRangeReverseINS_9allocatorINS_12basic_stringIcNS_11char_traitsIcEENS1_IcEEEEEENS_16reverse_iteratorIPS6_EEEclB7v160006Ev, symObjAddr: 0x31B10, symBinAddr: 0x100041EF0, symSize: 0x418 }
  - { offsetInCU: 0x3648E, offset: 0x40B30, size: 0x8, addend: 0x0, symName: __ZNSt3__116reverse_iteratorINS0_IPNS_12basic_stringIcNS_11char_traitsIcEENS_9allocatorIcEEEEEEEC1B7v160006ES8_, symObjAddr: 0x320CC, symBinAddr: 0x1000424AC, symSize: 0x29C }
  - { offsetInCU: 0x364C9, offset: 0x40B6B, size: 0x8, addend: 0x0, symName: __ZNSt3__116allocator_traitsINS_9allocatorINS_12basic_stringIcNS_11char_traitsIcEENS1_IcEEEEEEE7destroyB7v160006IS6_vEEvRS7_PT_, symObjAddr: 0x3268C, symBinAddr: 0x100042A6C, symSize: 0x2C }
  - { offsetInCU: 0x36507, offset: 0x40BA9, size: 0x8, addend: 0x0, symName: __ZNSt3__116reverse_iteratorINS0_IPNS_12basic_stringIcNS_11char_traitsIcEENS_9allocatorIcEEEEEEEppB7v160006Ev, symObjAddr: 0x32724, symBinAddr: 0x100042B04, symSize: 0x100 }
  - { offsetInCU: 0x3652C, offset: 0x40BCE, size: 0x8, addend: 0x0, symName: __ZNKSt3__116reverse_iteratorINS0_IPNS_12basic_stringIcNS_11char_traitsIcEENS_9allocatorIcEEEEEEE4baseB7v160006Ev, symObjAddr: 0x32824, symBinAddr: 0x100042C04, symSize: 0x258 }
  - { offsetInCU: 0x36552, offset: 0x40BF4, size: 0x8, addend: 0x0, symName: __ZNSt3__19allocatorINS_12basic_stringIcNS_11char_traitsIcEENS0_IcEEEEE7destroyB7v160006EPS5_, symObjAddr: 0x32A7C, symBinAddr: 0x100042E5C, symSize: 0x9C }
  - { offsetInCU: 0x3658A, offset: 0x40C2C, size: 0x8, addend: 0x0, symName: __ZNSt3__119__to_address_helperINS_16reverse_iteratorINS1_IPNS_12basic_stringIcNS_11char_traitsIcEENS_9allocatorIcEEEEEEEEvE6__callB7v160006ERKSA_, symObjAddr: 0x32B18, symBinAddr: 0x100042EF8, symSize: 0x70 }
  - { offsetInCU: 0x365AD, offset: 0x40C4F, size: 0x8, addend: 0x0, symName: __ZNKSt3__116reverse_iteratorINS0_IPNS_12basic_stringIcNS_11char_traitsIcEENS_9allocatorIcEEEEEEEptB7v160006Ev, symObjAddr: 0x32B88, symBinAddr: 0x100042F68, symSize: 0x6C }
  - { offsetInCU: 0x365D2, offset: 0x40C74, size: 0x8, addend: 0x0, symName: __ZNKSt3__116reverse_iteratorINS0_IPNS_12basic_stringIcNS_11char_traitsIcEENS_9allocatorIcEEEEEEEdeB7v160006Ev, symObjAddr: 0x32BF4, symBinAddr: 0x100042FD4, symSize: 0x2C4 }
  - { offsetInCU: 0x3660A, offset: 0x40CAC, size: 0x8, addend: 0x0, symName: __ZNSt3__116reverse_iteratorIPNS_12basic_stringIcNS_11char_traitsIcEENS_9allocatorIcEEEEEmmB7v160006Ev, symObjAddr: 0x32EB8, symBinAddr: 0x100043298, symSize: 0x1B0 }
  - { offsetInCU: 0x3662F, offset: 0x40CD1, size: 0x8, addend: 0x0, symName: __ZNSt3__116reverse_iteratorINS0_IPNS_12basic_stringIcNS_11char_traitsIcEENS_9allocatorIcEEEEEEEC2B7v160006ES8_, symObjAddr: 0x33068, symBinAddr: 0x100043448, symSize: 0x284 }
  - { offsetInCU: 0x3666A, offset: 0x40D0C, size: 0x8, addend: 0x0, symName: __ZNSt3__116reverse_iteratorIPNS_12basic_stringIcNS_11char_traitsIcEENS_9allocatorIcEEEEEC2B7v160006ES7_, symObjAddr: 0x332EC, symBinAddr: 0x1000436CC, symSize: 0x10C }
  - { offsetInCU: 0x366A0, offset: 0x40D42, size: 0x8, addend: 0x0, symName: __ZNSt3__114__split_bufferINS_12basic_stringIcNS_11char_traitsIcEENS_9allocatorIcEEEERNS4_IS6_EEED2Ev, symObjAddr: 0x333F8, symBinAddr: 0x1000437D8, symSize: 0x16C }
  - { offsetInCU: 0x366CB, offset: 0x40D6D, size: 0x8, addend: 0x0, symName: __ZNSt3__114__split_bufferINS_12basic_stringIcNS_11char_traitsIcEENS_9allocatorIcEEEERNS4_IS6_EEE5clearB7v160006Ev, symObjAddr: 0x33564, symBinAddr: 0x100043944, symSize: 0xB4 }
  - { offsetInCU: 0x366F0, offset: 0x40D92, size: 0x8, addend: 0x0, symName: __ZNSt3__116allocator_traitsINS_9allocatorINS_12basic_stringIcNS_11char_traitsIcEENS1_IcEEEEEEE10deallocateB7v160006ERS7_PS6_m, symObjAddr: 0x33618, symBinAddr: 0x1000439F8, symSize: 0x34 }
  - { offsetInCU: 0x36732, offset: 0x40DD4, size: 0x8, addend: 0x0, symName: __ZNKSt3__114__split_bufferINS_12basic_stringIcNS_11char_traitsIcEENS_9allocatorIcEEEERNS4_IS6_EEE8capacityB7v160006Ev, symObjAddr: 0x3364C, symBinAddr: 0x100043A2C, symSize: 0x144 }
  - { offsetInCU: 0x36757, offset: 0x40DF9, size: 0x8, addend: 0x0, symName: __ZNSt3__114__split_bufferINS_12basic_stringIcNS_11char_traitsIcEENS_9allocatorIcEEEERNS4_IS6_EEE17__destruct_at_endB7v160006EPS6_, symObjAddr: 0x33790, symBinAddr: 0x100043B70, symSize: 0x74 }
  - { offsetInCU: 0x3678A, offset: 0x40E2C, size: 0x8, addend: 0x0, symName: __ZNSt3__114__split_bufferINS_12basic_stringIcNS_11char_traitsIcEENS_9allocatorIcEEEERNS4_IS6_EEE17__destruct_at_endB7v160006EPS6_NS_17integral_constantIbLb0EEE, symObjAddr: 0x33804, symBinAddr: 0x100043BE4, symSize: 0x224 }
  - { offsetInCU: 0x367CA, offset: 0x40E6C, size: 0x8, addend: 0x0, symName: __ZNSt3__19allocatorINS_12basic_stringIcNS_11char_traitsIcEENS0_IcEEEEE10deallocateB7v160006EPS5_m, symObjAddr: 0x33A28, symBinAddr: 0x100043E08, symSize: 0x7C }
  - { offsetInCU: 0x3680B, offset: 0x40EAD, size: 0x8, addend: 0x0, symName: __ZNKSt3__114__split_bufferINS_12basic_stringIcNS_11char_traitsIcEENS_9allocatorIcEEEERNS4_IS6_EEE9__end_capB7v160006Ev, symObjAddr: 0x33BAC, symBinAddr: 0x100043F8C, symSize: 0x100 }
  - { offsetInCU: 0x36830, offset: 0x40ED2, size: 0x8, addend: 0x0, symName: __ZNKSt3__117__compressed_pairIPNS_12basic_stringIcNS_11char_traitsIcEENS_9allocatorIcEEEERNS4_IS6_EEE5firstB7v160006Ev, symObjAddr: 0x33CAC, symBinAddr: 0x10004408C, symSize: 0x124 }
  - { offsetInCU: 0x36855, offset: 0x40EF7, size: 0x8, addend: 0x0, symName: __ZNSt3__16vectorINS_12basic_stringIcNS_11char_traitsIcEENS_9allocatorIcEEEENS4_IS6_EEE27__invalidate_iterators_pastB7v160006EPS6_, symObjAddr: 0x33DD0, symBinAddr: 0x1000441B0, symSize: 0x64 }
  - { offsetInCU: 0x3688B, offset: 0x40F2D, size: 0x8, addend: 0x0, symName: __ZNSt3__16vectorINS_12basic_stringIcNS_11char_traitsIcEENS_9allocatorIcEEEENS4_IS6_EEE22__base_destruct_at_endB7v160006EPS6_, symObjAddr: 0x33E34, symBinAddr: 0x100044214, symSize: 0x1FC }
  - { offsetInCU: 0x368CE, offset: 0x40F70, size: 0x8, addend: 0x0, symName: __ZNKSt3__16vectorI10ColumnTypeNS_9allocatorIS1_EEE4sizeB7v160006Ev, symObjAddr: 0x34030, symBinAddr: 0x100044410, symSize: 0xF0 }
  - { offsetInCU: 0x368F3, offset: 0x40F95, size: 0x8, addend: 0x0, symName: __ZNSt3__16vectorI10ColumnTypeNS_9allocatorIS1_EEE8__appendEm, symObjAddr: 0x34120, symBinAddr: 0x100044500, symSize: 0x4C8 }
  - { offsetInCU: 0x36954, offset: 0x40FF6, size: 0x8, addend: 0x0, symName: __ZNSt3__16vectorI10ColumnTypeNS_9allocatorIS1_EEE17__destruct_at_endB7v160006EPS1_, symObjAddr: 0x345E8, symBinAddr: 0x1000449C8, symSize: 0xB0 }
  - { offsetInCU: 0x36997, offset: 0x41039, size: 0x8, addend: 0x0, symName: __ZNSt3__16vectorI10ColumnTypeNS_9allocatorIS1_EEE9__end_capB7v160006Ev, symObjAddr: 0x34698, symBinAddr: 0x100044A78, symSize: 0x100 }
  - { offsetInCU: 0x369BC, offset: 0x4105E, size: 0x8, addend: 0x0, symName: __ZNSt3__16vectorI10ColumnTypeNS_9allocatorIS1_EEE18__construct_at_endEm, symObjAddr: 0x34798, symBinAddr: 0x100044B78, symSize: 0x5A0 }
  - { offsetInCU: 0x36A36, offset: 0x410D8, size: 0x8, addend: 0x0, symName: __ZNSt3__16vectorI10ColumnTypeNS_9allocatorIS1_EEE7__allocB7v160006Ev, symObjAddr: 0x34D38, symBinAddr: 0x100045118, symSize: 0xE4 }
  - { offsetInCU: 0x36A5B, offset: 0x410FD, size: 0x8, addend: 0x0, symName: __ZNKSt3__16vectorI10ColumnTypeNS_9allocatorIS1_EEE11__recommendB7v160006Em, symObjAddr: 0x34E1C, symBinAddr: 0x1000451FC, symSize: 0x45C }
  - { offsetInCU: 0x36AB6, offset: 0x41158, size: 0x8, addend: 0x0, symName: __ZNSt3__114__split_bufferI10ColumnTypeRNS_9allocatorIS1_EEEC1EmmS4_, symObjAddr: 0x35278, symBinAddr: 0x100045658, symSize: 0x90 }
  - { offsetInCU: 0x36B0B, offset: 0x411AD, size: 0x8, addend: 0x0, symName: __ZNSt3__114__split_bufferI10ColumnTypeRNS_9allocatorIS1_EEE18__construct_at_endEm, symObjAddr: 0x35308, symBinAddr: 0x1000456E8, symSize: 0x54C }
  - { offsetInCU: 0x36B53, offset: 0x411F5, size: 0x8, addend: 0x0, symName: __ZNSt3__114__split_bufferI10ColumnTypeRNS_9allocatorIS1_EEED1Ev, symObjAddr: 0x360B8, symBinAddr: 0x100046498, symSize: 0x78 }
  - { offsetInCU: 0x36B7E, offset: 0x41220, size: 0x8, addend: 0x0, symName: __ZNSt3__117__compressed_pairIP10ColumnTypeNS_9allocatorIS1_EEE5firstB7v160006Ev, symObjAddr: 0x36130, symBinAddr: 0x100046510, symSize: 0x124 }
  - { offsetInCU: 0x36BA3, offset: 0x41245, size: 0x8, addend: 0x0, symName: __ZNSt3__122__compressed_pair_elemIP10ColumnTypeLi0ELb0EE5__getB7v160006Ev, symObjAddr: 0x36254, symBinAddr: 0x100046634, symSize: 0xAC }
  - { offsetInCU: 0x36BE1, offset: 0x41283, size: 0x8, addend: 0x0, symName: __ZNSt3__16vectorI10ColumnTypeNS_9allocatorIS1_EEE21_ConstructTransactionC1B7v160006ERS4_m, symObjAddr: 0x36300, symBinAddr: 0x1000466E0, symSize: 0x88 }
  - { offsetInCU: 0x36C27, offset: 0x412C9, size: 0x8, addend: 0x0, symName: __ZNSt3__116allocator_traitsINS_9allocatorI10ColumnTypeEEE9constructB7v160006IS2_JEvEEvRS3_PT_DpOT0_, symObjAddr: 0x36388, symBinAddr: 0x100046768, symSize: 0x2C }
  - { offsetInCU: 0x36C6B, offset: 0x4130D, size: 0x8, addend: 0x0, symName: __ZNSt3__16vectorI10ColumnTypeNS_9allocatorIS1_EEE21_ConstructTransactionD1B7v160006Ev, symObjAddr: 0x363C8, symBinAddr: 0x1000467A8, symSize: 0x78 }
  - { offsetInCU: 0x36C93, offset: 0x41335, size: 0x8, addend: 0x0, symName: __ZNSt3__16vectorI10ColumnTypeNS_9allocatorIS1_EEE21_ConstructTransactionC2B7v160006ERS4_m, symObjAddr: 0x36440, symBinAddr: 0x100046820, symSize: 0x3D8 }
  - { offsetInCU: 0x36CD9, offset: 0x4137B, size: 0x8, addend: 0x0, symName: __ZNKSt3__16vectorI10ColumnTypeNS_9allocatorIS1_EEE19__annotate_increaseB7v160006Em, symObjAddr: 0x36818, symBinAddr: 0x100046BF8, symSize: 0x44C }
  - { offsetInCU: 0x36D0D, offset: 0x413AF, size: 0x8, addend: 0x0, symName: __ZNKSt3__16vectorI10ColumnTypeNS_9allocatorIS1_EEE31__annotate_contiguous_containerEPKvS6_S6_S6_, symObjAddr: 0x36C64, symBinAddr: 0x100047044, symSize: 0x9C }
  - { offsetInCU: 0x36D6E, offset: 0x41410, size: 0x8, addend: 0x0, symName: __ZNKSt3__16vectorI10ColumnTypeNS_9allocatorIS1_EEE4dataB7v160006Ev, symObjAddr: 0x36D00, symBinAddr: 0x1000470E0, symSize: 0xB0 }
  - { offsetInCU: 0x36D93, offset: 0x41435, size: 0x8, addend: 0x0, symName: __ZNKSt3__16vectorI10ColumnTypeNS_9allocatorIS1_EEE8capacityB7v160006Ev, symObjAddr: 0x36DB0, symBinAddr: 0x100047190, symSize: 0x13C }
  - { offsetInCU: 0x36DB8, offset: 0x4145A, size: 0x8, addend: 0x0, symName: __ZNKSt3__16vectorI10ColumnTypeNS_9allocatorIS1_EEE9__end_capB7v160006Ev, symObjAddr: 0x36EEC, symBinAddr: 0x1000472CC, symSize: 0x100 }
  - { offsetInCU: 0x36DDD, offset: 0x4147F, size: 0x8, addend: 0x0, symName: __ZNKSt3__117__compressed_pairIP10ColumnTypeNS_9allocatorIS1_EEE5firstB7v160006Ev, symObjAddr: 0x36FEC, symBinAddr: 0x1000473CC, symSize: 0x124 }
  - { offsetInCU: 0x36E02, offset: 0x414A4, size: 0x8, addend: 0x0, symName: __ZNKSt3__122__compressed_pair_elemIP10ColumnTypeLi0ELb0EE5__getB7v160006Ev, symObjAddr: 0x37110, symBinAddr: 0x1000474F0, symSize: 0xAC }
  - { offsetInCU: 0x36E27, offset: 0x414C9, size: 0x8, addend: 0x0, symName: __ZNSt3__19allocatorI10ColumnTypeE9constructB7v160006IS1_JEEEvPT_DpOT0_, symObjAddr: 0x371BC, symBinAddr: 0x10004759C, symSize: 0xE4 }
  - { offsetInCU: 0x36E69, offset: 0x4150B, size: 0x8, addend: 0x0, symName: __ZNSt3__16vectorI10ColumnTypeNS_9allocatorIS1_EEE21_ConstructTransactionD2B7v160006Ev, symObjAddr: 0x372A0, symBinAddr: 0x100047680, symSize: 0x388 }
  - { offsetInCU: 0x36E91, offset: 0x41533, size: 0x8, addend: 0x0, symName: __ZNKSt3__16vectorI10ColumnTypeNS_9allocatorIS1_EEE17__annotate_shrinkB7v160006Em, symObjAddr: 0x37628, symBinAddr: 0x100047A08, symSize: 0x360 }
  - { offsetInCU: 0x36EC5, offset: 0x41567, size: 0x8, addend: 0x0, symName: __ZNSt3__117__compressed_pairIP10ColumnTypeNS_9allocatorIS1_EEE6secondB7v160006Ev, symObjAddr: 0x37988, symBinAddr: 0x100047D68, symSize: 0x108 }
  - { offsetInCU: 0x36EEA, offset: 0x4158C, size: 0x8, addend: 0x0, symName: __ZNSt3__122__compressed_pair_elemINS_9allocatorI10ColumnTypeEELi1ELb1EE5__getB7v160006Ev, symObjAddr: 0x37A90, symBinAddr: 0x100047E70, symSize: 0x74 }
  - { offsetInCU: 0x36F0F, offset: 0x415B1, size: 0x8, addend: 0x0, symName: __ZNKSt3__16vectorI10ColumnTypeNS_9allocatorIS1_EEE8max_sizeEv, symObjAddr: 0x37B04, symBinAddr: 0x100047EE4, symSize: 0x3B8 }
  - { offsetInCU: 0x36F37, offset: 0x415D9, size: 0x8, addend: 0x0, symName: __ZNKSt3__16vectorI10ColumnTypeNS_9allocatorIS1_EEE20__throw_length_errorB7v160006Ev, symObjAddr: 0x37EBC, symBinAddr: 0x10004829C, symSize: 0x80 }
  - { offsetInCU: 0x36F66, offset: 0x41608, size: 0x8, addend: 0x0, symName: __ZNSt3__116allocator_traitsINS_9allocatorI10ColumnTypeEEE8max_sizeB7v160006IS3_vEEmRKS3_, symObjAddr: 0x37F3C, symBinAddr: 0x10004831C, symSize: 0x24 }
  - { offsetInCU: 0x36F95, offset: 0x41637, size: 0x8, addend: 0x0, symName: __ZNKSt3__16vectorI10ColumnTypeNS_9allocatorIS1_EEE7__allocB7v160006Ev, symObjAddr: 0x37F60, symBinAddr: 0x100048340, symSize: 0xE4 }
  - { offsetInCU: 0x36FBA, offset: 0x4165C, size: 0x8, addend: 0x0, symName: __ZNKSt3__19allocatorI10ColumnTypeE8max_sizeB7v160006Ev, symObjAddr: 0x38044, symBinAddr: 0x100048424, symSize: 0x4C }
  - { offsetInCU: 0x36FDF, offset: 0x41681, size: 0x8, addend: 0x0, symName: __ZNKSt3__117__compressed_pairIP10ColumnTypeNS_9allocatorIS1_EEE6secondB7v160006Ev, symObjAddr: 0x38090, symBinAddr: 0x100048470, symSize: 0x108 }
  - { offsetInCU: 0x37004, offset: 0x416A6, size: 0x8, addend: 0x0, symName: __ZNKSt3__122__compressed_pair_elemINS_9allocatorI10ColumnTypeEELi1ELb1EE5__getB7v160006Ev, symObjAddr: 0x38198, symBinAddr: 0x100048578, symSize: 0x74 }
  - { offsetInCU: 0x37029, offset: 0x416CB, size: 0x8, addend: 0x0, symName: __ZNSt3__114__split_bufferI10ColumnTypeRNS_9allocatorIS1_EEEC2EmmS4_, symObjAddr: 0x3820C, symBinAddr: 0x1000485EC, symSize: 0x7D8 }
  - { offsetInCU: 0x370A4, offset: 0x41746, size: 0x8, addend: 0x0, symName: __ZNSt3__117__compressed_pairIP10ColumnTypeRNS_9allocatorIS1_EEEC1B7v160006IDnS5_EEOT_OT0_, symObjAddr: 0x389E4, symBinAddr: 0x100048DC4, symSize: 0x88 }
  - { offsetInCU: 0x370FA, offset: 0x4179C, size: 0x8, addend: 0x0, symName: __ZNSt3__114__split_bufferI10ColumnTypeRNS_9allocatorIS1_EEE7__allocB7v160006Ev, symObjAddr: 0x38CF8, symBinAddr: 0x1000490D8, symSize: 0xE4 }
  - { offsetInCU: 0x3711F, offset: 0x417C1, size: 0x8, addend: 0x0, symName: __ZNSt3__114__split_bufferI10ColumnTypeRNS_9allocatorIS1_EEE9__end_capB7v160006Ev, symObjAddr: 0x38DDC, symBinAddr: 0x1000491BC, symSize: 0x100 }
  - { offsetInCU: 0x37144, offset: 0x417E6, size: 0x8, addend: 0x0, symName: __ZNSt3__117__compressed_pairIP10ColumnTypeRNS_9allocatorIS1_EEEC2B7v160006IDnS5_EEOT_OT0_, symObjAddr: 0x38EDC, symBinAddr: 0x1000492BC, symSize: 0x198 }
  - { offsetInCU: 0x3719A, offset: 0x4183C, size: 0x8, addend: 0x0, symName: __ZNSt3__122__compressed_pair_elemIRNS_9allocatorI10ColumnTypeEELi1ELb0EEC2B7v160006IS4_vEEOT_, symObjAddr: 0x39074, symBinAddr: 0x100049454, symSize: 0xEC }
  - { offsetInCU: 0x371DB, offset: 0x4187D, size: 0x8, addend: 0x0, symName: __ZNSt3__19allocatorI10ColumnTypeE8allocateB7v160006Em, symObjAddr: 0x39160, symBinAddr: 0x100049540, symSize: 0xCC }
  - { offsetInCU: 0x3720E, offset: 0x418B0, size: 0x8, addend: 0x0, symName: __ZNSt3__117__compressed_pairIP10ColumnTypeRNS_9allocatorIS1_EEE6secondB7v160006Ev, symObjAddr: 0x3922C, symBinAddr: 0x10004960C, symSize: 0x110 }
  - { offsetInCU: 0x37233, offset: 0x418D5, size: 0x8, addend: 0x0, symName: __ZNSt3__122__compressed_pair_elemIRNS_9allocatorI10ColumnTypeEELi1ELb0EE5__getB7v160006Ev, symObjAddr: 0x3933C, symBinAddr: 0x10004971C, symSize: 0xD8 }
  - { offsetInCU: 0x37258, offset: 0x418FA, size: 0x8, addend: 0x0, symName: __ZNSt3__117__compressed_pairIP10ColumnTypeRNS_9allocatorIS1_EEE5firstB7v160006Ev, symObjAddr: 0x39414, symBinAddr: 0x1000497F4, symSize: 0x124 }
  - { offsetInCU: 0x37287, offset: 0x41929, size: 0x8, addend: 0x0, symName: __ZNSt3__114__split_bufferI10ColumnTypeRNS_9allocatorIS1_EEE21_ConstructTransactionC1B7v160006EPPS1_m, symObjAddr: 0x39538, symBinAddr: 0x100049918, symSize: 0x88 }
  - { offsetInCU: 0x372CB, offset: 0x4196D, size: 0x8, addend: 0x0, symName: __ZNSt3__114__split_bufferI10ColumnTypeRNS_9allocatorIS1_EEE21_ConstructTransactionD1B7v160006Ev, symObjAddr: 0x395C0, symBinAddr: 0x1000499A0, symSize: 0x78 }
  - { offsetInCU: 0x372F3, offset: 0x41995, size: 0x8, addend: 0x0, symName: __ZNSt3__114__split_bufferI10ColumnTypeRNS_9allocatorIS1_EEE21_ConstructTransactionC2B7v160006EPPS1_m, symObjAddr: 0x39638, symBinAddr: 0x100049A18, symSize: 0x324 }
  - { offsetInCU: 0x37337, offset: 0x419D9, size: 0x8, addend: 0x0, symName: __ZNSt3__114__split_bufferI10ColumnTypeRNS_9allocatorIS1_EEE21_ConstructTransactionD2B7v160006Ev, symObjAddr: 0x3995C, symBinAddr: 0x100049D3C, symSize: 0x174 }
  - { offsetInCU: 0x3735F, offset: 0x41A01, size: 0x8, addend: 0x0, symName: __ZNKSt3__16vectorI10ColumnTypeNS_9allocatorIS1_EEE17__annotate_deleteB7v160006Ev, symObjAddr: 0x39AD0, symBinAddr: 0x100049EB0, symSize: 0x370 }
  - { offsetInCU: 0x37384, offset: 0x41A26, size: 0x8, addend: 0x0, symName: __ZNSt3__116reverse_iteratorIP10ColumnTypeEC1B7v160006ES2_, symObjAddr: 0x3A2E8, symBinAddr: 0x10004A6C8, symSize: 0x80 }
  - { offsetInCU: 0x373BA, offset: 0x41A5C, size: 0x8, addend: 0x0, symName: __ZNKSt3__116reverse_iteratorIP10ColumnTypeE4baseB7v160006Ev, symObjAddr: 0x3A368, symBinAddr: 0x10004A748, symSize: 0xB0 }
  - { offsetInCU: 0x373DF, offset: 0x41A81, size: 0x8, addend: 0x0, symName: __ZNKSt3__16vectorI10ColumnTypeNS_9allocatorIS1_EEE14__annotate_newB7v160006Em, symObjAddr: 0x3A5D8, symBinAddr: 0x10004A9B8, symSize: 0x360 }
  - { offsetInCU: 0x37436, offset: 0x41AD8, size: 0x8, addend: 0x0, symName: __ZNKSt3__111__move_loopINS_17_ClassicAlgPolicyEEclB7v160006INS_16reverse_iteratorIP10ColumnTypeEES7_S7_EENS_4pairIT_T1_EES9_T0_SA_, symObjAddr: 0x3C308, symBinAddr: 0x10004C6E8, symSize: 0x46C }
  - { offsetInCU: 0x374B2, offset: 0x41B54, size: 0x8, addend: 0x0, symName: __ZNSt3__18_IterOpsINS_17_ClassicAlgPolicyEE11__iter_moveB7v160006IRNS_16reverse_iteratorIP10ColumnTypeEEEENS_9enable_ifIXsr12is_referenceIDTdeclsr3stdE7declvalIRT_EEEEE5valueEDTclsr3stdE4movedeclsr3stdE7declvalISB_EEEEE4typeEOSA_, symObjAddr: 0x3D3C0, symBinAddr: 0x10004D7A0, symSize: 0x9C }
  - { offsetInCU: 0x374DE, offset: 0x41B80, size: 0x8, addend: 0x0, symName: __ZNKSt3__116reverse_iteratorIP10ColumnTypeEdeB7v160006Ev, symObjAddr: 0x3D45C, symBinAddr: 0x10004D83C, symSize: 0x168 }
  - { offsetInCU: 0x37511, offset: 0x41BB3, size: 0x8, addend: 0x0, symName: __ZNSt3__116reverse_iteratorIP10ColumnTypeEppB7v160006Ev, symObjAddr: 0x3D5C4, symBinAddr: 0x10004D9A4, symSize: 0x1B0 }
  - { offsetInCU: 0x37536, offset: 0x41BD8, size: 0x8, addend: 0x0, symName: __ZNSt3__18_IterOpsINS_17_ClassicAlgPolicyEE25__validate_iter_referenceB7v160006IRNS_16reverse_iteratorIP10ColumnTypeEEEEvv, symObjAddr: 0x3D774, symBinAddr: 0x10004DB54, symSize: 0x4 }
  - { offsetInCU: 0x37554, offset: 0x41BF6, size: 0x8, addend: 0x0, symName: __ZNSt3__118__unwrap_iter_implINS_16reverse_iteratorIP10ColumnTypeEELb0EE8__unwrapB7v160006ES4_, symObjAddr: 0x3D778, symBinAddr: 0x10004DB58, symSize: 0x274 }
  - { offsetInCU: 0x37580, offset: 0x41C22, size: 0x8, addend: 0x0, symName: __ZNSt3__14pairINS_16reverse_iteratorIP10ColumnTypeEES4_EC1B7v160006IS4_S4_LPv0EEEOT_OT0_, symObjAddr: 0x3D9EC, symBinAddr: 0x10004DDCC, symSize: 0x88 }
  - { offsetInCU: 0x375DC, offset: 0x41C7E, size: 0x8, addend: 0x0, symName: __ZNSt3__14pairINS_16reverse_iteratorIP10ColumnTypeEES4_EC2B7v160006IS4_S4_LPv0EEEOT_OT0_, symObjAddr: 0x3DA74, symBinAddr: 0x10004DE54, symSize: 0xA0 }
  - { offsetInCU: 0x37638, offset: 0x41CDA, size: 0x8, addend: 0x0, symName: __ZNSt3__118__unwrap_iter_implINS_16reverse_iteratorIP10ColumnTypeEELb0EE8__rewrapB7v160006ES4_S4_, symObjAddr: 0x3DB14, symBinAddr: 0x10004DEF4, symSize: 0x2E0 }
  - { offsetInCU: 0x3766E, offset: 0x41D10, size: 0x8, addend: 0x0, symName: __ZNSt3__116reverse_iteratorIP10ColumnTypeEC2B7v160006ES2_, symObjAddr: 0x3DDF4, symBinAddr: 0x10004E1D4, symSize: 0x10C }
  - { offsetInCU: 0x376A4, offset: 0x41D46, size: 0x8, addend: 0x0, symName: __ZNSt3__114__split_bufferI10ColumnTypeRNS_9allocatorIS1_EEED2Ev, symObjAddr: 0x3DF00, symBinAddr: 0x10004E2E0, symSize: 0x16C }
  - { offsetInCU: 0x376CF, offset: 0x41D71, size: 0x8, addend: 0x0, symName: __ZNSt3__114__split_bufferI10ColumnTypeRNS_9allocatorIS1_EEE5clearB7v160006Ev, symObjAddr: 0x3E06C, symBinAddr: 0x10004E44C, symSize: 0xB4 }
  - { offsetInCU: 0x376F4, offset: 0x41D96, size: 0x8, addend: 0x0, symName: __ZNSt3__116allocator_traitsINS_9allocatorI10ColumnTypeEEE10deallocateB7v160006ERS3_PS2_m, symObjAddr: 0x3E120, symBinAddr: 0x10004E500, symSize: 0x34 }
  - { offsetInCU: 0x37736, offset: 0x41DD8, size: 0x8, addend: 0x0, symName: __ZNKSt3__114__split_bufferI10ColumnTypeRNS_9allocatorIS1_EEE8capacityB7v160006Ev, symObjAddr: 0x3E154, symBinAddr: 0x10004E534, symSize: 0x13C }
  - { offsetInCU: 0x3775B, offset: 0x41DFD, size: 0x8, addend: 0x0, symName: __ZNSt3__114__split_bufferI10ColumnTypeRNS_9allocatorIS1_EEE17__destruct_at_endB7v160006EPS1_, symObjAddr: 0x3E290, symBinAddr: 0x10004E670, symSize: 0x74 }
  - { offsetInCU: 0x3778E, offset: 0x41E30, size: 0x8, addend: 0x0, symName: __ZNSt3__114__split_bufferI10ColumnTypeRNS_9allocatorIS1_EEE17__destruct_at_endB7v160006EPS1_NS_17integral_constantIbLb0EEE, symObjAddr: 0x3E304, symBinAddr: 0x10004E6E4, symSize: 0x224 }
  - { offsetInCU: 0x377CE, offset: 0x41E70, size: 0x8, addend: 0x0, symName: __ZNSt3__116allocator_traitsINS_9allocatorI10ColumnTypeEEE7destroyB7v160006IS2_vEEvRS3_PT_, symObjAddr: 0x3E528, symBinAddr: 0x10004E908, symSize: 0x2C }
  - { offsetInCU: 0x3780C, offset: 0x41EAE, size: 0x8, addend: 0x0, symName: __ZNSt3__19allocatorI10ColumnTypeE7destroyB7v160006EPS1_, symObjAddr: 0x3E554, symBinAddr: 0x10004E934, symSize: 0x4C }
  - { offsetInCU: 0x3783F, offset: 0x41EE1, size: 0x8, addend: 0x0, symName: __ZNSt3__19allocatorI10ColumnTypeE10deallocateB7v160006EPS1_m, symObjAddr: 0x3E5A0, symBinAddr: 0x10004E980, symSize: 0x78 }
  - { offsetInCU: 0x37880, offset: 0x41F22, size: 0x8, addend: 0x0, symName: __ZNKSt3__114__split_bufferI10ColumnTypeRNS_9allocatorIS1_EEE9__end_capB7v160006Ev, symObjAddr: 0x3E618, symBinAddr: 0x10004E9F8, symSize: 0x100 }
  - { offsetInCU: 0x378A5, offset: 0x41F47, size: 0x8, addend: 0x0, symName: __ZNKSt3__117__compressed_pairIP10ColumnTypeRNS_9allocatorIS1_EEE5firstB7v160006Ev, symObjAddr: 0x3E718, symBinAddr: 0x10004EAF8, symSize: 0x124 }
  - { offsetInCU: 0x378CA, offset: 0x41F6C, size: 0x8, addend: 0x0, symName: __ZNSt3__16vectorI10ColumnTypeNS_9allocatorIS1_EEE27__invalidate_iterators_pastB7v160006EPS1_, symObjAddr: 0x3E83C, symBinAddr: 0x10004EC1C, symSize: 0x64 }
  - { offsetInCU: 0x37900, offset: 0x41FA2, size: 0x8, addend: 0x0, symName: __ZNSt3__16vectorI10ColumnTypeNS_9allocatorIS1_EEE22__base_destruct_at_endB7v160006EPS1_, symObjAddr: 0x3E8A0, symBinAddr: 0x10004EC80, symSize: 0x1FC }
  - { offsetInCU: 0x37943, offset: 0x41FE5, size: 0x8, addend: 0x0, symName: __ZNSt3__112__hash_tableINS_17__hash_value_typeINS_12basic_stringIcNS_11char_traitsIcEENS_9allocatorIcEEEE5TableEENS_22__unordered_map_hasherIS7_S9_NS_4hashIS7_EENS_8equal_toIS7_EELb1EEENS_21__unordered_map_equalIS7_S9_SE_SC_Lb1EEENS5_IS9_EEE4findIS7_EENS_15__hash_iteratorIPNS_11__hash_nodeIS9_PvEEEERKT_, symObjAddr: 0x3EBB0, symBinAddr: 0x10004EF90, symSize: 0x8EC }
  - { offsetInCU: 0x379CA, offset: 0x4206C, size: 0x8, addend: 0x0, symName: __ZNSt3__119__hash_map_iteratorINS_15__hash_iteratorIPNS_11__hash_nodeINS_17__hash_value_typeINS_12basic_stringIcNS_11char_traitsIcEENS_9allocatorIcEEEE5TableEEPvEEEEEC1B7v160006ESF_, symObjAddr: 0x3F49C, symBinAddr: 0x10004F87C, symSize: 0x28C }
  - { offsetInCU: 0x37A06, offset: 0x420A8, size: 0x8, addend: 0x0, symName: __ZNSt3__112__hash_tableINS_17__hash_value_typeINS_12basic_stringIcNS_11char_traitsIcEENS_9allocatorIcEEEE5TableEENS_22__unordered_map_hasherIS7_S9_NS_4hashIS7_EENS_8equal_toIS7_EELb1EEENS_21__unordered_map_equalIS7_S9_SE_SC_Lb1EEENS5_IS9_EEE13hash_functionB7v160006Ev, symObjAddr: 0x3F728, symBinAddr: 0x10004FB08, symSize: 0xE4 }
  - { offsetInCU: 0x37A2B, offset: 0x420CD, size: 0x8, addend: 0x0, symName: __ZNKSt3__122__unordered_map_hasherINS_12basic_stringIcNS_11char_traitsIcEENS_9allocatorIcEEEENS_17__hash_value_typeIS6_5TableEENS_4hashIS6_EENS_8equal_toIS6_EELb1EEclB7v160006ERKS6_, symObjAddr: 0x3F80C, symBinAddr: 0x10004FBEC, symSize: 0xC8 }
  - { offsetInCU: 0x37A5F, offset: 0x42101, size: 0x8, addend: 0x0, symName: __ZNKSt3__112__hash_tableINS_17__hash_value_typeINS_12basic_stringIcNS_11char_traitsIcEENS_9allocatorIcEEEE5TableEENS_22__unordered_map_hasherIS7_S9_NS_4hashIS7_EENS_8equal_toIS7_EELb1EEENS_21__unordered_map_equalIS7_S9_SE_SC_Lb1EEENS5_IS9_EEE12bucket_countB7v160006Ev, symObjAddr: 0x3F8D4, symBinAddr: 0x10004FCB4, symSize: 0xFC }
  - { offsetInCU: 0x37A84, offset: 0x42126, size: 0x8, addend: 0x0, symName: __ZNKSt3__110unique_ptrIA_PNS_16__hash_node_baseIPNS_11__hash_nodeINS_17__hash_value_typeINS_12basic_stringIcNS_11char_traitsIcEENS_9allocatorIcEEEE5TableEEPvEEEENS_25__bucket_list_deallocatorINS7_ISG_EEEEEixB7v160006Em, symObjAddr: 0x3FAAC, symBinAddr: 0x10004FE8C, symSize: 0x25C }
  - { offsetInCU: 0x37AB8, offset: 0x4215A, size: 0x8, addend: 0x0, symName: __ZNKSt3__116__hash_node_baseIPNS_11__hash_nodeINS_17__hash_value_typeINS_12basic_stringIcNS_11char_traitsIcEENS_9allocatorIcEEEE5TableEEPvEEE6__hashB7v160006Ev, symObjAddr: 0x3FD08, symBinAddr: 0x1000500E8, symSize: 0x180 }
  - { offsetInCU: 0x37ADD, offset: 0x4217F, size: 0x8, addend: 0x0, symName: __ZNSt3__112__hash_tableINS_17__hash_value_typeINS_12basic_stringIcNS_11char_traitsIcEENS_9allocatorIcEEEE5TableEENS_22__unordered_map_hasherIS7_S9_NS_4hashIS7_EENS_8equal_toIS7_EELb1EEENS_21__unordered_map_equalIS7_S9_SE_SC_Lb1EEENS5_IS9_EEE6key_eqB7v160006Ev, symObjAddr: 0x3FE88, symBinAddr: 0x100050268, symSize: 0xE4 }
  - { offsetInCU: 0x37B02, offset: 0x421A4, size: 0x8, addend: 0x0, symName: __ZNKSt3__121__unordered_map_equalINS_12basic_stringIcNS_11char_traitsIcEENS_9allocatorIcEEEENS_17__hash_value_typeIS6_5TableEENS_8equal_toIS6_EENS_4hashIS6_EELb1EEclB7v160006ERKS9_RKS6_, symObjAddr: 0x3FF6C, symBinAddr: 0x10005034C, symSize: 0x190 }
  - { offsetInCU: 0x37B45, offset: 0x421E7, size: 0x8, addend: 0x0, symName: __ZNSt3__116__hash_node_baseIPNS_11__hash_nodeINS_17__hash_value_typeINS_12basic_stringIcNS_11char_traitsIcEENS_9allocatorIcEEEE5TableEEPvEEE8__upcastB7v160006Ev, symObjAddr: 0x400FC, symBinAddr: 0x1000504DC, symSize: 0xF8 }
  - { offsetInCU: 0x37B6A, offset: 0x4220C, size: 0x8, addend: 0x0, symName: __ZNSt3__115__hash_iteratorIPNS_11__hash_nodeINS_17__hash_value_typeINS_12basic_stringIcNS_11char_traitsIcEENS_9allocatorIcEEEE5TableEEPvEEEC1B7v160006EPNS_16__hash_node_baseISD_EEPKv, symObjAddr: 0x401F4, symBinAddr: 0x1000505D4, symSize: 0x88 }
  - { offsetInCU: 0x37BB0, offset: 0x42252, size: 0x8, addend: 0x0, symName: __ZNSt3__112__hash_tableINS_17__hash_value_typeINS_12basic_stringIcNS_11char_traitsIcEENS_9allocatorIcEEEE5TableEENS_22__unordered_map_hasherIS7_S9_NS_4hashIS7_EENS_8equal_toIS7_EELb1EEENS_21__unordered_map_equalIS7_S9_SE_SC_Lb1EEENS5_IS9_EEE3endEv, symObjAddr: 0x4027C, symBinAddr: 0x10005065C, symSize: 0x248 }
  - { offsetInCU: 0x37BD8, offset: 0x4227A, size: 0x8, addend: 0x0, symName: __ZNSt3__117__compressed_pairImNS_22__unordered_map_hasherINS_12basic_stringIcNS_11char_traitsIcEENS_9allocatorIcEEEENS_17__hash_value_typeIS7_5TableEENS_4hashIS7_EENS_8equal_toIS7_EELb1EEEE6secondB7v160006Ev, symObjAddr: 0x404C4, symBinAddr: 0x1000508A4, symSize: 0x108 }
  - { offsetInCU: 0x37BFD, offset: 0x4229F, size: 0x8, addend: 0x0, symName: __ZNSt3__122__compressed_pair_elemINS_22__unordered_map_hasherINS_12basic_stringIcNS_11char_traitsIcEENS_9allocatorIcEEEENS_17__hash_value_typeIS7_5TableEENS_4hashIS7_EENS_8equal_toIS7_EELb1EEELi1ELb1EE5__getB7v160006Ev, symObjAddr: 0x405CC, symBinAddr: 0x1000509AC, symSize: 0x74 }
  - { offsetInCU: 0x37C22, offset: 0x422C4, size: 0x8, addend: 0x0, symName: __ZNKSt3__110unique_ptrIA_PNS_16__hash_node_baseIPNS_11__hash_nodeINS_17__hash_value_typeINS_12basic_stringIcNS_11char_traitsIcEENS_9allocatorIcEEEE5TableEEPvEEEENS_25__bucket_list_deallocatorINS7_ISG_EEEEE11get_deleterB7v160006Ev, symObjAddr: 0x45AA4, symBinAddr: 0x100050A20, symSize: 0xF8 }
  - { offsetInCU: 0x37C47, offset: 0x422E9, size: 0x8, addend: 0x0, symName: __ZNKSt3__125__bucket_list_deallocatorINS_9allocatorIPNS_16__hash_node_baseIPNS_11__hash_nodeINS_17__hash_value_typeINS_12basic_stringIcNS_11char_traitsIcEENS1_IcEEEE5TableEEPvEEEEEEE4sizeB7v160006Ev, symObjAddr: 0x45B9C, symBinAddr: 0x100050B18, symSize: 0x13C }
  - { offsetInCU: 0x37C6C, offset: 0x4230E, size: 0x8, addend: 0x0, symName: __ZNKSt3__117__compressed_pairIPPNS_16__hash_node_baseIPNS_11__hash_nodeINS_17__hash_value_typeINS_12basic_stringIcNS_11char_traitsIcEENS_9allocatorIcEEEE5TableEEPvEEEENS_25__bucket_list_deallocatorINS7_ISG_EEEEE6secondB7v160006Ev, symObjAddr: 0x45CD8, symBinAddr: 0x100050C54, symSize: 0x12C }
  - { offsetInCU: 0x37C91, offset: 0x42333, size: 0x8, addend: 0x0, symName: __ZNKSt3__122__compressed_pair_elemINS_25__bucket_list_deallocatorINS_9allocatorIPNS_16__hash_node_baseIPNS_11__hash_nodeINS_17__hash_value_typeINS_12basic_stringIcNS_11char_traitsIcEENS2_IcEEEE5TableEEPvEEEEEEEELi1ELb0EE5__getB7v160006Ev, symObjAddr: 0x45E04, symBinAddr: 0x100050D80, symSize: 0xAC }
  - { offsetInCU: 0x37CB6, offset: 0x42358, size: 0x8, addend: 0x0, symName: __ZNKSt3__117__compressed_pairImNS_9allocatorIPNS_16__hash_node_baseIPNS_11__hash_nodeINS_17__hash_value_typeINS_12basic_stringIcNS_11char_traitsIcEENS1_IcEEEE5TableEEPvEEEEEEE5firstB7v160006Ev, symObjAddr: 0x45EB0, symBinAddr: 0x100050E2C, symSize: 0x124 }
  - { offsetInCU: 0x37CDB, offset: 0x4237D, size: 0x8, addend: 0x0, symName: __ZNKSt3__122__compressed_pair_elemImLi0ELb0EE5__getB7v160006Ev, symObjAddr: 0x45FD4, symBinAddr: 0x100050F50, symSize: 0xAC }
  - { offsetInCU: 0x37D00, offset: 0x423A2, size: 0x8, addend: 0x0, symName: __ZNKSt3__117__compressed_pairIPPNS_16__hash_node_baseIPNS_11__hash_nodeINS_17__hash_value_typeINS_12basic_stringIcNS_11char_traitsIcEENS_9allocatorIcEEEE5TableEEPvEEEENS_25__bucket_list_deallocatorINS7_ISG_EEEEE5firstB7v160006Ev, symObjAddr: 0x46080, symBinAddr: 0x100050FFC, symSize: 0x124 }
  - { offsetInCU: 0x37D25, offset: 0x423C7, size: 0x8, addend: 0x0, symName: __ZNKSt3__122__compressed_pair_elemIPPNS_16__hash_node_baseIPNS_11__hash_nodeINS_17__hash_value_typeINS_12basic_stringIcNS_11char_traitsIcEENS_9allocatorIcEEEE5TableEEPvEEEELi0ELb0EE5__getB7v160006Ev, symObjAddr: 0x461A4, symBinAddr: 0x100051120, symSize: 0xAC }
  - { offsetInCU: 0x37D4A, offset: 0x423EC, size: 0x8, addend: 0x0, symName: __ZNSt3__117__compressed_pairIfNS_21__unordered_map_equalINS_12basic_stringIcNS_11char_traitsIcEENS_9allocatorIcEEEENS_17__hash_value_typeIS7_5TableEENS_8equal_toIS7_EENS_4hashIS7_EELb1EEEE6secondB7v160006Ev, symObjAddr: 0x46250, symBinAddr: 0x1000511CC, symSize: 0x108 }
  - { offsetInCU: 0x37D6F, offset: 0x42411, size: 0x8, addend: 0x0, symName: __ZNSt3__122__compressed_pair_elemINS_21__unordered_map_equalINS_12basic_stringIcNS_11char_traitsIcEENS_9allocatorIcEEEENS_17__hash_value_typeIS7_5TableEENS_8equal_toIS7_EENS_4hashIS7_EELb1EEELi1ELb1EE5__getB7v160006Ev, symObjAddr: 0x46358, symBinAddr: 0x1000512D4, symSize: 0x74 }
  - { offsetInCU: 0x37D94, offset: 0x42436, size: 0x8, addend: 0x0, symName: __ZNKSt3__117__hash_value_typeINS_12basic_stringIcNS_11char_traitsIcEENS_9allocatorIcEEEE5TableE11__get_valueB7v160006Ev, symObjAddr: 0x464BC, symBinAddr: 0x100051348, symSize: 0xB4 }
  - { offsetInCU: 0x37DB9, offset: 0x4245B, size: 0x8, addend: 0x0, symName: __ZNSt3__114pointer_traitsIPNS_16__hash_node_baseIPNS_11__hash_nodeINS_17__hash_value_typeINS_12basic_stringIcNS_11char_traitsIcEENS_9allocatorIcEEEE5TableEEPvEEEEE10pointer_toB7v160006ERSF_, symObjAddr: 0x46AAC, symBinAddr: 0x100051434, symSize: 0x14 }
  - { offsetInCU: 0x37DDC, offset: 0x4247E, size: 0x8, addend: 0x0, symName: __ZNSt3__115__hash_iteratorIPNS_11__hash_nodeINS_17__hash_value_typeINS_12basic_stringIcNS_11char_traitsIcEENS_9allocatorIcEEEE5TableEEPvEEEC2B7v160006EPNS_16__hash_node_baseISD_EEPKv, symObjAddr: 0x46AC0, symBinAddr: 0x100051448, symSize: 0xCC }
  - { offsetInCU: 0x37E22, offset: 0x424C4, size: 0x8, addend: 0x0, symName: __ZNSt3__119__hash_map_iteratorINS_15__hash_iteratorIPNS_11__hash_nodeINS_17__hash_value_typeINS_12basic_stringIcNS_11char_traitsIcEENS_9allocatorIcEEEE5TableEEPvEEEEEC2B7v160006ESF_, symObjAddr: 0x46B8C, symBinAddr: 0x100051514, symSize: 0x25C }
  - { offsetInCU: 0x37E72, offset: 0x42514, size: 0x8, addend: 0x0, symName: __ZNSt3__112__hash_tableINS_17__hash_value_typeINS_12basic_stringIcNS_11char_traitsIcEENS_9allocatorIcEEEE5TableEENS_22__unordered_map_hasherIS7_S9_NS_4hashIS7_EENS_8equal_toIS7_EELb1EEENS_21__unordered_map_equalIS7_S9_SE_SC_Lb1EEENS5_IS9_EEE25__emplace_unique_key_argsIS7_JRKNS_21piecewise_construct_tENS_5tupleIJRKS7_EEENSO_IJEEEEEENS_4pairINS_15__hash_iteratorIPNS_11__hash_nodeIS9_PvEEEEbEERKT_DpOT0_, symObjAddr: 0x46DE8, symBinAddr: 0x100051770, symSize: 0x1D24 }
  - { offsetInCU: 0x37F86, offset: 0x42628, size: 0x8, addend: 0x0, symName: __ZNKSt3__115__hash_iteratorIPNS_11__hash_nodeINS_17__hash_value_typeINS_12basic_stringIcNS_11char_traitsIcEENS_9allocatorIcEEEE5TableEEPvEEEptB7v160006Ev, symObjAddr: 0x48D54, symBinAddr: 0x1000536DC, symSize: 0x190 }
  - { offsetInCU: 0x37FAB, offset: 0x4264D, size: 0x8, addend: 0x0, symName: __ZNSt3__117__hash_value_typeINS_12basic_stringIcNS_11char_traitsIcEENS_9allocatorIcEEEE5TableE11__get_valueB7v160006Ev, symObjAddr: 0x48EE4, symBinAddr: 0x10005386C, symSize: 0xB4 }
  - { offsetInCU: 0x37FD0, offset: 0x42672, size: 0x8, addend: 0x0, symName: __ZNSt3__112__hash_tableINS_17__hash_value_typeINS_12basic_stringIcNS_11char_traitsIcEENS_9allocatorIcEEEE5TableEENS_22__unordered_map_hasherIS7_S9_NS_4hashIS7_EENS_8equal_toIS7_EELb1EEENS_21__unordered_map_equalIS7_S9_SE_SC_Lb1EEENS5_IS9_EEE21__construct_node_hashIRKNS_21piecewise_construct_tEJNS_5tupleIJRKS7_EEENSO_IJEEEEEENS_10unique_ptrINS_11__hash_nodeIS9_PvEENS_22__hash_node_destructorINS5_ISW_EEEEEEmOT_DpOT0_, symObjAddr: 0x48F98, symBinAddr: 0x100053920, symSize: 0x948 }
  - { offsetInCU: 0x38073, offset: 0x42715, size: 0x8, addend: 0x0, symName: __ZNSt3__112__hash_tableINS_17__hash_value_typeINS_12basic_stringIcNS_11char_traitsIcEENS_9allocatorIcEEEE5TableEENS_22__unordered_map_hasherIS7_S9_NS_4hashIS7_EENS_8equal_toIS7_EELb1EEENS_21__unordered_map_equalIS7_S9_SE_SC_Lb1EEENS5_IS9_EEE4sizeB7v160006Ev, symObjAddr: 0x498E0, symBinAddr: 0x100054268, symSize: 0x100 }
  - { offsetInCU: 0x38098, offset: 0x4273A, size: 0x8, addend: 0x0, symName: __ZNSt3__112__hash_tableINS_17__hash_value_typeINS_12basic_stringIcNS_11char_traitsIcEENS_9allocatorIcEEEE5TableEENS_22__unordered_map_hasherIS7_S9_NS_4hashIS7_EENS_8equal_toIS7_EELb1EEENS_21__unordered_map_equalIS7_S9_SE_SC_Lb1EEENS5_IS9_EEE15max_load_factorB7v160006Ev, symObjAddr: 0x499E0, symBinAddr: 0x100054368, symSize: 0x100 }
  - { offsetInCU: 0x380BD, offset: 0x4275F, size: 0x8, addend: 0x0, symName: __ZNSt3__112__hash_tableINS_17__hash_value_typeINS_12basic_stringIcNS_11char_traitsIcEENS_9allocatorIcEEEE5TableEENS_22__unordered_map_hasherIS7_S9_NS_4hashIS7_EENS_8equal_toIS7_EELb1EEENS_21__unordered_map_equalIS7_S9_SE_SC_Lb1EEENS5_IS9_EEE15__rehash_uniqueB7v160006Em, symObjAddr: 0x49AE0, symBinAddr: 0x100054468, symSize: 0x74 }
  - { offsetInCU: 0x380F1, offset: 0x42793, size: 0x8, addend: 0x0, symName: __Z4ceilB7v160006f, symObjAddr: 0x49BA4, symBinAddr: 0x10005452C, symSize: 0x18 }
  - { offsetInCU: 0x38120, offset: 0x427C2, size: 0x8, addend: 0x0, symName: __ZNSt3__117__compressed_pairINS_16__hash_node_baseIPNS_11__hash_nodeINS_17__hash_value_typeINS_12basic_stringIcNS_11char_traitsIcEENS_9allocatorIcEEEE5TableEEPvEEEENS7_ISD_EEE5firstB7v160006Ev, symObjAddr: 0x49BBC, symBinAddr: 0x100054544, symSize: 0x124 }
  - { offsetInCU: 0x38145, offset: 0x427E7, size: 0x8, addend: 0x0, symName: __ZNSt3__116__hash_node_baseIPNS_11__hash_nodeINS_17__hash_value_typeINS_12basic_stringIcNS_11char_traitsIcEENS_9allocatorIcEEEE5TableEEPvEEE5__ptrB7v160006Ev, symObjAddr: 0x49CE0, symBinAddr: 0x100054668, symSize: 0xB0 }
  - { offsetInCU: 0x3816A, offset: 0x4280C, size: 0x8, addend: 0x0, symName: __ZNKSt3__110unique_ptrINS_11__hash_nodeINS_17__hash_value_typeINS_12basic_stringIcNS_11char_traitsIcEENS_9allocatorIcEEEE5TableEEPvEENS_22__hash_node_destructorINS6_ISC_EEEEEptB7v160006Ev, symObjAddr: 0x49D90, symBinAddr: 0x100054718, symSize: 0x13C }
  - { offsetInCU: 0x3818F, offset: 0x42831, size: 0x8, addend: 0x0, symName: __ZNKSt3__110unique_ptrINS_11__hash_nodeINS_17__hash_value_typeINS_12basic_stringIcNS_11char_traitsIcEENS_9allocatorIcEEEE5TableEEPvEENS_22__hash_node_destructorINS6_ISC_EEEEE3getB7v160006Ev, symObjAddr: 0x49ECC, symBinAddr: 0x100054854, symSize: 0x13C }
  - { offsetInCU: 0x381B4, offset: 0x42856, size: 0x8, addend: 0x0, symName: __ZNSt3__110unique_ptrINS_11__hash_nodeINS_17__hash_value_typeINS_12basic_stringIcNS_11char_traitsIcEENS_9allocatorIcEEEE5TableEEPvEENS_22__hash_node_destructorINS6_ISC_EEEEE7releaseB7v160006Ev, symObjAddr: 0x4A008, symBinAddr: 0x100054990, symSize: 0x20C }
  - { offsetInCU: 0x381E8, offset: 0x4288A, size: 0x8, addend: 0x0, symName: __ZNSt3__110unique_ptrINS_11__hash_nodeINS_17__hash_value_typeINS_12basic_stringIcNS_11char_traitsIcEENS_9allocatorIcEEEE5TableEEPvEENS_22__hash_node_destructorINS6_ISC_EEEEED1B7v160006Ev, symObjAddr: 0x4A214, symBinAddr: 0x100054B9C, symSize: 0x78 }
  - { offsetInCU: 0x38215, offset: 0x428B7, size: 0x8, addend: 0x0, symName: __ZNSt3__14pairINS_15__hash_iteratorIPNS_11__hash_nodeINS_17__hash_value_typeINS_12basic_stringIcNS_11char_traitsIcEENS_9allocatorIcEEEE5TableEEPvEEEEbEC1B7v160006ISF_RbLSC_0EEEOT_OT0_, symObjAddr: 0x4A28C, symBinAddr: 0x100054C14, symSize: 0x88 }
  - { offsetInCU: 0x38271, offset: 0x42913, size: 0x8, addend: 0x0, symName: __ZNSt3__112__hash_tableINS_17__hash_value_typeINS_12basic_stringIcNS_11char_traitsIcEENS_9allocatorIcEEEE5TableEENS_22__unordered_map_hasherIS7_S9_NS_4hashIS7_EENS_8equal_toIS7_EELb1EEENS_21__unordered_map_equalIS7_S9_SE_SC_Lb1EEENS5_IS9_EEE12__node_allocB7v160006Ev, symObjAddr: 0x4A314, symBinAddr: 0x100054C9C, symSize: 0xE4 }
  - { offsetInCU: 0x38296, offset: 0x42938, size: 0x8, addend: 0x0, symName: __ZNSt3__116allocator_traitsINS_9allocatorINS_11__hash_nodeINS_17__hash_value_typeINS_12basic_stringIcNS_11char_traitsIcEENS1_IcEEEE5TableEEPvEEEEE8allocateB7v160006ERSD_m, symObjAddr: 0x4A3F8, symBinAddr: 0x100054D80, symSize: 0x2C }
  - { offsetInCU: 0x382C9, offset: 0x4296B, size: 0x8, addend: 0x0, symName: __ZNSt3__122__hash_node_destructorINS_9allocatorINS_11__hash_nodeINS_17__hash_value_typeINS_12basic_stringIcNS_11char_traitsIcEENS1_IcEEEE5TableEEPvEEEEEC1B7v160006ERSD_b, symObjAddr: 0x4A424, symBinAddr: 0x100054DAC, symSize: 0xCC }
  - { offsetInCU: 0x38314, offset: 0x429B6, size: 0x8, addend: 0x0, symName: __ZNSt3__110unique_ptrINS_11__hash_nodeINS_17__hash_value_typeINS_12basic_stringIcNS_11char_traitsIcEENS_9allocatorIcEEEE5TableEEPvEENS_22__hash_node_destructorINS6_ISC_EEEEEC1B7v160006ILb1EvEEPSC_NS_16__dependent_typeINS_27__unique_ptr_deleter_sfinaeISF_EEXT_EE20__good_rval_ref_typeE, symObjAddr: 0x4A4F0, symBinAddr: 0x100054E78, symSize: 0x88 }
  - { offsetInCU: 0x38364, offset: 0x42A06, size: 0x8, addend: 0x0, symName: __ZNSt3__116allocator_traitsINS_9allocatorINS_11__hash_nodeINS_17__hash_value_typeINS_12basic_stringIcNS_11char_traitsIcEENS1_IcEEEE5TableEEPvEEEEE9constructB7v160006INS_4pairIKS8_S9_EEJRKNS_21piecewise_construct_tENS_5tupleIJRSH_EEENSM_IJEEEEvEEvRSD_PT_DpOT0_, symObjAddr: 0x4A578, symBinAddr: 0x100054F00, symSize: 0xF4 }
  - { offsetInCU: 0x383E5, offset: 0x42A87, size: 0x8, addend: 0x0, symName: __ZNSt3__122__hash_key_value_typesINS_17__hash_value_typeINS_12basic_stringIcNS_11char_traitsIcEENS_9allocatorIcEEEE5TableEEE9__get_ptrB7v160006ERS9_, symObjAddr: 0x4A66C, symBinAddr: 0x100054FF4, symSize: 0x50 }
  - { offsetInCU: 0x38408, offset: 0x42AAA, size: 0x8, addend: 0x0, symName: __ZNSt3__110unique_ptrINS_11__hash_nodeINS_17__hash_value_typeINS_12basic_stringIcNS_11char_traitsIcEENS_9allocatorIcEEEE5TableEEPvEENS_22__hash_node_destructorINS6_ISC_EEEEE11get_deleterB7v160006Ev, symObjAddr: 0x4A6BC, symBinAddr: 0x100055044, symSize: 0xF8 }
  - { offsetInCU: 0x3842D, offset: 0x42ACF, size: 0x8, addend: 0x0, symName: __ZNSt3__117__compressed_pairINS_16__hash_node_baseIPNS_11__hash_nodeINS_17__hash_value_typeINS_12basic_stringIcNS_11char_traitsIcEENS_9allocatorIcEEEE5TableEEPvEEEENS7_ISD_EEE6secondB7v160006Ev, symObjAddr: 0x4A7B4, symBinAddr: 0x10005513C, symSize: 0x108 }
  - { offsetInCU: 0x38452, offset: 0x42AF4, size: 0x8, addend: 0x0, symName: __ZNSt3__122__compressed_pair_elemINS_9allocatorINS_11__hash_nodeINS_17__hash_value_typeINS_12basic_stringIcNS_11char_traitsIcEENS1_IcEEEE5TableEEPvEEEELi1ELb1EE5__getB7v160006Ev, symObjAddr: 0x4A8BC, symBinAddr: 0x100055244, symSize: 0x74 }
  - { offsetInCU: 0x38477, offset: 0x42B19, size: 0x8, addend: 0x0, symName: __ZNSt3__19allocatorINS_11__hash_nodeINS_17__hash_value_typeINS_12basic_stringIcNS_11char_traitsIcEENS0_IcEEEE5TableEEPvEEE8allocateB7v160006Em, symObjAddr: 0x4A930, symBinAddr: 0x1000552B8, symSize: 0xD0 }
  - { offsetInCU: 0x384B4, offset: 0x42B56, size: 0x8, addend: 0x0, symName: __ZNSt3__116allocator_traitsINS_9allocatorINS_11__hash_nodeINS_17__hash_value_typeINS_12basic_stringIcNS_11char_traitsIcEENS1_IcEEEE5TableEEPvEEEEE8max_sizeB7v160006ISD_vEEmRKSD_, symObjAddr: 0x4AA00, symBinAddr: 0x100055388, symSize: 0x24 }
  - { offsetInCU: 0x384E3, offset: 0x42B85, size: 0x8, addend: 0x0, symName: __ZNKSt3__19allocatorINS_11__hash_nodeINS_17__hash_value_typeINS_12basic_stringIcNS_11char_traitsIcEENS0_IcEEEE5TableEEPvEEE8max_sizeB7v160006Ev, symObjAddr: 0x4AA24, symBinAddr: 0x1000553AC, symSize: 0x58 }
  - { offsetInCU: 0x38508, offset: 0x42BAA, size: 0x8, addend: 0x0, symName: __ZNSt3__122__hash_node_destructorINS_9allocatorINS_11__hash_nodeINS_17__hash_value_typeINS_12basic_stringIcNS_11char_traitsIcEENS1_IcEEEE5TableEEPvEEEEEC2B7v160006ERSD_b, symObjAddr: 0x4AA7C, symBinAddr: 0x100055404, symSize: 0x1A0 }
  - { offsetInCU: 0x3854E, offset: 0x42BF0, size: 0x8, addend: 0x0, symName: __ZNSt3__110unique_ptrINS_11__hash_nodeINS_17__hash_value_typeINS_12basic_stringIcNS_11char_traitsIcEENS_9allocatorIcEEEE5TableEEPvEENS_22__hash_node_destructorINS6_ISC_EEEEEC2B7v160006ILb1EvEEPSC_NS_16__dependent_typeINS_27__unique_ptr_deleter_sfinaeISF_EEXT_EE20__good_rval_ref_typeE, symObjAddr: 0x4AC1C, symBinAddr: 0x1000555A4, symSize: 0x2BC }
  - { offsetInCU: 0x385A4, offset: 0x42C46, size: 0x8, addend: 0x0, symName: __ZNSt3__117__compressed_pairIPNS_11__hash_nodeINS_17__hash_value_typeINS_12basic_stringIcNS_11char_traitsIcEENS_9allocatorIcEEEE5TableEEPvEENS_22__hash_node_destructorINS6_ISC_EEEEEC1B7v160006IRSD_SG_EEOT_OT0_, symObjAddr: 0x4AED8, symBinAddr: 0x100055860, symSize: 0x88 }
  - { offsetInCU: 0x385FA, offset: 0x42C9C, size: 0x8, addend: 0x0, symName: __ZNSt3__117__compressed_pairIPNS_11__hash_nodeINS_17__hash_value_typeINS_12basic_stringIcNS_11char_traitsIcEENS_9allocatorIcEEEE5TableEEPvEENS_22__hash_node_destructorINS6_ISC_EEEEEC2B7v160006IRSD_SG_EEOT_OT0_, symObjAddr: 0x4AF60, symBinAddr: 0x1000558E8, symSize: 0x1B4 }
  - { offsetInCU: 0x38650, offset: 0x42CF2, size: 0x8, addend: 0x0, symName: __ZNSt3__122__compressed_pair_elemIPNS_11__hash_nodeINS_17__hash_value_typeINS_12basic_stringIcNS_11char_traitsIcEENS_9allocatorIcEEEE5TableEEPvEELi0ELb0EEC2B7v160006IRSD_vEEOT_, symObjAddr: 0x4B114, symBinAddr: 0x100055A9C, symSize: 0x144 }
  - { offsetInCU: 0x38691, offset: 0x42D33, size: 0x8, addend: 0x0, symName: __ZNSt3__122__compressed_pair_elemINS_22__hash_node_destructorINS_9allocatorINS_11__hash_nodeINS_17__hash_value_typeINS_12basic_stringIcNS_11char_traitsIcEENS2_IcEEEE5TableEEPvEEEEEELi1ELb0EEC2B7v160006ISF_vEEOT_, symObjAddr: 0x4B258, symBinAddr: 0x100055BE0, symSize: 0x84 }
  - { offsetInCU: 0x386D2, offset: 0x42D74, size: 0x8, addend: 0x0, symName: __ZNSt3__19allocatorINS_11__hash_nodeINS_17__hash_value_typeINS_12basic_stringIcNS_11char_traitsIcEENS0_IcEEEE5TableEEPvEEE9constructB7v160006INS_4pairIKS7_S8_EEJRKNS_21piecewise_construct_tENS_5tupleIJRSF_EEENSK_IJEEEEEEvPT_DpOT0_, symObjAddr: 0x4B2DC, symBinAddr: 0x100055C64, symSize: 0x284 }
  - { offsetInCU: 0x38753, offset: 0x42DF5, size: 0x8, addend: 0x0, symName: __ZNSt3__14pairIKNS_12basic_stringIcNS_11char_traitsIcEENS_9allocatorIcEEEE5TableEC1B7v160006IJRS7_EJEEENS_21piecewise_construct_tENS_5tupleIJDpT_EEENSD_IJDpT0_EEE, symObjAddr: 0x4B560, symBinAddr: 0x100055EE8, symSize: 0x28C }
  - { offsetInCU: 0x387C4, offset: 0x42E66, size: 0x8, addend: 0x0, symName: __ZNSt3__14pairIKNS_12basic_stringIcNS_11char_traitsIcEENS_9allocatorIcEEEE5TableEC1B7v160006IJRS7_EJEJLm0EEJEEENS_21piecewise_construct_tERNS_5tupleIJDpT_EEERNSD_IJDpT0_EEENS_15__tuple_indicesIJXspT1_EEEENSM_IJXspT2_EEEE, symObjAddr: 0x4B7EC, symBinAddr: 0x100056174, symSize: 0x88 }
  - { offsetInCU: 0x38857, offset: 0x42EF9, size: 0x8, addend: 0x0, symName: __ZNSt3__14pairIKNS_12basic_stringIcNS_11char_traitsIcEENS_9allocatorIcEEEE5TableEC2B7v160006IJRS7_EJEJLm0EEJEEENS_21piecewise_construct_tERNS_5tupleIJDpT_EEERNSD_IJDpT0_EEENS_15__tuple_indicesIJXspT1_EEEENSM_IJXspT2_EEEE, symObjAddr: 0x4B874, symBinAddr: 0x1000561FC, symSize: 0x138 }
  - { offsetInCU: 0x388EA, offset: 0x42F8C, size: 0x8, addend: 0x0, symName: __ZNSt3__112__tuple_leafILm0ERKNS_12basic_stringIcNS_11char_traitsIcEENS_9allocatorIcEEEELb0EE3getB7v160006Ev, symObjAddr: 0x4BA8C, symBinAddr: 0x100056414, symSize: 0xF4 }
  - { offsetInCU: 0x3890F, offset: 0x42FB1, size: 0x8, addend: 0x0, symName: __ZNSt3__117__compressed_pairIPNS_11__hash_nodeINS_17__hash_value_typeINS_12basic_stringIcNS_11char_traitsIcEENS_9allocatorIcEEEE5TableEEPvEENS_22__hash_node_destructorINS6_ISC_EEEEE6secondB7v160006Ev, symObjAddr: 0x4BB80, symBinAddr: 0x100056508, symSize: 0x12C }
  - { offsetInCU: 0x38934, offset: 0x42FD6, size: 0x8, addend: 0x0, symName: __ZNSt3__122__compressed_pair_elemINS_22__hash_node_destructorINS_9allocatorINS_11__hash_nodeINS_17__hash_value_typeINS_12basic_stringIcNS_11char_traitsIcEENS2_IcEEEE5TableEEPvEEEEEELi1ELb0EE5__getB7v160006Ev, symObjAddr: 0x4BCAC, symBinAddr: 0x100056634, symSize: 0xAC }
  - { offsetInCU: 0x38959, offset: 0x42FFB, size: 0x8, addend: 0x0, symName: __ZNSt3__117__compressed_pairImNS_22__unordered_map_hasherINS_12basic_stringIcNS_11char_traitsIcEENS_9allocatorIcEEEENS_17__hash_value_typeIS7_5TableEENS_4hashIS7_EENS_8equal_toIS7_EELb1EEEE5firstB7v160006Ev, symObjAddr: 0x4BD58, symBinAddr: 0x1000566E0, symSize: 0x124 }
  - { offsetInCU: 0x3897E, offset: 0x43020, size: 0x8, addend: 0x0, symName: __ZNSt3__122__compressed_pair_elemImLi0ELb0EE5__getB7v160006Ev, symObjAddr: 0x4BE7C, symBinAddr: 0x100056804, symSize: 0xAC }
  - { offsetInCU: 0x389A3, offset: 0x43045, size: 0x8, addend: 0x0, symName: __ZNSt3__117__compressed_pairIfNS_21__unordered_map_equalINS_12basic_stringIcNS_11char_traitsIcEENS_9allocatorIcEEEENS_17__hash_value_typeIS7_5TableEENS_8equal_toIS7_EENS_4hashIS7_EELb1EEEE5firstB7v160006Ev, symObjAddr: 0x4BF28, symBinAddr: 0x1000568B0, symSize: 0x124 }
  - { offsetInCU: 0x389C8, offset: 0x4306A, size: 0x8, addend: 0x0, symName: __ZNSt3__122__compressed_pair_elemIfLi0ELb0EE5__getB7v160006Ev, symObjAddr: 0x4C04C, symBinAddr: 0x1000569D4, symSize: 0xAC }
  - { offsetInCU: 0x389ED, offset: 0x4308F, size: 0x8, addend: 0x0, symName: __ZNSt3__112__hash_tableINS_17__hash_value_typeINS_12basic_stringIcNS_11char_traitsIcEENS_9allocatorIcEEEE5TableEENS_22__unordered_map_hasherIS7_S9_NS_4hashIS7_EENS_8equal_toIS7_EELb1EEENS_21__unordered_map_equalIS7_S9_SE_SC_Lb1EEENS5_IS9_EEE8__rehashILb1EEEvm, symObjAddr: 0x4C0F8, symBinAddr: 0x100056A80, symSize: 0x9CC }
  - { offsetInCU: 0x38A42, offset: 0x430E4, size: 0x8, addend: 0x0, symName: __ZNSt3__112__hash_tableINS_17__hash_value_typeINS_12basic_stringIcNS_11char_traitsIcEENS_9allocatorIcEEEE5TableEENS_22__unordered_map_hasherIS7_S9_NS_4hashIS7_EENS_8equal_toIS7_EELb1EEENS_21__unordered_map_equalIS7_S9_SE_SC_Lb1EEENS5_IS9_EEE11__do_rehashILb1EEEvm, symObjAddr: 0x4CAC4, symBinAddr: 0x10005744C, symSize: 0x108C }
  - { offsetInCU: 0x38B2A, offset: 0x431CC, size: 0x8, addend: 0x0, symName: __ZNSt3__110unique_ptrIA_PNS_16__hash_node_baseIPNS_11__hash_nodeINS_17__hash_value_typeINS_12basic_stringIcNS_11char_traitsIcEENS_9allocatorIcEEEE5TableEEPvEEEENS_25__bucket_list_deallocatorINS7_ISG_EEEEE11get_deleterB7v160006Ev, symObjAddr: 0x4DC2C, symBinAddr: 0x1000585B4, symSize: 0xF8 }
  - { offsetInCU: 0x38B4F, offset: 0x431F1, size: 0x8, addend: 0x0, symName: __ZNSt3__125__bucket_list_deallocatorINS_9allocatorIPNS_16__hash_node_baseIPNS_11__hash_nodeINS_17__hash_value_typeINS_12basic_stringIcNS_11char_traitsIcEENS1_IcEEEE5TableEEPvEEEEEEE7__allocB7v160006Ev, symObjAddr: 0x4DD24, symBinAddr: 0x1000586AC, symSize: 0xDC }
  - { offsetInCU: 0x38B74, offset: 0x43216, size: 0x8, addend: 0x0, symName: __ZNSt3__110unique_ptrIA_PNS_16__hash_node_baseIPNS_11__hash_nodeINS_17__hash_value_typeINS_12basic_stringIcNS_11char_traitsIcEENS_9allocatorIcEEEE5TableEEPvEEEENS_25__bucket_list_deallocatorINS7_ISG_EEEEE5resetB7v160006IPSG_EENS_9enable_ifIXsr28_CheckArrayPointerConversionIT_EE5valueEvE4typeESP_, symObjAddr: 0x4DE00, symBinAddr: 0x100058788, symSize: 0x2CC }
  - { offsetInCU: 0x38BC0, offset: 0x43262, size: 0x8, addend: 0x0, symName: __ZNSt3__116allocator_traitsINS_9allocatorIPNS_16__hash_node_baseIPNS_11__hash_nodeINS_17__hash_value_typeINS_12basic_stringIcNS_11char_traitsIcEENS1_IcEEEE5TableEEPvEEEEEEE8allocateB7v160006ERSH_m, symObjAddr: 0x4E0CC, symBinAddr: 0x100058A54, symSize: 0x2C }
  - { offsetInCU: 0x38BF3, offset: 0x43295, size: 0x8, addend: 0x0, symName: __ZNSt3__125__bucket_list_deallocatorINS_9allocatorIPNS_16__hash_node_baseIPNS_11__hash_nodeINS_17__hash_value_typeINS_12basic_stringIcNS_11char_traitsIcEENS1_IcEEEE5TableEEPvEEEEEEE4sizeB7v160006Ev, symObjAddr: 0x4E0F8, symBinAddr: 0x100058A80, symSize: 0xF8 }
  - { offsetInCU: 0x38C18, offset: 0x432BA, size: 0x8, addend: 0x0, symName: __ZNSt3__117__compressed_pairIPPNS_16__hash_node_baseIPNS_11__hash_nodeINS_17__hash_value_typeINS_12basic_stringIcNS_11char_traitsIcEENS_9allocatorIcEEEE5TableEEPvEEEENS_25__bucket_list_deallocatorINS7_ISG_EEEEE6secondB7v160006Ev, symObjAddr: 0x4E1F0, symBinAddr: 0x100058B78, symSize: 0x12C }
  - { offsetInCU: 0x38C3D, offset: 0x432DF, size: 0x8, addend: 0x0, symName: __ZNSt3__122__compressed_pair_elemINS_25__bucket_list_deallocatorINS_9allocatorIPNS_16__hash_node_baseIPNS_11__hash_nodeINS_17__hash_value_typeINS_12basic_stringIcNS_11char_traitsIcEENS2_IcEEEE5TableEEPvEEEEEEEELi1ELb0EE5__getB7v160006Ev, symObjAddr: 0x4E31C, symBinAddr: 0x100058CA4, symSize: 0xAC }
  - { offsetInCU: 0x38C62, offset: 0x43304, size: 0x8, addend: 0x0, symName: __ZNSt3__117__compressed_pairImNS_9allocatorIPNS_16__hash_node_baseIPNS_11__hash_nodeINS_17__hash_value_typeINS_12basic_stringIcNS_11char_traitsIcEENS1_IcEEEE5TableEEPvEEEEEEE6secondB7v160006Ev, symObjAddr: 0x4E3C8, symBinAddr: 0x100058D50, symSize: 0x108 }
  - { offsetInCU: 0x38C87, offset: 0x43329, size: 0x8, addend: 0x0, symName: __ZNSt3__122__compressed_pair_elemINS_9allocatorIPNS_16__hash_node_baseIPNS_11__hash_nodeINS_17__hash_value_typeINS_12basic_stringIcNS_11char_traitsIcEENS1_IcEEEE5TableEEPvEEEEEELi1ELb1EE5__getB7v160006Ev, symObjAddr: 0x4E4D0, symBinAddr: 0x100058E58, symSize: 0x74 }
  - { offsetInCU: 0x38CAC, offset: 0x4334E, size: 0x8, addend: 0x0, symName: __ZNSt3__117__compressed_pairIPPNS_16__hash_node_baseIPNS_11__hash_nodeINS_17__hash_value_typeINS_12basic_stringIcNS_11char_traitsIcEENS_9allocatorIcEEEE5TableEEPvEEEENS_25__bucket_list_deallocatorINS7_ISG_EEEEE5firstB7v160006Ev, symObjAddr: 0x4E544, symBinAddr: 0x100058ECC, symSize: 0x124 }
  - { offsetInCU: 0x38CD1, offset: 0x43373, size: 0x8, addend: 0x0, symName: __ZNSt3__125__bucket_list_deallocatorINS_9allocatorIPNS_16__hash_node_baseIPNS_11__hash_nodeINS_17__hash_value_typeINS_12basic_stringIcNS_11char_traitsIcEENS1_IcEEEE5TableEEPvEEEEEEEclB7v160006EPSG_, symObjAddr: 0x4E668, symBinAddr: 0x100058FF0, symSize: 0x140 }
  - { offsetInCU: 0x38D05, offset: 0x433A7, size: 0x8, addend: 0x0, symName: __ZNSt3__122__compressed_pair_elemIPPNS_16__hash_node_baseIPNS_11__hash_nodeINS_17__hash_value_typeINS_12basic_stringIcNS_11char_traitsIcEENS_9allocatorIcEEEE5TableEEPvEEEELi0ELb0EE5__getB7v160006Ev, symObjAddr: 0x4E7A8, symBinAddr: 0x100059130, symSize: 0xAC }
  - { offsetInCU: 0x38D2A, offset: 0x433CC, size: 0x8, addend: 0x0, symName: __ZNSt3__116allocator_traitsINS_9allocatorIPNS_16__hash_node_baseIPNS_11__hash_nodeINS_17__hash_value_typeINS_12basic_stringIcNS_11char_traitsIcEENS1_IcEEEE5TableEEPvEEEEEEE10deallocateB7v160006ERSH_PSG_m, symObjAddr: 0x4E854, symBinAddr: 0x1000591DC, symSize: 0x34 }
  - { offsetInCU: 0x38D6C, offset: 0x4340E, size: 0x8, addend: 0x0, symName: __ZNSt3__19allocatorIPNS_16__hash_node_baseIPNS_11__hash_nodeINS_17__hash_value_typeINS_12basic_stringIcNS_11char_traitsIcEENS0_IcEEEE5TableEEPvEEEEE10deallocateB7v160006EPSF_m, symObjAddr: 0x4E888, symBinAddr: 0x100059210, symSize: 0x78 }
  - { offsetInCU: 0x38DAD, offset: 0x4344F, size: 0x8, addend: 0x0, symName: __ZNSt3__19allocatorIPNS_16__hash_node_baseIPNS_11__hash_nodeINS_17__hash_value_typeINS_12basic_stringIcNS_11char_traitsIcEENS0_IcEEEE5TableEEPvEEEEE8allocateB7v160006Em, symObjAddr: 0x4E900, symBinAddr: 0x100059288, symSize: 0xCC }
  - { offsetInCU: 0x38DEA, offset: 0x4348C, size: 0x8, addend: 0x0, symName: __ZNSt3__116allocator_traitsINS_9allocatorIPNS_16__hash_node_baseIPNS_11__hash_nodeINS_17__hash_value_typeINS_12basic_stringIcNS_11char_traitsIcEENS1_IcEEEE5TableEEPvEEEEEEE8max_sizeB7v160006ISH_vEEmRKSH_, symObjAddr: 0x4E9CC, symBinAddr: 0x100059354, symSize: 0x24 }
  - { offsetInCU: 0x38E19, offset: 0x434BB, size: 0x8, addend: 0x0, symName: __ZNKSt3__19allocatorIPNS_16__hash_node_baseIPNS_11__hash_nodeINS_17__hash_value_typeINS_12basic_stringIcNS_11char_traitsIcEENS0_IcEEEE5TableEEPvEEEEE8max_sizeB7v160006Ev, symObjAddr: 0x4E9F0, symBinAddr: 0x100059378, symSize: 0x4C }
  - { offsetInCU: 0x38E3E, offset: 0x434E0, size: 0x8, addend: 0x0, symName: __ZNSt3__117__compressed_pairImNS_9allocatorIPNS_16__hash_node_baseIPNS_11__hash_nodeINS_17__hash_value_typeINS_12basic_stringIcNS_11char_traitsIcEENS1_IcEEEE5TableEEPvEEEEEEE5firstB7v160006Ev, symObjAddr: 0x4EA3C, symBinAddr: 0x1000593C4, symSize: 0x124 }
  - { offsetInCU: 0x38E63, offset: 0x43505, size: 0x8, addend: 0x0, symName: __ZNSt3__122__compressed_pair_elemINS_16__hash_node_baseIPNS_11__hash_nodeINS_17__hash_value_typeINS_12basic_stringIcNS_11char_traitsIcEENS_9allocatorIcEEEE5TableEEPvEEEELi0ELb0EE5__getB7v160006Ev, symObjAddr: 0x4EB7C, symBinAddr: 0x100059504, symSize: 0xAC }
  - { offsetInCU: 0x38E88, offset: 0x4352A, size: 0x8, addend: 0x0, symName: __ZNKSt3__117__compressed_pairIPNS_11__hash_nodeINS_17__hash_value_typeINS_12basic_stringIcNS_11char_traitsIcEENS_9allocatorIcEEEE5TableEEPvEENS_22__hash_node_destructorINS6_ISC_EEEEE5firstB7v160006Ev, symObjAddr: 0x4EC28, symBinAddr: 0x1000595B0, symSize: 0x124 }
  - { offsetInCU: 0x38EAD, offset: 0x4354F, size: 0x8, addend: 0x0, symName: __ZNKSt3__122__compressed_pair_elemIPNS_11__hash_nodeINS_17__hash_value_typeINS_12basic_stringIcNS_11char_traitsIcEENS_9allocatorIcEEEE5TableEEPvEELi0ELb0EE5__getB7v160006Ev, symObjAddr: 0x4ED4C, symBinAddr: 0x1000596D4, symSize: 0xAC }
  - { offsetInCU: 0x38ED2, offset: 0x43574, size: 0x8, addend: 0x0, symName: __ZNSt3__117__compressed_pairIPNS_11__hash_nodeINS_17__hash_value_typeINS_12basic_stringIcNS_11char_traitsIcEENS_9allocatorIcEEEE5TableEEPvEENS_22__hash_node_destructorINS6_ISC_EEEEE5firstB7v160006Ev, symObjAddr: 0x4EDF8, symBinAddr: 0x100059780, symSize: 0x124 }
  - { offsetInCU: 0x38EF7, offset: 0x43599, size: 0x8, addend: 0x0, symName: __ZNSt3__122__compressed_pair_elemIPNS_11__hash_nodeINS_17__hash_value_typeINS_12basic_stringIcNS_11char_traitsIcEENS_9allocatorIcEEEE5TableEEPvEELi0ELb0EE5__getB7v160006Ev, symObjAddr: 0x4EF1C, symBinAddr: 0x1000598A4, symSize: 0xAC }
  - { offsetInCU: 0x38F1C, offset: 0x435BE, size: 0x8, addend: 0x0, symName: __ZNSt3__110unique_ptrINS_11__hash_nodeINS_17__hash_value_typeINS_12basic_stringIcNS_11char_traitsIcEENS_9allocatorIcEEEE5TableEEPvEENS_22__hash_node_destructorINS6_ISC_EEEEED2B7v160006Ev, symObjAddr: 0x4EFC8, symBinAddr: 0x100059950, symSize: 0x7C }
  - { offsetInCU: 0x38F44, offset: 0x435E6, size: 0x8, addend: 0x0, symName: __ZNSt3__110unique_ptrINS_11__hash_nodeINS_17__hash_value_typeINS_12basic_stringIcNS_11char_traitsIcEENS_9allocatorIcEEEE5TableEEPvEENS_22__hash_node_destructorINS6_ISC_EEEEE5resetB7v160006EPSC_, symObjAddr: 0x4F044, symBinAddr: 0x1000599CC, symSize: 0x2CC }
  - { offsetInCU: 0x38F87, offset: 0x43629, size: 0x8, addend: 0x0, symName: __ZNSt3__122__hash_node_destructorINS_9allocatorINS_11__hash_nodeINS_17__hash_value_typeINS_12basic_stringIcNS_11char_traitsIcEENS1_IcEEEE5TableEEPvEEEEEclB7v160006EPSC_, symObjAddr: 0x4F310, symBinAddr: 0x100059C98, symSize: 0x2C0 }
  - { offsetInCU: 0x38FBB, offset: 0x4365D, size: 0x8, addend: 0x0, symName: __ZNSt3__116allocator_traitsINS_9allocatorINS_11__hash_nodeINS_17__hash_value_typeINS_12basic_stringIcNS_11char_traitsIcEENS1_IcEEEE5TableEEPvEEEEE7destroyB7v160006INS_4pairIKS8_S9_EEvvEEvRSD_PT_, symObjAddr: 0x4F5D0, symBinAddr: 0x100059F58, symSize: 0x70 }
  - { offsetInCU: 0x38FF8, offset: 0x4369A, size: 0x8, addend: 0x0, symName: __ZNSt3__116allocator_traitsINS_9allocatorINS_11__hash_nodeINS_17__hash_value_typeINS_12basic_stringIcNS_11char_traitsIcEENS1_IcEEEE5TableEEPvEEEEE10deallocateB7v160006ERSD_PSC_m, symObjAddr: 0x4F640, symBinAddr: 0x100059FC8, symSize: 0x34 }
  - { offsetInCU: 0x3903A, offset: 0x436DC, size: 0x8, addend: 0x0, symName: __ZNSt3__14pairIKNS_12basic_stringIcNS_11char_traitsIcEENS_9allocatorIcEEEE5TableED1Ev, symObjAddr: 0x4F674, symBinAddr: 0x100059FFC, symSize: 0x78 }
  - { offsetInCU: 0x39065, offset: 0x43707, size: 0x8, addend: 0x0, symName: __ZNSt3__14pairIKNS_12basic_stringIcNS_11char_traitsIcEENS_9allocatorIcEEEE5TableED2Ev, symObjAddr: 0x4F6EC, symBinAddr: 0x10005A074, symSize: 0x84 }
  - { offsetInCU: 0x39090, offset: 0x43732, size: 0x8, addend: 0x0, symName: __ZNSt3__19allocatorINS_11__hash_nodeINS_17__hash_value_typeINS_12basic_stringIcNS_11char_traitsIcEENS0_IcEEEE5TableEEPvEEE10deallocateB7v160006EPSB_m, symObjAddr: 0x4F770, symBinAddr: 0x10005A0F8, symSize: 0x7C }
  - { offsetInCU: 0x390D1, offset: 0x43773, size: 0x8, addend: 0x0, symName: __ZNSt3__14pairINS_15__hash_iteratorIPNS_11__hash_nodeINS_17__hash_value_typeINS_12basic_stringIcNS_11char_traitsIcEENS_9allocatorIcEEEE5TableEEPvEEEEbEC2B7v160006ISF_RbLSC_0EEEOT_OT0_, symObjAddr: 0x4F7EC, symBinAddr: 0x10005A174, symSize: 0x1C8 }
  - { offsetInCU: 0x3912D, offset: 0x437CF, size: 0x8, addend: 0x0, symName: __ZNSt3__15tupleIJRKNS_12basic_stringIcNS_11char_traitsIcEENS_9allocatorIcEEEEEEC1B7v160006INS_4_AndELi0EEES8_, symObjAddr: 0x4F9B4, symBinAddr: 0x10005A33C, symSize: 0x80 }
  - { offsetInCU: 0x39174, offset: 0x43816, size: 0x8, addend: 0x0, symName: __ZNSt3__15tupleIJRKNS_12basic_stringIcNS_11char_traitsIcEENS_9allocatorIcEEEEEEC2B7v160006INS_4_AndELi0EEES8_, symObjAddr: 0x4FA34, symBinAddr: 0x10005A3BC, symSize: 0xC8 }
  - { offsetInCU: 0x391BB, offset: 0x4385D, size: 0x8, addend: 0x0, symName: __ZNSt3__112__tuple_implINS_15__tuple_indicesIJLm0EEEEJRKNS_12basic_stringIcNS_11char_traitsIcEENS_9allocatorIcEEEEEEC1B7v160006IJLm0EEJSA_EJEJEJSA_EEENS1_IJXspT_EEEENS_13__tuple_typesIJDpT0_EEENS1_IJXspT1_EEEENSE_IJDpT2_EEEDpOT3_, symObjAddr: 0x4FAFC, symBinAddr: 0x10005A484, symSize: 0x80 }
  - { offsetInCU: 0x39253, offset: 0x438F5, size: 0x8, addend: 0x0, symName: __ZNSt3__112__tuple_implINS_15__tuple_indicesIJLm0EEEEJRKNS_12basic_stringIcNS_11char_traitsIcEENS_9allocatorIcEEEEEEC2B7v160006IJLm0EEJSA_EJEJEJSA_EEENS1_IJXspT_EEEENS_13__tuple_typesIJDpT0_EEENS1_IJXspT1_EEEENSE_IJDpT2_EEEDpOT3_, symObjAddr: 0x4FB7C, symBinAddr: 0x10005A504, symSize: 0x10C }
  - { offsetInCU: 0x392EB, offset: 0x4398D, size: 0x8, addend: 0x0, symName: __ZNSt3__112__tuple_leafILm0ERKNS_12basic_stringIcNS_11char_traitsIcEENS_9allocatorIcEEEELb0EEC2B7v160006IS8_vEEOT_, symObjAddr: 0x4FC88, symBinAddr: 0x10005A610, symSize: 0x108 }
  - { offsetInCU: 0x3932D, offset: 0x439CF, size: 0x8, addend: 0x0, symName: __ZNSt3__114pointer_traitsIPNS_17__hash_value_typeINS_12basic_stringIcNS_11char_traitsIcEENS_9allocatorIcEEEE5TableEEE10pointer_toB7v160006ERS9_, symObjAddr: 0x4FD90, symBinAddr: 0x10005A718, symSize: 0x14 }
  - { offsetInCU: 0x39350, offset: 0x439F2, size: 0x8, addend: 0x0, symName: __ZNSt3__16vectorINS_12basic_stringIcNS_11char_traitsIcEENS_9allocatorIcEEEENS4_IS6_EEEaSB7v160006ERKS8_, symObjAddr: 0x4FDDC, symBinAddr: 0x10005A764, symSize: 0x218 }
  - { offsetInCU: 0x39386, offset: 0x43A28, size: 0x8, addend: 0x0, symName: __ZNSt3__16vectorI10ColumnTypeNS_9allocatorIS1_EEEaSB7v160006ERKS4_, symObjAddr: 0x4FFF4, symBinAddr: 0x10005A97C, symSize: 0x218 }
  - { offsetInCU: 0x393BC, offset: 0x43A5E, size: 0x8, addend: 0x0, symName: __ZNSt3__16vectorINS0_INS_7variantIJidbNS_12basic_stringIcNS_11char_traitsIcEENS_9allocatorIcEEEEEEENS5_IS8_EEEENS5_ISA_EEEaSB7v160006ERKSC_, symObjAddr: 0x5020C, symBinAddr: 0x10005AB94, symSize: 0x218 }
  - { offsetInCU: 0x393F2, offset: 0x43A94, size: 0x8, addend: 0x0, symName: __ZNSt3__113unordered_mapINS_7variantIJidbNS_12basic_stringIcNS_11char_traitsIcEENS_9allocatorIcEEEEEEENS_6vectorIjNS5_IjEEEENS_4hashIS8_EENS_8equal_toIS8_EENS5_INS_4pairIKS8_SB_EEEEEaSB7v160006ERKSK_, symObjAddr: 0x50424, symBinAddr: 0x10005ADAC, symSize: 0x148 }
  - { offsetInCU: 0x39426, offset: 0x43AC8, size: 0x8, addend: 0x0, symName: __ZNSt3__13mapINS_7variantIJidbNS_12basic_stringIcNS_11char_traitsIcEENS_9allocatorIcEEEEEEENS_6vectorIjNS5_IjEEEENS_4lessIS8_EENS5_INS_4pairIKS8_SB_EEEEEaSB7v160006ERKSI_, symObjAddr: 0x5056C, symBinAddr: 0x10005AEF4, symSize: 0x148 }
  - { offsetInCU: 0x3945A, offset: 0x43AFC, size: 0x8, addend: 0x0, symName: __ZNSt3__16vectorINS_12basic_stringIcNS_11char_traitsIcEENS_9allocatorIcEEEENS4_IS6_EEE19__copy_assign_allocB7v160006ERKS8_, symObjAddr: 0x506B4, symBinAddr: 0x10005B03C, symSize: 0xBC }
  - { offsetInCU: 0x3948E, offset: 0x43B30, size: 0x8, addend: 0x0, symName: __ZNSt3__16vectorINS_12basic_stringIcNS_11char_traitsIcEENS_9allocatorIcEEEENS4_IS6_EEE6assignIPS6_Li0EEEvT_SB_, symObjAddr: 0x50770, symBinAddr: 0x10005B0F8, symSize: 0x4B4 }
  - { offsetInCU: 0x3952F, offset: 0x43BD1, size: 0x8, addend: 0x0, symName: __ZNSt3__16vectorINS_12basic_stringIcNS_11char_traitsIcEENS_9allocatorIcEEEENS4_IS6_EEE19__copy_assign_allocB7v160006ERKS8_NS_17integral_constantIbLb0EEE, symObjAddr: 0x50C24, symBinAddr: 0x10005B5AC, symSize: 0x64 }
  - { offsetInCU: 0x3956C, offset: 0x43C0E, size: 0x8, addend: 0x0, symName: __ZNSt3__16vectorINS_12basic_stringIcNS_11char_traitsIcEENS_9allocatorIcEEEENS4_IS6_EEE18__construct_at_endIPS6_Li0EEEvT_SB_m, symObjAddr: 0x51000, symBinAddr: 0x10005B988, symSize: 0x494 }
  - { offsetInCU: 0x395E7, offset: 0x43C89, size: 0x8, addend: 0x0, symName: __ZNSt3__16vectorINS_12basic_stringIcNS_11char_traitsIcEENS_9allocatorIcEEEENS4_IS6_EEE13__vdeallocateEv, symObjAddr: 0x51494, symBinAddr: 0x10005BE1C, symSize: 0x23C }
  - { offsetInCU: 0x3960E, offset: 0x43CB0, size: 0x8, addend: 0x0, symName: __ZNSt3__16vectorINS_12basic_stringIcNS_11char_traitsIcEENS_9allocatorIcEEEENS4_IS6_EEE11__vallocateB7v160006Em, symObjAddr: 0x516D0, symBinAddr: 0x10005C058, symSize: 0x5F0 }
  - { offsetInCU: 0x3967A, offset: 0x43D1C, size: 0x8, addend: 0x0, symName: __ZNKSt3__111__copy_loopINS_17_ClassicAlgPolicyEEclB7v160006IPNS_12basic_stringIcNS_11char_traitsIcEENS_9allocatorIcEEEESA_SA_EENS_4pairIT_T1_EESC_T0_SD_, symObjAddr: 0x52C7C, symBinAddr: 0x10005D604, symSize: 0x66C }
  - { offsetInCU: 0x396EE, offset: 0x43D90, size: 0x8, addend: 0x0, symName: __ZNSt3__118__unwrap_iter_implIPNS_12basic_stringIcNS_11char_traitsIcEENS_9allocatorIcEEEELb1EE8__unwrapB7v160006ES7_, symObjAddr: 0x53620, symBinAddr: 0x10005DFA8, symSize: 0x24 }
  - { offsetInCU: 0x39716, offset: 0x43DB8, size: 0x8, addend: 0x0, symName: __ZNSt3__14pairIPNS_12basic_stringIcNS_11char_traitsIcEENS_9allocatorIcEEEES7_EC1B7v160006IS7_S7_LPv0EEEOT_OT0_, symObjAddr: 0x53644, symBinAddr: 0x10005DFCC, symSize: 0x88 }
  - { offsetInCU: 0x39772, offset: 0x43E14, size: 0x8, addend: 0x0, symName: __ZNSt3__14pairIPNS_12basic_stringIcNS_11char_traitsIcEENS_9allocatorIcEEEES7_EC2B7v160006IS7_S7_LPv0EEEOT_OT0_, symObjAddr: 0x536CC, symBinAddr: 0x10005E054, symSize: 0x210 }
  - { offsetInCU: 0x397CE, offset: 0x43E70, size: 0x8, addend: 0x0, symName: __ZNSt3__118__unwrap_iter_implIPNS_12basic_stringIcNS_11char_traitsIcEENS_9allocatorIcEEEELb1EE8__rewrapB7v160006ES7_S7_, symObjAddr: 0x538DC, symBinAddr: 0x10005E264, symSize: 0x140 }
  - { offsetInCU: 0x397FF, offset: 0x43EA1, size: 0x8, addend: 0x0, symName: __ZNSt3__129_AllocatorDestroyRangeReverseINS_9allocatorINS_12basic_stringIcNS_11char_traitsIcEENS1_IcEEEEEEPS6_EC1B7v160006ERS7_RS8_SB_, symObjAddr: 0x54344, symBinAddr: 0x10005ECCC, symSize: 0x90 }
  - { offsetInCU: 0x39854, offset: 0x43EF6, size: 0x8, addend: 0x0, symName: __ZNSt3__116allocator_traitsINS_9allocatorINS_12basic_stringIcNS_11char_traitsIcEENS1_IcEEEEEEE9constructB7v160006IS6_JRS6_EvEEvRS7_PT_DpOT0_, symObjAddr: 0x543D4, symBinAddr: 0x10005ED5C, symSize: 0x8C }
  - { offsetInCU: 0x398AD, offset: 0x43F4F, size: 0x8, addend: 0x0, symName: __ZNSt3__128__exception_guard_exceptionsINS_29_AllocatorDestroyRangeReverseINS_9allocatorINS_12basic_stringIcNS_11char_traitsIcEENS2_IcEEEEEEPS7_EEE10__completeB7v160006Ev, symObjAddr: 0x54460, symBinAddr: 0x10005EDE8, symSize: 0xD8 }
  - { offsetInCU: 0x398D2, offset: 0x43F74, size: 0x8, addend: 0x0, symName: __ZNSt3__128__exception_guard_exceptionsINS_29_AllocatorDestroyRangeReverseINS_9allocatorINS_12basic_stringIcNS_11char_traitsIcEENS2_IcEEEEEEPS7_EEED1B7v160006Ev, symObjAddr: 0x54538, symBinAddr: 0x10005EEC0, symSize: 0x78 }
  - { offsetInCU: 0x398FA, offset: 0x43F9C, size: 0x8, addend: 0x0, symName: __ZNSt3__128__exception_guard_exceptionsINS_29_AllocatorDestroyRangeReverseINS_9allocatorINS_12basic_stringIcNS_11char_traitsIcEENS2_IcEEEEEEPS7_EEEC1B7v160006ESA_, symObjAddr: 0x545B0, symBinAddr: 0x10005EF38, symSize: 0x84 }
  - { offsetInCU: 0x39931, offset: 0x43FD3, size: 0x8, addend: 0x0, symName: __ZNSt3__128__exception_guard_exceptionsINS_29_AllocatorDestroyRangeReverseINS_9allocatorINS_12basic_stringIcNS_11char_traitsIcEENS2_IcEEEEEEPS7_EEEC2B7v160006ESA_, symObjAddr: 0x54634, symBinAddr: 0x10005EFBC, symSize: 0xF8 }
  - { offsetInCU: 0x39968, offset: 0x4400A, size: 0x8, addend: 0x0, symName: __ZNSt3__129_AllocatorDestroyRangeReverseINS_9allocatorINS_12basic_stringIcNS_11char_traitsIcEENS1_IcEEEEEEPS6_EC2B7v160006ERS7_RS8_SB_, symObjAddr: 0x5472C, symBinAddr: 0x10005F0B4, symSize: 0x20C }
  - { offsetInCU: 0x399BD, offset: 0x4405F, size: 0x8, addend: 0x0, symName: __ZNSt3__19allocatorINS_12basic_stringIcNS_11char_traitsIcEENS0_IcEEEEE9constructB7v160006IS5_JRS5_EEEvPT_DpOT0_, symObjAddr: 0x54938, symBinAddr: 0x10005F2C0, symSize: 0xEC }
  - { offsetInCU: 0x39A13, offset: 0x440B5, size: 0x8, addend: 0x0, symName: __ZNSt3__128__exception_guard_exceptionsINS_29_AllocatorDestroyRangeReverseINS_9allocatorINS_12basic_stringIcNS_11char_traitsIcEENS2_IcEEEEEEPS7_EEED2B7v160006Ev, symObjAddr: 0x54A24, symBinAddr: 0x10005F3AC, symSize: 0x17C }
  - { offsetInCU: 0x39A3B, offset: 0x440DD, size: 0x8, addend: 0x0, symName: __ZNKSt3__129_AllocatorDestroyRangeReverseINS_9allocatorINS_12basic_stringIcNS_11char_traitsIcEENS1_IcEEEEEEPS6_EclB7v160006Ev, symObjAddr: 0x54BA0, symBinAddr: 0x10005F528, symSize: 0x40C }
  - { offsetInCU: 0x39A61, offset: 0x44103, size: 0x8, addend: 0x0, symName: __ZNSt3__16vectorINS_12basic_stringIcNS_11char_traitsIcEENS_9allocatorIcEEEENS4_IS6_EEE5clearB7v160006Ev, symObjAddr: 0x55288, symBinAddr: 0x10005FC10, symSize: 0x90 }
  - { offsetInCU: 0x39A95, offset: 0x44137, size: 0x8, addend: 0x0, symName: __ZNSt3__16vectorINS_12basic_stringIcNS_11char_traitsIcEENS_9allocatorIcEEEENS4_IS6_EEE7__clearB7v160006Ev, symObjAddr: 0x55318, symBinAddr: 0x10005FCA0, symSize: 0xB0 }
  - { offsetInCU: 0x39ABA, offset: 0x4415C, size: 0x8, addend: 0x0, symName: __ZNSt3__16vectorI10ColumnTypeNS_9allocatorIS1_EEE19__copy_assign_allocB7v160006ERKS4_, symObjAddr: 0x553C8, symBinAddr: 0x10005FD50, symSize: 0xBC }
  - { offsetInCU: 0x39AEE, offset: 0x44190, size: 0x8, addend: 0x0, symName: __ZNSt3__16vectorI10ColumnTypeNS_9allocatorIS1_EEE6assignIPS1_Li0EEEvT_S7_, symObjAddr: 0x55484, symBinAddr: 0x10005FE0C, symSize: 0x4B4 }
  - { offsetInCU: 0x39B8F, offset: 0x44231, size: 0x8, addend: 0x0, symName: __ZNSt3__16vectorI10ColumnTypeNS_9allocatorIS1_EEE19__copy_assign_allocB7v160006ERKS4_NS_17integral_constantIbLb0EEE, symObjAddr: 0x55938, symBinAddr: 0x1000602C0, symSize: 0x64 }
  - { offsetInCU: 0x39BCC, offset: 0x4426E, size: 0x8, addend: 0x0, symName: __ZNSt3__16vectorI10ColumnTypeNS_9allocatorIS1_EEE18__construct_at_endIPS1_Li0EEEvT_S7_m, symObjAddr: 0x55D14, symBinAddr: 0x10006069C, symSize: 0x494 }
  - { offsetInCU: 0x39C47, offset: 0x442E9, size: 0x8, addend: 0x0, symName: __ZNSt3__16vectorI10ColumnTypeNS_9allocatorIS1_EEE13__vdeallocateEv, symObjAddr: 0x561A8, symBinAddr: 0x100060B30, symSize: 0x23C }
  - { offsetInCU: 0x39C6E, offset: 0x44310, size: 0x8, addend: 0x0, symName: __ZNSt3__16vectorI10ColumnTypeNS_9allocatorIS1_EEE11__vallocateB7v160006Em, symObjAddr: 0x563E4, symBinAddr: 0x100060D6C, symSize: 0x5E8 }
  - { offsetInCU: 0x39CDA, offset: 0x4437C, size: 0x8, addend: 0x0, symName: __ZNKSt3__114__copy_trivialclB7v160006I10ColumnTypeS2_Li0EEENS_4pairIPT_PT0_EES5_S5_S7_, symObjAddr: 0x57964, symBinAddr: 0x1000622EC, symSize: 0x25C }
  - { offsetInCU: 0x39D4B, offset: 0x443ED, size: 0x8, addend: 0x0, symName: __ZNSt3__14pairIP10ColumnTypeS2_EC1B7v160006IRS2_S2_LPv0EEEOT_OT0_, symObjAddr: 0x58610, symBinAddr: 0x100062F98, symSize: 0x88 }
  - { offsetInCU: 0x39DA7, offset: 0x44449, size: 0x8, addend: 0x0, symName: __ZNSt3__14pairIP10ColumnTypeS2_EC2B7v160006IRS2_S2_LPv0EEEOT_OT0_, symObjAddr: 0x58698, symBinAddr: 0x100063020, symSize: 0x210 }
  - { offsetInCU: 0x39E03, offset: 0x444A5, size: 0x8, addend: 0x0, symName: __ZNSt3__118__unwrap_iter_implIP10ColumnTypeLb1EE8__unwrapB7v160006ES2_, symObjAddr: 0x588A8, symBinAddr: 0x100063230, symSize: 0x24 }
  - { offsetInCU: 0x39E26, offset: 0x444C8, size: 0x8, addend: 0x0, symName: __ZNSt3__14pairIP10ColumnTypeS2_EC1B7v160006IS2_S2_LPv0EEEOT_OT0_, symObjAddr: 0x588CC, symBinAddr: 0x100063254, symSize: 0x88 }
  - { offsetInCU: 0x39E82, offset: 0x44524, size: 0x8, addend: 0x0, symName: __ZNSt3__14pairIP10ColumnTypeS2_EC2B7v160006IS2_S2_LPv0EEEOT_OT0_, symObjAddr: 0x58954, symBinAddr: 0x1000632DC, symSize: 0x210 }
  - { offsetInCU: 0x39EDE, offset: 0x44580, size: 0x8, addend: 0x0, symName: __ZNSt3__118__unwrap_iter_implIP10ColumnTypeLb1EE8__rewrapB7v160006ES2_S2_, symObjAddr: 0x58B64, symBinAddr: 0x1000634EC, symSize: 0x134 }
  - { offsetInCU: 0x39F0F, offset: 0x445B1, size: 0x8, addend: 0x0, symName: __ZNSt3__129_AllocatorDestroyRangeReverseINS_9allocatorI10ColumnTypeEEPS2_EC1B7v160006ERS3_RS4_S7_, symObjAddr: 0x595A4, symBinAddr: 0x100063F2C, symSize: 0x90 }
  - { offsetInCU: 0x39F64, offset: 0x44606, size: 0x8, addend: 0x0, symName: __ZNSt3__116allocator_traitsINS_9allocatorI10ColumnTypeEEE9constructB7v160006IS2_JRS2_EvEEvRS3_PT_DpOT0_, symObjAddr: 0x59634, symBinAddr: 0x100063FBC, symSize: 0x70 }
  - { offsetInCU: 0x39FBD, offset: 0x4465F, size: 0x8, addend: 0x0, symName: __ZNSt3__128__exception_guard_exceptionsINS_29_AllocatorDestroyRangeReverseINS_9allocatorI10ColumnTypeEEPS3_EEE10__completeB7v160006Ev, symObjAddr: 0x596A4, symBinAddr: 0x10006402C, symSize: 0xD8 }
  - { offsetInCU: 0x39FE2, offset: 0x44684, size: 0x8, addend: 0x0, symName: __ZNSt3__128__exception_guard_exceptionsINS_29_AllocatorDestroyRangeReverseINS_9allocatorI10ColumnTypeEEPS3_EEED1B7v160006Ev, symObjAddr: 0x5977C, symBinAddr: 0x100064104, symSize: 0x78 }
  - { offsetInCU: 0x3A00A, offset: 0x446AC, size: 0x8, addend: 0x0, symName: __ZNSt3__128__exception_guard_exceptionsINS_29_AllocatorDestroyRangeReverseINS_9allocatorI10ColumnTypeEEPS3_EEEC1B7v160006ES6_, symObjAddr: 0x597F4, symBinAddr: 0x10006417C, symSize: 0x84 }
  - { offsetInCU: 0x3A041, offset: 0x446E3, size: 0x8, addend: 0x0, symName: __ZNSt3__128__exception_guard_exceptionsINS_29_AllocatorDestroyRangeReverseINS_9allocatorI10ColumnTypeEEPS3_EEEC2B7v160006ES6_, symObjAddr: 0x59878, symBinAddr: 0x100064200, symSize: 0xF8 }
  - { offsetInCU: 0x3A078, offset: 0x4471A, size: 0x8, addend: 0x0, symName: __ZNSt3__129_AllocatorDestroyRangeReverseINS_9allocatorI10ColumnTypeEEPS2_EC2B7v160006ERS3_RS4_S7_, symObjAddr: 0x59970, symBinAddr: 0x1000642F8, symSize: 0x20C }
  - { offsetInCU: 0x3A0CD, offset: 0x4476F, size: 0x8, addend: 0x0, symName: __ZNSt3__19allocatorI10ColumnTypeE9constructB7v160006IS1_JRS1_EEEvPT_DpOT0_, symObjAddr: 0x59B7C, symBinAddr: 0x100064504, symSize: 0x178 }
  - { offsetInCU: 0x3A123, offset: 0x447C5, size: 0x8, addend: 0x0, symName: __ZNSt3__128__exception_guard_exceptionsINS_29_AllocatorDestroyRangeReverseINS_9allocatorI10ColumnTypeEEPS3_EEED2B7v160006Ev, symObjAddr: 0x59CF4, symBinAddr: 0x10006467C, symSize: 0x17C }
  - { offsetInCU: 0x3A14B, offset: 0x447ED, size: 0x8, addend: 0x0, symName: __ZNKSt3__129_AllocatorDestroyRangeReverseINS_9allocatorI10ColumnTypeEEPS2_EclB7v160006Ev, symObjAddr: 0x59E70, symBinAddr: 0x1000647F8, symSize: 0x40C }
  - { offsetInCU: 0x3A176, offset: 0x44818, size: 0x8, addend: 0x0, symName: __ZNSt3__119__to_address_helperINS_16reverse_iteratorIP10ColumnTypeEEvE6__callB7v160006ERKS4_, symObjAddr: 0x5A5C4, symBinAddr: 0x100064F4C, symSize: 0x70 }
  - { offsetInCU: 0x3A199, offset: 0x4483B, size: 0x8, addend: 0x0, symName: __ZNKSt3__116reverse_iteratorIP10ColumnTypeEptB7v160006Ev, symObjAddr: 0x5A634, symBinAddr: 0x100064FBC, symSize: 0x6C }
  - { offsetInCU: 0x3A1BE, offset: 0x44860, size: 0x8, addend: 0x0, symName: __ZNSt3__16vectorI10ColumnTypeNS_9allocatorIS1_EEE5clearB7v160006Ev, symObjAddr: 0x5A6A0, symBinAddr: 0x100065028, symSize: 0x90 }
  - { offsetInCU: 0x3A1F2, offset: 0x44894, size: 0x8, addend: 0x0, symName: __ZNSt3__16vectorI10ColumnTypeNS_9allocatorIS1_EEE7__clearB7v160006Ev, symObjAddr: 0x5A730, symBinAddr: 0x1000650B8, symSize: 0xB0 }
  - { offsetInCU: 0x3A217, offset: 0x448B9, size: 0x8, addend: 0x0, symName: __ZNSt3__16vectorINS0_INS_7variantIJidbNS_12basic_stringIcNS_11char_traitsIcEENS_9allocatorIcEEEEEEENS5_IS8_EEEENS5_ISA_EEE19__copy_assign_allocB7v160006ERKSC_, symObjAddr: 0x5A7E0, symBinAddr: 0x100065168, symSize: 0xBC }
  - { offsetInCU: 0x3A24B, offset: 0x448ED, size: 0x8, addend: 0x0, symName: __ZNSt3__16vectorINS0_INS_7variantIJidbNS_12basic_stringIcNS_11char_traitsIcEENS_9allocatorIcEEEEEEENS5_IS8_EEEENS5_ISA_EEE6assignIPSA_Li0EEEvT_SF_, symObjAddr: 0x5A89C, symBinAddr: 0x100065224, symSize: 0x4B4 }
  - { offsetInCU: 0x3A2EC, offset: 0x4498E, size: 0x8, addend: 0x0, symName: __ZNSt3__16vectorINS0_INS_7variantIJidbNS_12basic_stringIcNS_11char_traitsIcEENS_9allocatorIcEEEEEEENS5_IS8_EEEENS5_ISA_EEE19__copy_assign_allocB7v160006ERKSC_NS_17integral_constantIbLb0EEE, symObjAddr: 0x5AD50, symBinAddr: 0x1000656D8, symSize: 0x64 }
  - { offsetInCU: 0x3A329, offset: 0x449CB, size: 0x8, addend: 0x0, symName: __ZNKSt3__16vectorINS0_INS_7variantIJidbNS_12basic_stringIcNS_11char_traitsIcEENS_9allocatorIcEEEEEEENS5_IS8_EEEENS5_ISA_EEE8capacityB7v160006Ev, symObjAddr: 0x5ADE0, symBinAddr: 0x100065768, symSize: 0x144 }
  - { offsetInCU: 0x3A34E, offset: 0x449F0, size: 0x8, addend: 0x0, symName: __ZNKSt3__16vectorINS0_INS_7variantIJidbNS_12basic_stringIcNS_11char_traitsIcEENS_9allocatorIcEEEEEEENS5_IS8_EEEENS5_ISA_EEE4sizeB7v160006Ev, symObjAddr: 0x5AF24, symBinAddr: 0x1000658AC, symSize: 0xF8 }
  - { offsetInCU: 0x3A373, offset: 0x44A15, size: 0x8, addend: 0x0, symName: __ZNSt3__16vectorINS0_INS_7variantIJidbNS_12basic_stringIcNS_11char_traitsIcEENS_9allocatorIcEEEEEEENS5_IS8_EEEENS5_ISA_EEE18__construct_at_endIPSA_Li0EEEvT_SF_m, symObjAddr: 0x5B368, symBinAddr: 0x100065CF0, symSize: 0x494 }
  - { offsetInCU: 0x3A3EE, offset: 0x44A90, size: 0x8, addend: 0x0, symName: __ZNSt3__16vectorINS0_INS_7variantIJidbNS_12basic_stringIcNS_11char_traitsIcEENS_9allocatorIcEEEEEEENS5_IS8_EEEENS5_ISA_EEE17__destruct_at_endB7v160006EPSA_, symObjAddr: 0x5B7FC, symBinAddr: 0x100066184, symSize: 0xB0 }
  - { offsetInCU: 0x3A431, offset: 0x44AD3, size: 0x8, addend: 0x0, symName: __ZNSt3__16vectorINS0_INS_7variantIJidbNS_12basic_stringIcNS_11char_traitsIcEENS_9allocatorIcEEEEEEENS5_IS8_EEEENS5_ISA_EEE13__vdeallocateEv, symObjAddr: 0x5B8AC, symBinAddr: 0x100066234, symSize: 0x23C }
  - { offsetInCU: 0x3A458, offset: 0x44AFA, size: 0x8, addend: 0x0, symName: __ZNSt3__16vectorINS0_INS_7variantIJidbNS_12basic_stringIcNS_11char_traitsIcEENS_9allocatorIcEEEEEEENS5_IS8_EEEENS5_ISA_EEE11__vallocateB7v160006Em, symObjAddr: 0x5BAE8, symBinAddr: 0x100066470, symSize: 0x5F0 }
  - { offsetInCU: 0x3A4A1, offset: 0x44B43, size: 0x8, addend: 0x0, symName: __ZNKSt3__16vectorINS0_INS_7variantIJidbNS_12basic_stringIcNS_11char_traitsIcEENS_9allocatorIcEEEEEEENS5_IS8_EEEENS5_ISA_EEE11__recommendB7v160006Em, symObjAddr: 0x5C0D8, symBinAddr: 0x100066A60, symSize: 0x45C }
  - { offsetInCU: 0x3A4FC, offset: 0x44B9E, size: 0x8, addend: 0x0, symName: __ZNKSt3__16vectorINS0_INS_7variantIJidbNS_12basic_stringIcNS_11char_traitsIcEENS_9allocatorIcEEEEEEENS5_IS8_EEEENS5_ISA_EEE9__end_capB7v160006Ev, symObjAddr: 0x5C56C, symBinAddr: 0x100066EF4, symSize: 0x100 }
  - { offsetInCU: 0x3A521, offset: 0x44BC3, size: 0x8, addend: 0x0, symName: __ZNKSt3__117__compressed_pairIPNS_6vectorINS_7variantIJidbNS_12basic_stringIcNS_11char_traitsIcEENS_9allocatorIcEEEEEEENS6_IS9_EEEENS6_ISB_EEE5firstB7v160006Ev, symObjAddr: 0x5C66C, symBinAddr: 0x100066FF4, symSize: 0x124 }
  - { offsetInCU: 0x3A546, offset: 0x44BE8, size: 0x8, addend: 0x0, symName: __ZNKSt3__122__compressed_pair_elemIPNS_6vectorINS_7variantIJidbNS_12basic_stringIcNS_11char_traitsIcEENS_9allocatorIcEEEEEEENS6_IS9_EEEELi0ELb0EE5__getB7v160006Ev, symObjAddr: 0x5C790, symBinAddr: 0x100067118, symSize: 0xAC }
  - { offsetInCU: 0x3A584, offset: 0x44C26, size: 0x8, addend: 0x0, symName: __ZNKSt3__111__copy_loopINS_17_ClassicAlgPolicyEEclB7v160006IPNS_6vectorINS_7variantIJidbNS_12basic_stringIcNS_11char_traitsIcEENS_9allocatorIcEEEEEEENS9_ISC_EEEESF_SF_EENS_4pairIT_T1_EESH_T0_SI_, symObjAddr: 0x5D7BC, symBinAddr: 0x100068144, symSize: 0x66C }
  - { offsetInCU: 0x3A5F8, offset: 0x44C9A, size: 0x8, addend: 0x0, symName: __ZNSt3__16vectorINS_7variantIJidbNS_12basic_stringIcNS_11char_traitsIcEENS_9allocatorIcEEEEEEENS5_IS8_EEEaSB7v160006ERKSA_, symObjAddr: 0x5E160, symBinAddr: 0x100068AE8, symSize: 0x218 }
  - { offsetInCU: 0x3A62E, offset: 0x44CD0, size: 0x8, addend: 0x0, symName: __ZNSt3__16vectorINS_7variantIJidbNS_12basic_stringIcNS_11char_traitsIcEENS_9allocatorIcEEEEEEENS5_IS8_EEE19__copy_assign_allocB7v160006ERKSA_, symObjAddr: 0x5E378, symBinAddr: 0x100068D00, symSize: 0xBC }
  - { offsetInCU: 0x3A662, offset: 0x44D04, size: 0x8, addend: 0x0, symName: __ZNSt3__16vectorINS_7variantIJidbNS_12basic_stringIcNS_11char_traitsIcEENS_9allocatorIcEEEEEEENS5_IS8_EEE6assignIPS8_Li0EEEvT_SD_, symObjAddr: 0x5E434, symBinAddr: 0x100068DBC, symSize: 0x4B4 }
  - { offsetInCU: 0x3A703, offset: 0x44DA5, size: 0x8, addend: 0x0, symName: __ZNSt3__16vectorINS_7variantIJidbNS_12basic_stringIcNS_11char_traitsIcEENS_9allocatorIcEEEEEEENS5_IS8_EEE19__copy_assign_allocB7v160006ERKSA_NS_17integral_constantIbLb0EEE, symObjAddr: 0x5E8E8, symBinAddr: 0x100069270, symSize: 0x64 }
  - { offsetInCU: 0x3A740, offset: 0x44DE2, size: 0x8, addend: 0x0, symName: __ZNKSt3__16vectorINS_7variantIJidbNS_12basic_stringIcNS_11char_traitsIcEENS_9allocatorIcEEEEEEENS5_IS8_EEE8capacityB7v160006Ev, symObjAddr: 0x5E978, symBinAddr: 0x100069300, symSize: 0x144 }
  - { offsetInCU: 0x3A765, offset: 0x44E07, size: 0x8, addend: 0x0, symName: __ZNKSt3__16vectorINS_7variantIJidbNS_12basic_stringIcNS_11char_traitsIcEENS_9allocatorIcEEEEEEENS5_IS8_EEE4sizeB7v160006Ev, symObjAddr: 0x5EABC, symBinAddr: 0x100069444, symSize: 0xF8 }
  - { offsetInCU: 0x3A78A, offset: 0x44E2C, size: 0x8, addend: 0x0, symName: __ZNSt3__16vectorINS_7variantIJidbNS_12basic_stringIcNS_11char_traitsIcEENS_9allocatorIcEEEEEEENS5_IS8_EEE18__construct_at_endIPS8_Li0EEEvT_SD_m, symObjAddr: 0x5EF00, symBinAddr: 0x100069888, symSize: 0x494 }
  - { offsetInCU: 0x3A805, offset: 0x44EA7, size: 0x8, addend: 0x0, symName: __ZNSt3__16vectorINS_7variantIJidbNS_12basic_stringIcNS_11char_traitsIcEENS_9allocatorIcEEEEEEENS5_IS8_EEE17__destruct_at_endB7v160006EPS8_, symObjAddr: 0x5F394, symBinAddr: 0x100069D1C, symSize: 0xB0 }
  - { offsetInCU: 0x3A848, offset: 0x44EEA, size: 0x8, addend: 0x0, symName: __ZNSt3__16vectorINS_7variantIJidbNS_12basic_stringIcNS_11char_traitsIcEENS_9allocatorIcEEEEEEENS5_IS8_EEE13__vdeallocateEv, symObjAddr: 0x5F444, symBinAddr: 0x100069DCC, symSize: 0x23C }
  - { offsetInCU: 0x3A86F, offset: 0x44F11, size: 0x8, addend: 0x0, symName: __ZNSt3__16vectorINS_7variantIJidbNS_12basic_stringIcNS_11char_traitsIcEENS_9allocatorIcEEEEEEENS5_IS8_EEE11__vallocateB7v160006Em, symObjAddr: 0x5F680, symBinAddr: 0x10006A008, symSize: 0x5E8 }
  - { offsetInCU: 0x3A8B8, offset: 0x44F5A, size: 0x8, addend: 0x0, symName: __ZNKSt3__16vectorINS_7variantIJidbNS_12basic_stringIcNS_11char_traitsIcEENS_9allocatorIcEEEEEEENS5_IS8_EEE11__recommendB7v160006Em, symObjAddr: 0x5FC68, symBinAddr: 0x10006A5F0, symSize: 0x45C }
  - { offsetInCU: 0x3A913, offset: 0x44FB5, size: 0x8, addend: 0x0, symName: __ZNKSt3__16vectorINS_7variantIJidbNS_12basic_stringIcNS_11char_traitsIcEENS_9allocatorIcEEEEEEENS5_IS8_EEE9__end_capB7v160006Ev, symObjAddr: 0x600FC, symBinAddr: 0x10006AA84, symSize: 0x100 }
  - { offsetInCU: 0x3A938, offset: 0x44FDA, size: 0x8, addend: 0x0, symName: __ZNKSt3__117__compressed_pairIPNS_7variantIJidbNS_12basic_stringIcNS_11char_traitsIcEENS_9allocatorIcEEEEEEENS5_IS8_EEE5firstB7v160006Ev, symObjAddr: 0x601FC, symBinAddr: 0x10006AB84, symSize: 0x124 }
  - { offsetInCU: 0x3A95D, offset: 0x44FFF, size: 0x8, addend: 0x0, symName: __ZNKSt3__122__compressed_pair_elemIPNS_7variantIJidbNS_12basic_stringIcNS_11char_traitsIcEENS_9allocatorIcEEEEEEELi0ELb0EE5__getB7v160006Ev, symObjAddr: 0x60320, symBinAddr: 0x10006ACA8, symSize: 0xAC }
  - { offsetInCU: 0x3A99B, offset: 0x4503D, size: 0x8, addend: 0x0, symName: __ZNKSt3__111__copy_loopINS_17_ClassicAlgPolicyEEclB7v160006IPNS_7variantIJidbNS_12basic_stringIcNS_11char_traitsIcEENS_9allocatorIcEEEEEEESC_SC_EENS_4pairIT_T1_EESE_T0_SF_, symObjAddr: 0x61344, symBinAddr: 0x10006BCCC, symSize: 0x66C }
  - { offsetInCU: 0x3AA0F, offset: 0x450B1, size: 0x8, addend: 0x0, symName: __ZNSt3__17variantIJidbNS_12basic_stringIcNS_11char_traitsIcEENS_9allocatorIcEEEEEEaSERKS7_, symObjAddr: 0x61CE8, symBinAddr: 0x10006C670, symSize: 0x1F8 }
  - { offsetInCU: 0x3AA40, offset: 0x450E2, size: 0x8, addend: 0x0, symName: __ZNSt3__116__variant_detail6__implIJidbNS_12basic_stringIcNS_11char_traitsIcEENS_9allocatorIcEEEEEEaSERKS8_, symObjAddr: 0x61EE0, symBinAddr: 0x10006C868, symSize: 0x1A0 }
  - { offsetInCU: 0x3AA71, offset: 0x45113, size: 0x8, addend: 0x0, symName: __ZNSt3__116__variant_detail17__copy_assignmentINS0_8__traitsIJidbNS_12basic_stringIcNS_11char_traitsIcEENS_9allocatorIcEEEEEEELNS0_6_TraitE1EEaSERKSB_, symObjAddr: 0x62080, symBinAddr: 0x10006CA08, symSize: 0x130 }
  - { offsetInCU: 0x3AAAA, offset: 0x4514C, size: 0x8, addend: 0x0, symName: __ZNSt3__116__variant_detail12__assignmentINS0_8__traitsIJidbNS_12basic_stringIcNS_11char_traitsIcEENS_9allocatorIcEEEEEEEE16__generic_assignB7v160006IRKNS0_17__copy_assignmentIS9_LNS0_6_TraitE1EEEEEvOT_, symObjAddr: 0x621B0, symBinAddr: 0x10006CB38, symSize: 0x4FC }
  - { offsetInCU: 0x3ABAA, offset: 0x4524C, size: 0x8, addend: 0x0, symName: __ZNKSt3__116__variant_detail6__baseILNS0_6_TraitE1EJidbNS_12basic_stringIcNS_11char_traitsIcEENS_9allocatorIcEEEEEE22valueless_by_exceptionB7v160006Ev, symObjAddr: 0x626AC, symBinAddr: 0x10006D034, symSize: 0x78 }
  - { offsetInCU: 0x3ABCF, offset: 0x45271, size: 0x8, addend: 0x0, symName: __ZNSt3__116__variant_detail6__dtorINS0_8__traitsIJidbNS_12basic_stringIcNS_11char_traitsIcEENS_9allocatorIcEEEEEEELNS0_6_TraitE1EE9__destroyB7v160006Ev, symObjAddr: 0x62724, symBinAddr: 0x10006D0AC, symSize: 0x350 }
  - { offsetInCU: 0x3AC80, offset: 0x45322, size: 0x8, addend: 0x0, symName: __ZNSt3__116__variant_detail12__visitation6__base14__visit_alt_atB7v160006IZNS0_12__assignmentINS0_8__traitsIJidbNS_12basic_stringIcNS_11char_traitsIcEENS_9allocatorIcEEEEEEEE16__generic_assignB7v160006IRKNS0_17__copy_assignmentISC_LNS0_6_TraitE1EEEEEvOT_EUlRSK_OT0_E_JRSD_SJ_EEEDcmSL_DpOT0_, symObjAddr: 0x62A74, symBinAddr: 0x10006D3FC, symSize: 0x470 }
  - { offsetInCU: 0x3AD02, offset: 0x453A4, size: 0x8, addend: 0x0, symName: __ZNKSt3__116__variant_detail6__baseILNS0_6_TraitE1EJidbNS_12basic_stringIcNS_11char_traitsIcEENS_9allocatorIcEEEEEE5indexB7v160006Ev, symObjAddr: 0x62EE4, symBinAddr: 0x10006D86C, symSize: 0x164 }
  - { offsetInCU: 0x3AD2C, offset: 0x453CE, size: 0x8, addend: 0x0, symName: __ZNSt3__116__variant_detail12__visitation6__base11__visit_altB7v160006IZNS0_6__dtorINS0_8__traitsIJidbNS_12basic_stringIcNS_11char_traitsIcEENS_9allocatorIcEEEEEEELNS0_6_TraitE1EE9__destroyB7v160006EvEUlRT_E_JRSE_EEEDcOSF_DpOT0_, symObjAddr: 0x63048, symBinAddr: 0x10006D9D0, symSize: 0x404 }
  - { offsetInCU: 0x3AD8E, offset: 0x45430, size: 0x8, addend: 0x0, symName: __ZNSt3__116__variant_detail12__visitation6__base12__dispatcherIJLm0EEE10__dispatchB7v160006IOZNS0_6__dtorINS0_8__traitsIJidbNS_12basic_stringIcNS_11char_traitsIcEENS_9allocatorIcEEEEEEELNS0_6_TraitE1EE9__destroyB7v160006EvEUlRT_E_JRNS0_6__baseILSF_1EJidbSD_EEEEEEDcSH_DpT0_, symObjAddr: 0x6344C, symBinAddr: 0x10006DDD4, symSize: 0xEC }
  - { offsetInCU: 0x3ADD6, offset: 0x45478, size: 0x8, addend: 0x0, symName: __ZNSt3__116__variant_detail12__visitation6__base12__dispatcherIJLm1EEE10__dispatchB7v160006IOZNS0_6__dtorINS0_8__traitsIJidbNS_12basic_stringIcNS_11char_traitsIcEENS_9allocatorIcEEEEEEELNS0_6_TraitE1EE9__destroyB7v160006EvEUlRT_E_JRNS0_6__baseILSF_1EJidbSD_EEEEEEDcSH_DpT0_, symObjAddr: 0x63538, symBinAddr: 0x10006DEC0, symSize: 0xEC }
  - { offsetInCU: 0x3AE1E, offset: 0x454C0, size: 0x8, addend: 0x0, symName: __ZNSt3__116__variant_detail12__visitation6__base12__dispatcherIJLm2EEE10__dispatchB7v160006IOZNS0_6__dtorINS0_8__traitsIJidbNS_12basic_stringIcNS_11char_traitsIcEENS_9allocatorIcEEEEEEELNS0_6_TraitE1EE9__destroyB7v160006EvEUlRT_E_JRNS0_6__baseILSF_1EJidbSD_EEEEEEDcSH_DpT0_, symObjAddr: 0x63624, symBinAddr: 0x10006DFAC, symSize: 0xD0 }
  - { offsetInCU: 0x3AE66, offset: 0x45508, size: 0x8, addend: 0x0, symName: __ZNSt3__116__variant_detail12__visitation6__base12__dispatcherIJLm3EEE10__dispatchB7v160006IOZNS0_6__dtorINS0_8__traitsIJidbNS_12basic_stringIcNS_11char_traitsIcEENS_9allocatorIcEEEEEEELNS0_6_TraitE1EE9__destroyB7v160006EvEUlRT_E_JRNS0_6__baseILSF_1EJidbSD_EEEEEEDcSH_DpT0_, symObjAddr: 0x636F4, symBinAddr: 0x10006E07C, symSize: 0xEC }
  - { offsetInCU: 0x3AEE4, offset: 0x45586, size: 0x8, addend: 0x0, symName: __ZNSt3__116__variant_detail12__visitation6__base4__atB7v160006IPFvOZNS0_6__dtorINS0_8__traitsIJidbNS_12basic_stringIcNS_11char_traitsIcEENS_9allocatorIcEEEEEEELNS0_6_TraitE1EE9__destroyB7v160006EvEUlRT_E_RNS0_6__baseILSD_1EJidbSB_EEEELm4EJEEEODaRKNS_8__farrayISF_XT0_EEEmDpT1_, symObjAddr: 0x637E0, symBinAddr: 0x10006E168, symSize: 0x108 }
  - { offsetInCU: 0x3AF30, offset: 0x455D2, size: 0x8, addend: 0x0, symName: __ZNRSt3__116__variant_detail6__baseILNS0_6_TraitE1EJidbNS_12basic_stringIcNS_11char_traitsIcEENS_9allocatorIcEEEEEE9__as_baseB7v160006Ev, symObjAddr: 0x638E8, symBinAddr: 0x10006E270, symSize: 0xAC }
  - { offsetInCU: 0x3AF5A, offset: 0x455FC, size: 0x8, addend: 0x0, symName: __ZNSt3__116__variant_detail8__access6__base9__get_altB7v160006ILm0ERNS0_6__baseILNS0_6_TraitE1EJidbNS_12basic_stringIcNS_11char_traitsIcEENS_9allocatorIcEEEEEEEEEODaOT0_, symObjAddr: 0x63A34, symBinAddr: 0x10006E3BC, symSize: 0xF8 }
  - { offsetInCU: 0x3AF9B, offset: 0x4563D, size: 0x8, addend: 0x0, symName: __ZZNSt3__116__variant_detail6__dtorINS0_8__traitsIJidbNS_12basic_stringIcNS_11char_traitsIcEENS_9allocatorIcEEEEEEELNS0_6_TraitE1EE9__destroyB7v160006EvENKUlRT_E_clINS0_5__altILm0EiEEEEDaSD_, symObjAddr: 0x63B2C, symBinAddr: 0x10006E4B4, symSize: 0x14 }
  - { offsetInCU: 0x3AFDC, offset: 0x4567E, size: 0x8, addend: 0x0, symName: __ZNSt3__116__variant_detail8__access7__union9__get_altB7v160006IRNS0_7__unionILNS0_6_TraitE1ELm0EJidbNS_12basic_stringIcNS_11char_traitsIcEENS_9allocatorIcEEEEEEEEEODaOT_NS_16in_place_index_tILm0EEE, symObjAddr: 0x63B40, symBinAddr: 0x10006E4C8, symSize: 0xAC }
  - { offsetInCU: 0x3B01A, offset: 0x456BC, size: 0x8, addend: 0x0, symName: __ZNSt3__116__variant_detail8__access6__base9__get_altB7v160006ILm1ERNS0_6__baseILNS0_6_TraitE1EJidbNS_12basic_stringIcNS_11char_traitsIcEENS_9allocatorIcEEEEEEEEEODaOT0_, symObjAddr: 0x63C8C, symBinAddr: 0x10006E614, symSize: 0xF8 }
  - { offsetInCU: 0x3B051, offset: 0x456F3, size: 0x8, addend: 0x0, symName: __ZZNSt3__116__variant_detail6__dtorINS0_8__traitsIJidbNS_12basic_stringIcNS_11char_traitsIcEENS_9allocatorIcEEEEEEELNS0_6_TraitE1EE9__destroyB7v160006EvENKUlRT_E_clINS0_5__altILm1EdEEEEDaSD_, symObjAddr: 0x63D84, symBinAddr: 0x10006E70C, symSize: 0x14 }
  - { offsetInCU: 0x3B092, offset: 0x45734, size: 0x8, addend: 0x0, symName: __ZNSt3__116__variant_detail8__access7__union9__get_altB7v160006IRNS0_7__unionILNS0_6_TraitE1ELm0EJidbNS_12basic_stringIcNS_11char_traitsIcEENS_9allocatorIcEEEEEEELm1EEEODaOT_NS_16in_place_index_tIXT0_EEE, symObjAddr: 0x63D98, symBinAddr: 0x10006E720, symSize: 0xF8 }
  - { offsetInCU: 0x3B0D5, offset: 0x45777, size: 0x8, addend: 0x0, symName: __ZNSt3__116__variant_detail8__access7__union9__get_altB7v160006IRNS0_7__unionILNS0_6_TraitE1ELm1EJdbNS_12basic_stringIcNS_11char_traitsIcEENS_9allocatorIcEEEEEEEEEODaOT_NS_16in_place_index_tILm0EEE, symObjAddr: 0x63E90, symBinAddr: 0x10006E818, symSize: 0xAC }
  - { offsetInCU: 0x3B113, offset: 0x457B5, size: 0x8, addend: 0x0, symName: __ZNSt3__116__variant_detail8__access6__base9__get_altB7v160006ILm2ERNS0_6__baseILNS0_6_TraitE1EJidbNS_12basic_stringIcNS_11char_traitsIcEENS_9allocatorIcEEEEEEEEEODaOT0_, symObjAddr: 0x63FC0, symBinAddr: 0x10006E948, symSize: 0xDC }
  - { offsetInCU: 0x3B14A, offset: 0x457EC, size: 0x8, addend: 0x0, symName: __ZZNSt3__116__variant_detail6__dtorINS0_8__traitsIJidbNS_12basic_stringIcNS_11char_traitsIcEENS_9allocatorIcEEEEEEELNS0_6_TraitE1EE9__destroyB7v160006EvENKUlRT_E_clINS0_5__altILm2EbEEEEDaSD_, symObjAddr: 0x6409C, symBinAddr: 0x10006EA24, symSize: 0x14 }
  - { offsetInCU: 0x3B18B, offset: 0x4582D, size: 0x8, addend: 0x0, symName: __ZNSt3__116__variant_detail8__access7__union9__get_altB7v160006IRNS0_7__unionILNS0_6_TraitE1ELm0EJidbNS_12basic_stringIcNS_11char_traitsIcEENS_9allocatorIcEEEEEEELm2EEEODaOT_NS_16in_place_index_tIXT0_EEE, symObjAddr: 0x640B0, symBinAddr: 0x10006EA38, symSize: 0xDC }
  - { offsetInCU: 0x3B1CE, offset: 0x45870, size: 0x8, addend: 0x0, symName: __ZNSt3__116__variant_detail8__access7__union9__get_altB7v160006IRNS0_7__unionILNS0_6_TraitE1ELm1EJdbNS_12basic_stringIcNS_11char_traitsIcEENS_9allocatorIcEEEEEEELm1EEEODaOT_NS_16in_place_index_tIXT0_EEE, symObjAddr: 0x6418C, symBinAddr: 0x10006EB14, symSize: 0xDC }
  - { offsetInCU: 0x3B211, offset: 0x458B3, size: 0x8, addend: 0x0, symName: __ZNSt3__116__variant_detail8__access7__union9__get_altB7v160006IRNS0_7__unionILNS0_6_TraitE1ELm2EJbNS_12basic_stringIcNS_11char_traitsIcEENS_9allocatorIcEEEEEEEEEODaOT_NS_16in_place_index_tILm0EEE, symObjAddr: 0x64268, symBinAddr: 0x10006EBF0, symSize: 0x90 }
  - { offsetInCU: 0x3B24F, offset: 0x458F1, size: 0x8, addend: 0x0, symName: __ZNSt3__116__variant_detail8__access6__base9__get_altB7v160006ILm3ERNS0_6__baseILNS0_6_TraitE1EJidbNS_12basic_stringIcNS_11char_traitsIcEENS_9allocatorIcEEEEEEEEEODaOT0_, symObjAddr: 0x64398, symBinAddr: 0x10006ED20, symSize: 0xF8 }
  - { offsetInCU: 0x3B286, offset: 0x45928, size: 0x8, addend: 0x0, symName: __ZZNSt3__116__variant_detail6__dtorINS0_8__traitsIJidbNS_12basic_stringIcNS_11char_traitsIcEENS_9allocatorIcEEEEEEELNS0_6_TraitE1EE9__destroyB7v160006EvENKUlRT_E_clINS0_5__altILm3ES8_EEEEDaSD_, symObjAddr: 0x64490, symBinAddr: 0x10006EE18, symSize: 0x54 }
  - { offsetInCU: 0x3B2CB, offset: 0x4596D, size: 0x8, addend: 0x0, symName: __ZNSt3__116__variant_detail5__altILm3ENS_12basic_stringIcNS_11char_traitsIcEENS_9allocatorIcEEEEED1Ev, symObjAddr: 0x644E4, symBinAddr: 0x10006EE6C, symSize: 0x78 }
  - { offsetInCU: 0x3B2F7, offset: 0x45999, size: 0x8, addend: 0x0, symName: __ZNSt3__116__variant_detail5__altILm3ENS_12basic_stringIcNS_11char_traitsIcEENS_9allocatorIcEEEEED2Ev, symObjAddr: 0x6455C, symBinAddr: 0x10006EEE4, symSize: 0x78 }
  - { offsetInCU: 0x3B323, offset: 0x459C5, size: 0x8, addend: 0x0, symName: __ZNSt3__116__variant_detail8__access7__union9__get_altB7v160006IRNS0_7__unionILNS0_6_TraitE1ELm0EJidbNS_12basic_stringIcNS_11char_traitsIcEENS_9allocatorIcEEEEEEELm3EEEODaOT_NS_16in_place_index_tIXT0_EEE, symObjAddr: 0x645D4, symBinAddr: 0x10006EF5C, symSize: 0xF8 }
  - { offsetInCU: 0x3B366, offset: 0x45A08, size: 0x8, addend: 0x0, symName: __ZNSt3__116__variant_detail8__access7__union9__get_altB7v160006IRNS0_7__unionILNS0_6_TraitE1ELm1EJdbNS_12basic_stringIcNS_11char_traitsIcEENS_9allocatorIcEEEEEEELm2EEEODaOT_NS_16in_place_index_tIXT0_EEE, symObjAddr: 0x646CC, symBinAddr: 0x10006F054, symSize: 0xF8 }
  - { offsetInCU: 0x3B3A9, offset: 0x45A4B, size: 0x8, addend: 0x0, symName: __ZNSt3__116__variant_detail8__access7__union9__get_altB7v160006IRNS0_7__unionILNS0_6_TraitE1ELm2EJbNS_12basic_stringIcNS_11char_traitsIcEENS_9allocatorIcEEEEEEELm1EEEODaOT_NS_16in_place_index_tIXT0_EEE, symObjAddr: 0x647C4, symBinAddr: 0x10006F14C, symSize: 0xF8 }
  - { offsetInCU: 0x3B3EC, offset: 0x45A8E, size: 0x8, addend: 0x0, symName: __ZNSt3__116__variant_detail8__access7__union9__get_altB7v160006IRNS0_7__unionILNS0_6_TraitE1ELm3EJNS_12basic_stringIcNS_11char_traitsIcEENS_9allocatorIcEEEEEEEEEODaOT_NS_16in_place_index_tILm0EEE, symObjAddr: 0x648BC, symBinAddr: 0x10006F244, symSize: 0xAC }
  - { offsetInCU: 0x3B425, offset: 0x45AC7, size: 0x8, addend: 0x0, symName: __ZNSt3__116__variant_detail12__visitation6__base4__atB7v160006IPFvOZNS0_6__dtorINS0_8__traitsIJidbNS_12basic_stringIcNS_11char_traitsIcEENS_9allocatorIcEEEEEEELNS0_6_TraitE1EE9__destroyB7v160006EvEUlRT_E_RNS0_6__baseILSD_1EJidbSB_EEEEEERKSF_SP_, symObjAddr: 0x64968, symBinAddr: 0x10006F2F0, symSize: 0x68 }
  - { offsetInCU: 0x3B452, offset: 0x45AF4, size: 0x8, addend: 0x0, symName: __ZNKSt3__18__farrayIPFvOZNS_16__variant_detail6__dtorINS1_8__traitsIJidbNS_12basic_stringIcNS_11char_traitsIcEENS_9allocatorIcEEEEEEELNS1_6_TraitE1EE9__destroyB7v160006EvEUlRT_E_RNS1_6__baseILSB_1EJidbS9_EEEELm4EEixB7v160006Em, symObjAddr: 0x649D0, symBinAddr: 0x10006F358, symSize: 0x1B4 }
  - { offsetInCU: 0x3B48B, offset: 0x45B2D, size: 0x8, addend: 0x0, symName: __ZNSt3__116__variant_detail12__visitation6__base12__dispatcherIJLm0ELm0EEE10__dispatchB7v160006IOZNS0_12__assignmentINS0_8__traitsIJidbNS_12basic_stringIcNS_11char_traitsIcEENS_9allocatorIcEEEEEEEE16__generic_assignB7v160006IRKNS0_17__copy_assignmentISE_LNS0_6_TraitE1EEEEEvOT_EUlRSM_OT0_E_JRNS0_6__baseILSI_1EJidbSD_EEERKSU_EEEDcSM_DpT0_, symObjAddr: 0x64B84, symBinAddr: 0x10006F50C, symSize: 0x1A4 }
  - { offsetInCU: 0x3B4E7, offset: 0x45B89, size: 0x8, addend: 0x0, symName: __ZNSt3__116__variant_detail12__visitation6__base12__dispatcherIJLm1ELm1EEE10__dispatchB7v160006IOZNS0_12__assignmentINS0_8__traitsIJidbNS_12basic_stringIcNS_11char_traitsIcEENS_9allocatorIcEEEEEEEE16__generic_assignB7v160006IRKNS0_17__copy_assignmentISE_LNS0_6_TraitE1EEEEEvOT_EUlRSM_OT0_E_JRNS0_6__baseILSI_1EJidbSD_EEERKSU_EEEDcSM_DpT0_, symObjAddr: 0x64D28, symBinAddr: 0x10006F6B0, symSize: 0x1A4 }
  - { offsetInCU: 0x3B543, offset: 0x45BE5, size: 0x8, addend: 0x0, symName: __ZNSt3__116__variant_detail12__visitation6__base12__dispatcherIJLm2ELm2EEE10__dispatchB7v160006IOZNS0_12__assignmentINS0_8__traitsIJidbNS_12basic_stringIcNS_11char_traitsIcEENS_9allocatorIcEEEEEEEE16__generic_assignB7v160006IRKNS0_17__copy_assignmentISE_LNS0_6_TraitE1EEEEEvOT_EUlRSM_OT0_E_JRNS0_6__baseILSI_1EJidbSD_EEERKSU_EEEDcSM_DpT0_, symObjAddr: 0x64ECC, symBinAddr: 0x10006F854, symSize: 0x16C }
  - { offsetInCU: 0x3B59F, offset: 0x45C41, size: 0x8, addend: 0x0, symName: __ZNSt3__116__variant_detail12__visitation6__base12__dispatcherIJLm3ELm3EEE10__dispatchB7v160006IOZNS0_12__assignmentINS0_8__traitsIJidbNS_12basic_stringIcNS_11char_traitsIcEENS_9allocatorIcEEEEEEEE16__generic_assignB7v160006IRKNS0_17__copy_assignmentISE_LNS0_6_TraitE1EEEEEvOT_EUlRSM_OT0_E_JRNS0_6__baseILSI_1EJidbSD_EEERKSU_EEEDcSM_DpT0_, symObjAddr: 0x65038, symBinAddr: 0x10006F9C0, symSize: 0x1A4 }
  - { offsetInCU: 0x3B631, offset: 0x45CD3, size: 0x8, addend: 0x0, symName: __ZNKSt3__18__farrayIPFvOZNS_16__variant_detail12__assignmentINS1_8__traitsIJidbNS_12basic_stringIcNS_11char_traitsIcEENS_9allocatorIcEEEEEEEE16__generic_assignB7v160006IRKNS1_17__copy_assignmentISA_LNS1_6_TraitE1EEEEEvOT_EUlRSI_OT0_E_RNS1_6__baseILSE_1EJidbS9_EEERKSQ_ELm4EEixB7v160006Em, symObjAddr: 0x651DC, symBinAddr: 0x10006FB64, symSize: 0x1B4 }
  - { offsetInCU: 0x3B665, offset: 0x45D07, size: 0x8, addend: 0x0, symName: __ZNKRSt3__116__variant_detail6__baseILNS0_6_TraitE1EJidbNS_12basic_stringIcNS_11char_traitsIcEENS_9allocatorIcEEEEEE9__as_baseB7v160006Ev, symObjAddr: 0x65390, symBinAddr: 0x10006FD18, symSize: 0xAC }
  - { offsetInCU: 0x3B694, offset: 0x45D36, size: 0x8, addend: 0x0, symName: __ZNSt3__116__variant_detail8__access6__base9__get_altB7v160006ILm0ERKNS0_6__baseILNS0_6_TraitE1EJidbNS_12basic_stringIcNS_11char_traitsIcEENS_9allocatorIcEEEEEEEEEODaOT0_, symObjAddr: 0x65548, symBinAddr: 0x10006FED0, symSize: 0xF8 }
  - { offsetInCU: 0x3B6D5, offset: 0x45D77, size: 0x8, addend: 0x0, symName: __ZZNSt3__116__variant_detail12__assignmentINS0_8__traitsIJidbNS_12basic_stringIcNS_11char_traitsIcEENS_9allocatorIcEEEEEEEE16__generic_assignB7v160006IRKNS0_17__copy_assignmentIS9_LNS0_6_TraitE1EEEEEvOT_ENKUlRSH_OT0_E_clINS0_5__altILm0EiEERKSP_EEDaSJ_SL_, symObjAddr: 0x65640, symBinAddr: 0x10006FFC8, symSize: 0x178 }
  - { offsetInCU: 0x3B732, offset: 0x45DD4, size: 0x8, addend: 0x0, symName: __ZNSt3__116__variant_detail12__assignmentINS0_8__traitsIJidbNS_12basic_stringIcNS_11char_traitsIcEENS_9allocatorIcEEEEEEEE12__assign_altB7v160006ILm0EiRKiEEvRNS0_5__altIXT_ET0_EEOT1_, symObjAddr: 0x657B8, symBinAddr: 0x100070140, symSize: 0x474 }
  - { offsetInCU: 0x3B808, offset: 0x45EAA, size: 0x8, addend: 0x0, symName: __ZZNSt3__116__variant_detail12__assignmentINS0_8__traitsIJidbNS_12basic_stringIcNS_11char_traitsIcEENS_9allocatorIcEEEEEEEE12__assign_altB7v160006ILm0EiRKiEEvRNS0_5__altIXT_ET0_EEOT1_ENKUt_clENS_17integral_constantIbLb1EEE, symObjAddr: 0x65C2C, symBinAddr: 0x1000705B4, symSize: 0x17C }
  - { offsetInCU: 0x3B83C, offset: 0x45EDE, size: 0x8, addend: 0x0, symName: __ZNSt3__116__variant_detail12__assignmentINS0_8__traitsIJidbNS_12basic_stringIcNS_11char_traitsIcEENS_9allocatorIcEEEEEEEE9__emplaceB7v160006ILm0EJRKiEEERDaDpOT0_, symObjAddr: 0x65DA8, symBinAddr: 0x100070730, symSize: 0x2B8 }
  - { offsetInCU: 0x3B895, offset: 0x45F37, size: 0x8, addend: 0x0, symName: __ZNSt3__116__variant_detail6__ctorINS0_8__traitsIJidbNS_12basic_stringIcNS_11char_traitsIcEENS_9allocatorIcEEEEEEEE15__construct_altB7v160006ILm0EiJRKiEEERT0_RNS0_5__altIXT_ESE_EEDpOT1_, symObjAddr: 0x66060, symBinAddr: 0x1000709E8, symSize: 0x108 }
  - { offsetInCU: 0x3B8E7, offset: 0x45F89, size: 0x8, addend: 0x0, symName: __ZNSt3__116__variant_detail8__access6__base9__get_altB7v160006ILm0ERNS0_12__assignmentINS0_8__traitsIJidbNS_12basic_stringIcNS_11char_traitsIcEENS_9allocatorIcEEEEEEEEEEEODaOT0_, symObjAddr: 0x66168, symBinAddr: 0x100070AF0, symSize: 0x124 }
  - { offsetInCU: 0x3B923, offset: 0x45FC5, size: 0x8, addend: 0x0, symName: __ZNSt3__116__variant_detail5__altILm0EiEC1B7v160006IJRKiEEENS_10in_place_tEDpOT_, symObjAddr: 0x6628C, symBinAddr: 0x100070C14, symSize: 0x80 }
  - { offsetInCU: 0x3B972, offset: 0x46014, size: 0x8, addend: 0x0, symName: __ZNSt3__116__variant_detail5__altILm0EiEC2B7v160006IJRKiEEENS_10in_place_tEDpOT_, symObjAddr: 0x6630C, symBinAddr: 0x100070C94, symSize: 0x194 }
  - { offsetInCU: 0x3B9C1, offset: 0x46063, size: 0x8, addend: 0x0, symName: __ZNSt3__116__variant_detail8__access7__union9__get_altB7v160006IRKNS0_7__unionILNS0_6_TraitE1ELm0EJidbNS_12basic_stringIcNS_11char_traitsIcEENS_9allocatorIcEEEEEEEEEODaOT_NS_16in_place_index_tILm0EEE, symObjAddr: 0x664A0, symBinAddr: 0x100070E28, symSize: 0xAC }
  - { offsetInCU: 0x3BA04, offset: 0x460A6, size: 0x8, addend: 0x0, symName: __ZNSt3__116__variant_detail8__access6__base9__get_altB7v160006ILm1ERKNS0_6__baseILNS0_6_TraitE1EJidbNS_12basic_stringIcNS_11char_traitsIcEENS_9allocatorIcEEEEEEEEEODaOT0_, symObjAddr: 0x66658, symBinAddr: 0x100070FE0, symSize: 0xF8 }
  - { offsetInCU: 0x3BA3B, offset: 0x460DD, size: 0x8, addend: 0x0, symName: __ZZNSt3__116__variant_detail12__assignmentINS0_8__traitsIJidbNS_12basic_stringIcNS_11char_traitsIcEENS_9allocatorIcEEEEEEEE16__generic_assignB7v160006IRKNS0_17__copy_assignmentIS9_LNS0_6_TraitE1EEEEEvOT_ENKUlRSH_OT0_E_clINS0_5__altILm1EdEERKSP_EEDaSJ_SL_, symObjAddr: 0x66750, symBinAddr: 0x1000710D8, symSize: 0x178 }
  - { offsetInCU: 0x3BA9D, offset: 0x4613F, size: 0x8, addend: 0x0, symName: __ZNSt3__116__variant_detail12__assignmentINS0_8__traitsIJidbNS_12basic_stringIcNS_11char_traitsIcEENS_9allocatorIcEEEEEEEE12__assign_altB7v160006ILm1EdRKdEEvRNS0_5__altIXT_ET0_EEOT1_, symObjAddr: 0x668C8, symBinAddr: 0x100071250, symSize: 0x424 }
  - { offsetInCU: 0x3BB73, offset: 0x46215, size: 0x8, addend: 0x0, symName: __ZZNSt3__116__variant_detail12__assignmentINS0_8__traitsIJidbNS_12basic_stringIcNS_11char_traitsIcEENS_9allocatorIcEEEEEEEE12__assign_altB7v160006ILm1EdRKdEEvRNS0_5__altIXT_ET0_EEOT1_ENKUt_clENS_17integral_constantIbLb1EEE, symObjAddr: 0x66CEC, symBinAddr: 0x100071674, symSize: 0x17C }
  - { offsetInCU: 0x3BBA7, offset: 0x46249, size: 0x8, addend: 0x0, symName: __ZNSt3__116__variant_detail12__assignmentINS0_8__traitsIJidbNS_12basic_stringIcNS_11char_traitsIcEENS_9allocatorIcEEEEEEEE9__emplaceB7v160006ILm1EJRKdEEERDaDpOT0_, symObjAddr: 0x66E68, symBinAddr: 0x1000717F0, symSize: 0x2BC }
  - { offsetInCU: 0x3BC00, offset: 0x462A2, size: 0x8, addend: 0x0, symName: __ZNSt3__116__variant_detail6__ctorINS0_8__traitsIJidbNS_12basic_stringIcNS_11char_traitsIcEENS_9allocatorIcEEEEEEEE15__construct_altB7v160006ILm1EdJRKdEEERT0_RNS0_5__altIXT_ESE_EEDpOT1_, symObjAddr: 0x67124, symBinAddr: 0x100071AAC, symSize: 0x108 }
  - { offsetInCU: 0x3BC52, offset: 0x462F4, size: 0x8, addend: 0x0, symName: __ZNSt3__116__variant_detail8__access6__base9__get_altB7v160006ILm1ERNS0_12__assignmentINS0_8__traitsIJidbNS_12basic_stringIcNS_11char_traitsIcEENS_9allocatorIcEEEEEEEEEEEODaOT0_, symObjAddr: 0x6722C, symBinAddr: 0x100071BB4, symSize: 0x124 }
  - { offsetInCU: 0x3BC8E, offset: 0x46330, size: 0x8, addend: 0x0, symName: __ZNSt3__116__variant_detail5__altILm1EdEC1B7v160006IJRKdEEENS_10in_place_tEDpOT_, symObjAddr: 0x67350, symBinAddr: 0x100071CD8, symSize: 0x80 }
  - { offsetInCU: 0x3BCDD, offset: 0x4637F, size: 0x8, addend: 0x0, symName: __ZNSt3__116__variant_detail5__altILm1EdEC2B7v160006IJRKdEEENS_10in_place_tEDpOT_, symObjAddr: 0x673D0, symBinAddr: 0x100071D58, symSize: 0x144 }
  - { offsetInCU: 0x3BD2C, offset: 0x463CE, size: 0x8, addend: 0x0, symName: __ZNSt3__116__variant_detail8__access7__union9__get_altB7v160006IRKNS0_7__unionILNS0_6_TraitE1ELm0EJidbNS_12basic_stringIcNS_11char_traitsIcEENS_9allocatorIcEEEEEEELm1EEEODaOT_NS_16in_place_index_tIXT0_EEE, symObjAddr: 0x67514, symBinAddr: 0x100071E9C, symSize: 0xF8 }
  - { offsetInCU: 0x3BD6F, offset: 0x46411, size: 0x8, addend: 0x0, symName: __ZNSt3__116__variant_detail8__access7__union9__get_altB7v160006IRKNS0_7__unionILNS0_6_TraitE1ELm1EJdbNS_12basic_stringIcNS_11char_traitsIcEENS_9allocatorIcEEEEEEEEEODaOT_NS_16in_place_index_tILm0EEE, symObjAddr: 0x6760C, symBinAddr: 0x100071F94, symSize: 0xAC }
  - { offsetInCU: 0x3BDB2, offset: 0x46454, size: 0x8, addend: 0x0, symName: __ZNSt3__116__variant_detail8__access6__base9__get_altB7v160006ILm2ERKNS0_6__baseILNS0_6_TraitE1EJidbNS_12basic_stringIcNS_11char_traitsIcEENS_9allocatorIcEEEEEEEEEODaOT0_, symObjAddr: 0x6778C, symBinAddr: 0x100072114, symSize: 0xDC }
  - { offsetInCU: 0x3BDE9, offset: 0x4648B, size: 0x8, addend: 0x0, symName: __ZZNSt3__116__variant_detail12__assignmentINS0_8__traitsIJidbNS_12basic_stringIcNS_11char_traitsIcEENS_9allocatorIcEEEEEEEE16__generic_assignB7v160006IRKNS0_17__copy_assignmentIS9_LNS0_6_TraitE1EEEEEvOT_ENKUlRSH_OT0_E_clINS0_5__altILm2EbEERKSP_EEDaSJ_SL_, symObjAddr: 0x67868, symBinAddr: 0x1000721F0, symSize: 0x124 }
  - { offsetInCU: 0x3BE46, offset: 0x464E8, size: 0x8, addend: 0x0, symName: __ZNSt3__116__variant_detail12__assignmentINS0_8__traitsIJidbNS_12basic_stringIcNS_11char_traitsIcEENS_9allocatorIcEEEEEEEE12__assign_altB7v160006ILm2EbRKbEEvRNS0_5__altIXT_ET0_EEOT1_, symObjAddr: 0x6798C, symBinAddr: 0x100072314, symSize: 0x440 }
  - { offsetInCU: 0x3BF1C, offset: 0x465BE, size: 0x8, addend: 0x0, symName: __ZZNSt3__116__variant_detail12__assignmentINS0_8__traitsIJidbNS_12basic_stringIcNS_11char_traitsIcEENS_9allocatorIcEEEEEEEE12__assign_altB7v160006ILm2EbRKbEEvRNS0_5__altIXT_ET0_EEOT1_ENKUt_clENS_17integral_constantIbLb1EEE, symObjAddr: 0x67DCC, symBinAddr: 0x100072754, symSize: 0x160 }
  - { offsetInCU: 0x3BF50, offset: 0x465F2, size: 0x8, addend: 0x0, symName: __ZNSt3__116__variant_detail12__assignmentINS0_8__traitsIJidbNS_12basic_stringIcNS_11char_traitsIcEENS_9allocatorIcEEEEEEEE9__emplaceB7v160006ILm2EJRKbEEERDaDpOT0_, symObjAddr: 0x67F2C, symBinAddr: 0x1000728B4, symSize: 0x24C }
  - { offsetInCU: 0x3BFA9, offset: 0x4664B, size: 0x8, addend: 0x0, symName: __ZNSt3__116__variant_detail6__ctorINS0_8__traitsIJidbNS_12basic_stringIcNS_11char_traitsIcEENS_9allocatorIcEEEEEEEE15__construct_altB7v160006ILm2EbJRKbEEERT0_RNS0_5__altIXT_ESE_EEDpOT1_, symObjAddr: 0x68178, symBinAddr: 0x100072B00, symSize: 0xB4 }
  - { offsetInCU: 0x3BFFB, offset: 0x4669D, size: 0x8, addend: 0x0, symName: __ZNSt3__116__variant_detail8__access6__base9__get_altB7v160006ILm2ERNS0_12__assignmentINS0_8__traitsIJidbNS_12basic_stringIcNS_11char_traitsIcEENS_9allocatorIcEEEEEEEEEEEODaOT0_, symObjAddr: 0x6822C, symBinAddr: 0x100072BB4, symSize: 0x108 }
  - { offsetInCU: 0x3C037, offset: 0x466D9, size: 0x8, addend: 0x0, symName: __ZNSt3__116__variant_detail5__altILm2EbEC1B7v160006IJRKbEEENS_10in_place_tEDpOT_, symObjAddr: 0x68334, symBinAddr: 0x100072CBC, symSize: 0x64 }
  - { offsetInCU: 0x3C086, offset: 0x46728, size: 0x8, addend: 0x0, symName: __ZNSt3__116__variant_detail5__altILm2EbEC2B7v160006IJRKbEEENS_10in_place_tEDpOT_, symObjAddr: 0x68398, symBinAddr: 0x100072D20, symSize: 0x18C }
  - { offsetInCU: 0x3C0D5, offset: 0x46777, size: 0x8, addend: 0x0, symName: __ZNSt3__116__variant_detail8__access7__union9__get_altB7v160006IRKNS0_7__unionILNS0_6_TraitE1ELm0EJidbNS_12basic_stringIcNS_11char_traitsIcEENS_9allocatorIcEEEEEEELm2EEEODaOT_NS_16in_place_index_tIXT0_EEE, symObjAddr: 0x68524, symBinAddr: 0x100072EAC, symSize: 0xDC }
  - { offsetInCU: 0x3C118, offset: 0x467BA, size: 0x8, addend: 0x0, symName: __ZNSt3__116__variant_detail8__access7__union9__get_altB7v160006IRKNS0_7__unionILNS0_6_TraitE1ELm1EJdbNS_12basic_stringIcNS_11char_traitsIcEENS_9allocatorIcEEEEEEELm1EEEODaOT_NS_16in_place_index_tIXT0_EEE, symObjAddr: 0x68600, symBinAddr: 0x100072F88, symSize: 0xDC }
  - { offsetInCU: 0x3C15B, offset: 0x467FD, size: 0x8, addend: 0x0, symName: __ZNSt3__116__variant_detail8__access7__union9__get_altB7v160006IRKNS0_7__unionILNS0_6_TraitE1ELm2EJbNS_12basic_stringIcNS_11char_traitsIcEENS_9allocatorIcEEEEEEEEEODaOT_NS_16in_place_index_tILm0EEE, symObjAddr: 0x686DC, symBinAddr: 0x100073064, symSize: 0x90 }
  - { offsetInCU: 0x3C19E, offset: 0x46840, size: 0x8, addend: 0x0, symName: __ZNSt3__116__variant_detail8__access6__base9__get_altB7v160006ILm3ERKNS0_6__baseILNS0_6_TraitE1EJidbNS_12basic_stringIcNS_11char_traitsIcEENS_9allocatorIcEEEEEEEEEODaOT0_, symObjAddr: 0x68878, symBinAddr: 0x100073200, symSize: 0xF8 }
  - { offsetInCU: 0x3C1D5, offset: 0x46877, size: 0x8, addend: 0x0, symName: __ZZNSt3__116__variant_detail12__assignmentINS0_8__traitsIJidbNS_12basic_stringIcNS_11char_traitsIcEENS_9allocatorIcEEEEEEEE16__generic_assignB7v160006IRKNS0_17__copy_assignmentIS9_LNS0_6_TraitE1EEEEEvOT_ENKUlRSH_OT0_E_clINS0_5__altILm3ES8_EERKSP_EEDaSJ_SL_, symObjAddr: 0x68970, symBinAddr: 0x1000732F8, symSize: 0x178 }
  - { offsetInCU: 0x3C22D, offset: 0x468CF, size: 0x8, addend: 0x0, symName: __ZNSt3__116__variant_detail12__assignmentINS0_8__traitsIJidbNS_12basic_stringIcNS_11char_traitsIcEENS_9allocatorIcEEEEEEEE12__assign_altB7v160006ILm3ES8_RKS8_EEvRNS0_5__altIXT_ET0_EEOT1_, symObjAddr: 0x68AE8, symBinAddr: 0x100073470, symSize: 0x3D0 }
  - { offsetInCU: 0x3C303, offset: 0x469A5, size: 0x8, addend: 0x0, symName: __ZZNSt3__116__variant_detail12__assignmentINS0_8__traitsIJidbNS_12basic_stringIcNS_11char_traitsIcEENS_9allocatorIcEEEEEEEE12__assign_altB7v160006ILm3ES8_RKS8_EEvRNS0_5__altIXT_ET0_EEOT1_ENKUt_clENS_17integral_constantIbLb0EEE, symObjAddr: 0x68EB8, symBinAddr: 0x100073840, symSize: 0x41C }
  - { offsetInCU: 0x3C339, offset: 0x469DB, size: 0x8, addend: 0x0, symName: __ZNSt3__116__variant_detail12__assignmentINS0_8__traitsIJidbNS_12basic_stringIcNS_11char_traitsIcEENS_9allocatorIcEEEEEEEE9__emplaceB7v160006ILm3EJS8_EEERDaDpOT0_, symObjAddr: 0x692D4, symBinAddr: 0x100073C5C, symSize: 0x2BC }
  - { offsetInCU: 0x3C392, offset: 0x46A34, size: 0x8, addend: 0x0, symName: __ZNSt3__116__variant_detail6__ctorINS0_8__traitsIJidbNS_12basic_stringIcNS_11char_traitsIcEENS_9allocatorIcEEEEEEEE15__construct_altB7v160006ILm3ES8_JS8_EEERT0_RNS0_5__altIXT_ESC_EEDpOT1_, symObjAddr: 0x69590, symBinAddr: 0x100073F18, symSize: 0x108 }
  - { offsetInCU: 0x3C3E4, offset: 0x46A86, size: 0x8, addend: 0x0, symName: __ZNSt3__116__variant_detail8__access6__base9__get_altB7v160006ILm3ERNS0_12__assignmentINS0_8__traitsIJidbNS_12basic_stringIcNS_11char_traitsIcEENS_9allocatorIcEEEEEEEEEEEODaOT0_, symObjAddr: 0x69698, symBinAddr: 0x100074020, symSize: 0x124 }
  - { offsetInCU: 0x3C41B, offset: 0x46ABD, size: 0x8, addend: 0x0, symName: __ZNSt3__116__variant_detail5__altILm3ENS_12basic_stringIcNS_11char_traitsIcEENS_9allocatorIcEEEEEC1B7v160006IJS7_EEENS_10in_place_tEDpOT_, symObjAddr: 0x697BC, symBinAddr: 0x100074144, symSize: 0x80 }
  - { offsetInCU: 0x3C46A, offset: 0x46B0C, size: 0x8, addend: 0x0, symName: __ZNSt3__116__variant_detail5__altILm3ENS_12basic_stringIcNS_11char_traitsIcEENS_9allocatorIcEEEEEC2B7v160006IJS7_EEENS_10in_place_tEDpOT_, symObjAddr: 0x6983C, symBinAddr: 0x1000741C4, symSize: 0xC8 }
  - { offsetInCU: 0x3C4B9, offset: 0x46B5B, size: 0x8, addend: 0x0, symName: __ZNSt3__116__variant_detail8__access7__union9__get_altB7v160006IRKNS0_7__unionILNS0_6_TraitE1ELm0EJidbNS_12basic_stringIcNS_11char_traitsIcEENS_9allocatorIcEEEEEEELm3EEEODaOT_NS_16in_place_index_tIXT0_EEE, symObjAddr: 0x69904, symBinAddr: 0x10007428C, symSize: 0xF8 }
  - { offsetInCU: 0x3C4FC, offset: 0x46B9E, size: 0x8, addend: 0x0, symName: __ZNSt3__116__variant_detail8__access7__union9__get_altB7v160006IRKNS0_7__unionILNS0_6_TraitE1ELm1EJdbNS_12basic_stringIcNS_11char_traitsIcEENS_9allocatorIcEEEEEEELm2EEEODaOT_NS_16in_place_index_tIXT0_EEE, symObjAddr: 0x699FC, symBinAddr: 0x100074384, symSize: 0xF8 }
  - { offsetInCU: 0x3C53F, offset: 0x46BE1, size: 0x8, addend: 0x0, symName: __ZNSt3__116__variant_detail8__access7__union9__get_altB7v160006IRKNS0_7__unionILNS0_6_TraitE1ELm2EJbNS_12basic_stringIcNS_11char_traitsIcEENS_9allocatorIcEEEEEEELm1EEEODaOT_NS_16in_place_index_tIXT0_EEE, symObjAddr: 0x69AF4, symBinAddr: 0x10007447C, symSize: 0xF8 }
  - { offsetInCU: 0x3C582, offset: 0x46C24, size: 0x8, addend: 0x0, symName: __ZNSt3__116__variant_detail8__access7__union9__get_altB7v160006IRKNS0_7__unionILNS0_6_TraitE1ELm3EJNS_12basic_stringIcNS_11char_traitsIcEENS_9allocatorIcEEEEEEEEEODaOT_NS_16in_place_index_tILm0EEE, symObjAddr: 0x69BEC, symBinAddr: 0x100074574, symSize: 0xAC }
  - { offsetInCU: 0x3C5BB, offset: 0x46C5D, size: 0x8, addend: 0x0, symName: __ZNSt3__118__unwrap_iter_implIPNS_7variantIJidbNS_12basic_stringIcNS_11char_traitsIcEENS_9allocatorIcEEEEEEELb1EE8__unwrapB7v160006ES9_, symObjAddr: 0x69C98, symBinAddr: 0x100074620, symSize: 0x24 }
  - { offsetInCU: 0x3C5E3, offset: 0x46C85, size: 0x8, addend: 0x0, symName: __ZNSt3__14pairIPNS_7variantIJidbNS_12basic_stringIcNS_11char_traitsIcEENS_9allocatorIcEEEEEEES9_EC1B7v160006IS9_S9_LPv0EEEOT_OT0_, symObjAddr: 0x69CD0, symBinAddr: 0x100074658, symSize: 0x88 }
  - { offsetInCU: 0x3C63F, offset: 0x46CE1, size: 0x8, addend: 0x0, symName: __ZNSt3__14pairIPNS_7variantIJidbNS_12basic_stringIcNS_11char_traitsIcEENS_9allocatorIcEEEEEEES9_EC2B7v160006IS9_S9_LPv0EEEOT_OT0_, symObjAddr: 0x69D58, symBinAddr: 0x1000746E0, symSize: 0x210 }
  - { offsetInCU: 0x3C69B, offset: 0x46D3D, size: 0x8, addend: 0x0, symName: __ZNSt3__118__unwrap_iter_implIPNS_7variantIJidbNS_12basic_stringIcNS_11char_traitsIcEENS_9allocatorIcEEEEEEELb1EE8__rewrapB7v160006ES9_S9_, symObjAddr: 0x69F68, symBinAddr: 0x1000748F0, symSize: 0x13C }
  - { offsetInCU: 0x3C6E5, offset: 0x46D87, size: 0x8, addend: 0x0, symName: __ZNSt3__16vectorINS_7variantIJidbNS_12basic_stringIcNS_11char_traitsIcEENS_9allocatorIcEEEEEEENS5_IS8_EEE21_ConstructTransactionC1B7v160006ERSA_m, symObjAddr: 0x6A0A4, symBinAddr: 0x100074A2C, symSize: 0x88 }
  - { offsetInCU: 0x3C72B, offset: 0x46DCD, size: 0x8, addend: 0x0, symName: __ZNSt3__16vectorINS_7variantIJidbNS_12basic_stringIcNS_11char_traitsIcEENS_9allocatorIcEEEEEEENS5_IS8_EEE7__allocB7v160006Ev, symObjAddr: 0x6A818, symBinAddr: 0x1000751A0, symSize: 0xE4 }
  - { offsetInCU: 0x3C750, offset: 0x46DF2, size: 0x8, addend: 0x0, symName: __ZNSt3__16vectorINS_7variantIJidbNS_12basic_stringIcNS_11char_traitsIcEENS_9allocatorIcEEEEEEENS5_IS8_EEE21_ConstructTransactionD1B7v160006Ev, symObjAddr: 0x6A8FC, symBinAddr: 0x100075284, symSize: 0x78 }
  - { offsetInCU: 0x3C778, offset: 0x46E1A, size: 0x8, addend: 0x0, symName: __ZNSt3__16vectorINS_7variantIJidbNS_12basic_stringIcNS_11char_traitsIcEENS_9allocatorIcEEEEEEENS5_IS8_EEE21_ConstructTransactionC2B7v160006ERSA_m, symObjAddr: 0x6A974, symBinAddr: 0x1000752FC, symSize: 0x3D8 }
  - { offsetInCU: 0x3C7BE, offset: 0x46E60, size: 0x8, addend: 0x0, symName: __ZNKSt3__16vectorINS_7variantIJidbNS_12basic_stringIcNS_11char_traitsIcEENS_9allocatorIcEEEEEEENS5_IS8_EEE19__annotate_increaseB7v160006Em, symObjAddr: 0x6AD4C, symBinAddr: 0x1000756D4, symSize: 0x44C }
  - { offsetInCU: 0x3C7F2, offset: 0x46E94, size: 0x8, addend: 0x0, symName: __ZNKSt3__16vectorINS_7variantIJidbNS_12basic_stringIcNS_11char_traitsIcEENS_9allocatorIcEEEEEEENS5_IS8_EEE31__annotate_contiguous_containerEPKvSC_SC_SC_, symObjAddr: 0x6B198, symBinAddr: 0x100075B20, symSize: 0x9C }
  - { offsetInCU: 0x3C853, offset: 0x46EF5, size: 0x8, addend: 0x0, symName: __ZNKSt3__16vectorINS_7variantIJidbNS_12basic_stringIcNS_11char_traitsIcEENS_9allocatorIcEEEEEEENS5_IS8_EEE4dataB7v160006Ev, symObjAddr: 0x6B234, symBinAddr: 0x100075BBC, symSize: 0xB0 }
  - { offsetInCU: 0x3C878, offset: 0x46F1A, size: 0x8, addend: 0x0, symName: __ZNSt3__129_AllocatorDestroyRangeReverseINS_9allocatorINS_7variantIJidbNS_12basic_stringIcNS_11char_traitsIcEENS1_IcEEEEEEEEEPS8_EC1B7v160006ERS9_RSA_SD_, symObjAddr: 0x6B520, symBinAddr: 0x100075EA8, symSize: 0x90 }
  - { offsetInCU: 0x3C8CD, offset: 0x46F6F, size: 0x8, addend: 0x0, symName: __ZNSt3__116allocator_traitsINS_9allocatorINS_7variantIJidbNS_12basic_stringIcNS_11char_traitsIcEENS1_IcEEEEEEEEEE9constructB7v160006IS8_JRS8_EvEEvRS9_PT_DpOT0_, symObjAddr: 0x6B5B0, symBinAddr: 0x100075F38, symSize: 0x8C }
  - { offsetInCU: 0x3C926, offset: 0x46FC8, size: 0x8, addend: 0x0, symName: __ZNSt3__128__exception_guard_exceptionsINS_29_AllocatorDestroyRangeReverseINS_9allocatorINS_7variantIJidbNS_12basic_stringIcNS_11char_traitsIcEENS2_IcEEEEEEEEEPS9_EEE10__completeB7v160006Ev, symObjAddr: 0x6B63C, symBinAddr: 0x100075FC4, symSize: 0xD8 }
  - { offsetInCU: 0x3C94B, offset: 0x46FED, size: 0x8, addend: 0x0, symName: __ZNSt3__128__exception_guard_exceptionsINS_29_AllocatorDestroyRangeReverseINS_9allocatorINS_7variantIJidbNS_12basic_stringIcNS_11char_traitsIcEENS2_IcEEEEEEEEEPS9_EEED1B7v160006Ev, symObjAddr: 0x6B714, symBinAddr: 0x10007609C, symSize: 0x78 }
  - { offsetInCU: 0x3C973, offset: 0x47015, size: 0x8, addend: 0x0, symName: __ZNSt3__128__exception_guard_exceptionsINS_29_AllocatorDestroyRangeReverseINS_9allocatorINS_7variantIJidbNS_12basic_stringIcNS_11char_traitsIcEENS2_IcEEEEEEEEEPS9_EEEC1B7v160006ESC_, symObjAddr: 0x6B78C, symBinAddr: 0x100076114, symSize: 0x84 }
  - { offsetInCU: 0x3C9AA, offset: 0x4704C, size: 0x8, addend: 0x0, symName: __ZNSt3__128__exception_guard_exceptionsINS_29_AllocatorDestroyRangeReverseINS_9allocatorINS_7variantIJidbNS_12basic_stringIcNS_11char_traitsIcEENS2_IcEEEEEEEEEPS9_EEEC2B7v160006ESC_, symObjAddr: 0x6B810, symBinAddr: 0x100076198, symSize: 0xF8 }
  - { offsetInCU: 0x3C9E1, offset: 0x47083, size: 0x8, addend: 0x0, symName: __ZNSt3__129_AllocatorDestroyRangeReverseINS_9allocatorINS_7variantIJidbNS_12basic_stringIcNS_11char_traitsIcEENS1_IcEEEEEEEEEPS8_EC2B7v160006ERS9_RSA_SD_, symObjAddr: 0x6B908, symBinAddr: 0x100076290, symSize: 0x20C }
  - { offsetInCU: 0x3CA36, offset: 0x470D8, size: 0x8, addend: 0x0, symName: __ZNSt3__19allocatorINS_7variantIJidbNS_12basic_stringIcNS_11char_traitsIcEENS0_IcEEEEEEEE9constructB7v160006IS7_JRS7_EEEvPT_DpOT0_, symObjAddr: 0x6BB14, symBinAddr: 0x10007649C, symSize: 0xEC }
  - { offsetInCU: 0x3CA8C, offset: 0x4712E, size: 0x8, addend: 0x0, symName: __ZNSt3__17variantIJidbNS_12basic_stringIcNS_11char_traitsIcEENS_9allocatorIcEEEEEEC1ERKS7_, symObjAddr: 0x6BC00, symBinAddr: 0x100076588, symSize: 0x80 }
  - { offsetInCU: 0x3CAC0, offset: 0x47162, size: 0x8, addend: 0x0, symName: __ZNSt3__17variantIJidbNS_12basic_stringIcNS_11char_traitsIcEENS_9allocatorIcEEEEEEC2ERKS7_, symObjAddr: 0x6BC80, symBinAddr: 0x100076608, symSize: 0x120 }
  - { offsetInCU: 0x3CAF4, offset: 0x47196, size: 0x8, addend: 0x0, symName: __ZNSt3__116__variant_detail6__implIJidbNS_12basic_stringIcNS_11char_traitsIcEENS_9allocatorIcEEEEEEC1ERKS8_, symObjAddr: 0x6BDA0, symBinAddr: 0x100076728, symSize: 0x80 }
  - { offsetInCU: 0x3CB28, offset: 0x471CA, size: 0x8, addend: 0x0, symName: __ZNSt3__116__variant_detail6__implIJidbNS_12basic_stringIcNS_11char_traitsIcEENS_9allocatorIcEEEEEEC2ERKS8_, symObjAddr: 0x6BE20, symBinAddr: 0x1000767A8, symSize: 0x138 }
  - { offsetInCU: 0x3CB5C, offset: 0x471FE, size: 0x8, addend: 0x0, symName: __ZNSt3__116__variant_detail17__copy_assignmentINS0_8__traitsIJidbNS_12basic_stringIcNS_11char_traitsIcEENS_9allocatorIcEEEEEEELNS0_6_TraitE1EEC2ERKSB_, symObjAddr: 0x6BF58, symBinAddr: 0x1000768E0, symSize: 0x138 }
  - { offsetInCU: 0x3CB90, offset: 0x47232, size: 0x8, addend: 0x0, symName: __ZNSt3__116__variant_detail17__move_assignmentINS0_8__traitsIJidbNS_12basic_stringIcNS_11char_traitsIcEENS_9allocatorIcEEEEEEELNS0_6_TraitE1EEC2ERKSB_, symObjAddr: 0x6C090, symBinAddr: 0x100076A18, symSize: 0x138 }
  - { offsetInCU: 0x3CBCE, offset: 0x47270, size: 0x8, addend: 0x0, symName: __ZNSt3__116__variant_detail12__assignmentINS0_8__traitsIJidbNS_12basic_stringIcNS_11char_traitsIcEENS_9allocatorIcEEEEEEEEC2ERKSA_, symObjAddr: 0x6C1C8, symBinAddr: 0x100076B50, symSize: 0x138 }
  - { offsetInCU: 0x3CC03, offset: 0x472A5, size: 0x8, addend: 0x0, symName: __ZNSt3__116__variant_detail18__copy_constructorINS0_8__traitsIJidbNS_12basic_stringIcNS_11char_traitsIcEENS_9allocatorIcEEEEEEELNS0_6_TraitE1EEC2ERKSB_, symObjAddr: 0x6C300, symBinAddr: 0x100076C88, symSize: 0x168 }
  - { offsetInCU: 0x3CC3A, offset: 0x472DC, size: 0x8, addend: 0x0, symName: __ZNSt3__116__variant_detail18__copy_constructorINS0_8__traitsIJidbNS_12basic_stringIcNS_11char_traitsIcEENS_9allocatorIcEEEEEEELNS0_6_TraitE1EECI2NS0_6__baseILSA_1EJidbS8_EEEENS0_13__valueless_tE, symObjAddr: 0x6C468, symBinAddr: 0x100076DF0, symSize: 0x78 }
  - { offsetInCU: 0x3CC74, offset: 0x47316, size: 0x8, addend: 0x0, symName: __ZNSt3__116__variant_detail6__ctorINS0_8__traitsIJidbNS_12basic_stringIcNS_11char_traitsIcEENS_9allocatorIcEEEEEEEE19__generic_constructB7v160006IRKNS0_18__copy_constructorIS9_LNS0_6_TraitE1EEEEEvRSA_OT_, symObjAddr: 0x6C4E0, symBinAddr: 0x100076E68, symSize: 0x5A0 }
  - { offsetInCU: 0x3CD66, offset: 0x47408, size: 0x8, addend: 0x0, symName: __ZNSt3__116__variant_detail18__copy_constructorINS0_8__traitsIJidbNS_12basic_stringIcNS_11char_traitsIcEENS_9allocatorIcEEEEEEELNS0_6_TraitE1EED2Ev, symObjAddr: 0x6CA80, symBinAddr: 0x100077408, symSize: 0x78 }
  - { offsetInCU: 0x3CD8E, offset: 0x47430, size: 0x8, addend: 0x0, symName: __ZNSt3__116__variant_detail18__move_constructorINS0_8__traitsIJidbNS_12basic_stringIcNS_11char_traitsIcEENS_9allocatorIcEEEEEEELNS0_6_TraitE1EECI2NS0_6__baseILSA_1EJidbS8_EEEENS0_13__valueless_tE, symObjAddr: 0x6CAF8, symBinAddr: 0x100077480, symSize: 0x78 }
  - { offsetInCU: 0x3CDC8, offset: 0x4746A, size: 0x8, addend: 0x0, symName: __ZNSt3__116__variant_detail6__ctorINS0_8__traitsIJidbNS_12basic_stringIcNS_11char_traitsIcEENS_9allocatorIcEEEEEEEECI2NS0_6__baseILNS0_6_TraitE1EJidbS8_EEEENS0_13__valueless_tE, symObjAddr: 0x6CB70, symBinAddr: 0x1000774F8, symSize: 0x78 }
  - { offsetInCU: 0x3CDFD, offset: 0x4749F, size: 0x8, addend: 0x0, symName: __ZNSt3__116__variant_detail6__dtorINS0_8__traitsIJidbNS_12basic_stringIcNS_11char_traitsIcEENS_9allocatorIcEEEEEEELNS0_6_TraitE1EECI2NS0_6__baseILSA_1EJidbS8_EEEENS0_13__valueless_tE, symObjAddr: 0x6CBE8, symBinAddr: 0x100077570, symSize: 0x78 }
  - { offsetInCU: 0x3CE32, offset: 0x474D4, size: 0x8, addend: 0x0, symName: __ZNSt3__116__variant_detail6__baseILNS0_6_TraitE1EJidbNS_12basic_stringIcNS_11char_traitsIcEENS_9allocatorIcEEEEEEC2B7v160006ENS0_13__valueless_tE, symObjAddr: 0x6CC60, symBinAddr: 0x1000775E8, symSize: 0xF0 }
  - { offsetInCU: 0x3CE69, offset: 0x4750B, size: 0x8, addend: 0x0, symName: __ZNSt3__116__variant_detail7__unionILNS0_6_TraitE1ELm0EJidbNS_12basic_stringIcNS_11char_traitsIcEENS_9allocatorIcEEEEEEC1B7v160006ENS0_13__valueless_tE, symObjAddr: 0x6CD50, symBinAddr: 0x1000776D8, symSize: 0x78 }
  - { offsetInCU: 0x3CE9D, offset: 0x4753F, size: 0x8, addend: 0x0, symName: __ZNSt3__116__variant_detail7__unionILNS0_6_TraitE1ELm0EJidbNS_12basic_stringIcNS_11char_traitsIcEENS_9allocatorIcEEEEEEC2B7v160006ENS0_13__valueless_tE, symObjAddr: 0x6CDC8, symBinAddr: 0x100077750, symSize: 0xDC }
  - { offsetInCU: 0x3CED6, offset: 0x47578, size: 0x8, addend: 0x0, symName: __ZNSt3__116__variant_detail12__visitation6__base14__visit_alt_atB7v160006IZNS0_6__ctorINS0_8__traitsIJidbNS_12basic_stringIcNS_11char_traitsIcEENS_9allocatorIcEEEEEEEE19__generic_constructB7v160006IRKNS0_18__copy_constructorISC_LNS0_6_TraitE1EEEEEvRSD_OT_EUlRSL_OT0_E_JSK_SJ_EEEDcmSM_DpOT0_, symObjAddr: 0x6CEA4, symBinAddr: 0x10007782C, symSize: 0x454 }
  - { offsetInCU: 0x3CF58, offset: 0x475FA, size: 0x8, addend: 0x0, symName: __ZNSt3__116__variant_detail12__visitation6__base12__dispatcherIJLm0ELm0EEE10__dispatchB7v160006IOZNS0_6__ctorINS0_8__traitsIJidbNS_12basic_stringIcNS_11char_traitsIcEENS_9allocatorIcEEEEEEEE19__generic_constructB7v160006IRKNS0_18__copy_constructorISE_LNS0_6_TraitE1EEEEEvRSF_OT_EUlRSN_OT0_E_JRNS0_6__baseILSI_1EJidbSD_EEERKSV_EEEDcSN_DpT0_, symObjAddr: 0x6D2F8, symBinAddr: 0x100077C80, symSize: 0x188 }
  - { offsetInCU: 0x3CFB4, offset: 0x47656, size: 0x8, addend: 0x0, symName: __ZNSt3__116__variant_detail12__visitation6__base12__dispatcherIJLm1ELm1EEE10__dispatchB7v160006IOZNS0_6__ctorINS0_8__traitsIJidbNS_12basic_stringIcNS_11char_traitsIcEENS_9allocatorIcEEEEEEEE19__generic_constructB7v160006IRKNS0_18__copy_constructorISE_LNS0_6_TraitE1EEEEEvRSF_OT_EUlRSN_OT0_E_JRNS0_6__baseILSI_1EJidbSD_EEERKSV_EEEDcSN_DpT0_, symObjAddr: 0x6D480, symBinAddr: 0x100077E08, symSize: 0x188 }
  - { offsetInCU: 0x3D010, offset: 0x476B2, size: 0x8, addend: 0x0, symName: __ZNSt3__116__variant_detail12__visitation6__base12__dispatcherIJLm2ELm2EEE10__dispatchB7v160006IOZNS0_6__ctorINS0_8__traitsIJidbNS_12basic_stringIcNS_11char_traitsIcEENS_9allocatorIcEEEEEEEE19__generic_constructB7v160006IRKNS0_18__copy_constructorISE_LNS0_6_TraitE1EEEEEvRSF_OT_EUlRSN_OT0_E_JRNS0_6__baseILSI_1EJidbSD_EEERKSV_EEEDcSN_DpT0_, symObjAddr: 0x6D608, symBinAddr: 0x100077F90, symSize: 0x150 }
  - { offsetInCU: 0x3D06C, offset: 0x4770E, size: 0x8, addend: 0x0, symName: __ZNSt3__116__variant_detail12__visitation6__base12__dispatcherIJLm3ELm3EEE10__dispatchB7v160006IOZNS0_6__ctorINS0_8__traitsIJidbNS_12basic_stringIcNS_11char_traitsIcEENS_9allocatorIcEEEEEEEE19__generic_constructB7v160006IRKNS0_18__copy_constructorISE_LNS0_6_TraitE1EEEEEvRSF_OT_EUlRSN_OT0_E_JRNS0_6__baseILSI_1EJidbSD_EEERKSV_EEEDcSN_DpT0_, symObjAddr: 0x6D758, symBinAddr: 0x1000780E0, symSize: 0x188 }
  - { offsetInCU: 0x3D0FE, offset: 0x477A0, size: 0x8, addend: 0x0, symName: __ZNKSt3__18__farrayIPFvOZNS_16__variant_detail6__ctorINS1_8__traitsIJidbNS_12basic_stringIcNS_11char_traitsIcEENS_9allocatorIcEEEEEEEE19__generic_constructB7v160006IRKNS1_18__copy_constructorISA_LNS1_6_TraitE1EEEEEvRSB_OT_EUlRSJ_OT0_E_RNS1_6__baseILSE_1EJidbS9_EEERKSR_ELm4EEixB7v160006Em, symObjAddr: 0x6D8E0, symBinAddr: 0x100078268, symSize: 0x1B4 }
  - { offsetInCU: 0x3D13C, offset: 0x477DE, size: 0x8, addend: 0x0, symName: __ZZNSt3__116__variant_detail6__ctorINS0_8__traitsIJidbNS_12basic_stringIcNS_11char_traitsIcEENS_9allocatorIcEEEEEEEE19__generic_constructB7v160006IRKNS0_18__copy_constructorIS9_LNS0_6_TraitE1EEEEEvRSA_OT_ENKUlRSI_OT0_E_clINS0_5__altILm0EiEERKSQ_EEDaSK_SM_, symObjAddr: 0x6DB84, symBinAddr: 0x10007850C, symSize: 0x104 }
  - { offsetInCU: 0x3D194, offset: 0x47836, size: 0x8, addend: 0x0, symName: __ZZNSt3__116__variant_detail6__ctorINS0_8__traitsIJidbNS_12basic_stringIcNS_11char_traitsIcEENS_9allocatorIcEEEEEEEE19__generic_constructB7v160006IRKNS0_18__copy_constructorIS9_LNS0_6_TraitE1EEEEEvRSA_OT_ENKUlRSI_OT0_E_clINS0_5__altILm1EdEERKSQ_EEDaSK_SM_, symObjAddr: 0x6DD78, symBinAddr: 0x100078700, symSize: 0x104 }
  - { offsetInCU: 0x3D1EC, offset: 0x4788E, size: 0x8, addend: 0x0, symName: __ZZNSt3__116__variant_detail6__ctorINS0_8__traitsIJidbNS_12basic_stringIcNS_11char_traitsIcEENS_9allocatorIcEEEEEEEE19__generic_constructB7v160006IRKNS0_18__copy_constructorIS9_LNS0_6_TraitE1EEEEEvRSA_OT_ENKUlRSI_OT0_E_clINS0_5__altILm2EbEERKSQ_EEDaSK_SM_, symObjAddr: 0x6DF34, symBinAddr: 0x1000788BC, symSize: 0xB0 }
  - { offsetInCU: 0x3D244, offset: 0x478E6, size: 0x8, addend: 0x0, symName: __ZZNSt3__116__variant_detail6__ctorINS0_8__traitsIJidbNS_12basic_stringIcNS_11char_traitsIcEENS_9allocatorIcEEEEEEEE19__generic_constructB7v160006IRKNS0_18__copy_constructorIS9_LNS0_6_TraitE1EEEEEvRSA_OT_ENKUlRSI_OT0_E_clINS0_5__altILm3ES8_EERKSQ_EEDaSK_SM_, symObjAddr: 0x6E0D4, symBinAddr: 0x100078A5C, symSize: 0x104 }
  - { offsetInCU: 0x3D29C, offset: 0x4793E, size: 0x8, addend: 0x0, symName: __ZNSt3__116__variant_detail6__ctorINS0_8__traitsIJidbNS_12basic_stringIcNS_11char_traitsIcEENS_9allocatorIcEEEEEEEE15__construct_altB7v160006ILm3ES8_JRKS8_EEERT0_RNS0_5__altIXT_ESE_EEDpOT1_, symObjAddr: 0x6E1D8, symBinAddr: 0x100078B60, symSize: 0x108 }
  - { offsetInCU: 0x3D2EE, offset: 0x47990, size: 0x8, addend: 0x0, symName: __ZNSt3__116__variant_detail5__altILm3ENS_12basic_stringIcNS_11char_traitsIcEENS_9allocatorIcEEEEEC1B7v160006IJRKS7_EEENS_10in_place_tEDpOT_, symObjAddr: 0x6E2E0, symBinAddr: 0x100078C68, symSize: 0x80 }
  - { offsetInCU: 0x3D33D, offset: 0x479DF, size: 0x8, addend: 0x0, symName: __ZNSt3__116__variant_detail5__altILm3ENS_12basic_stringIcNS_11char_traitsIcEENS_9allocatorIcEEEEEC2B7v160006IJRKS7_EEENS_10in_place_tEDpOT_, symObjAddr: 0x6E360, symBinAddr: 0x100078CE8, symSize: 0xC8 }
  - { offsetInCU: 0x3D38C, offset: 0x47A2E, size: 0x8, addend: 0x0, symName: __ZNSt3__116__variant_detail18__move_constructorINS0_8__traitsIJidbNS_12basic_stringIcNS_11char_traitsIcEENS_9allocatorIcEEEEEEELNS0_6_TraitE1EED2Ev, symObjAddr: 0x6E428, symBinAddr: 0x100078DB0, symSize: 0x78 }
  - { offsetInCU: 0x3D3B4, offset: 0x47A56, size: 0x8, addend: 0x0, symName: __ZNSt3__116__variant_detail6__ctorINS0_8__traitsIJidbNS_12basic_stringIcNS_11char_traitsIcEENS_9allocatorIcEEEEEEEED2Ev, symObjAddr: 0x6E4A0, symBinAddr: 0x100078E28, symSize: 0x78 }
  - { offsetInCU: 0x3D3E0, offset: 0x47A82, size: 0x8, addend: 0x0, symName: __ZNSt3__116__variant_detail6__dtorINS0_8__traitsIJidbNS_12basic_stringIcNS_11char_traitsIcEENS_9allocatorIcEEEEEEELNS0_6_TraitE1EED2Ev, symObjAddr: 0x6E518, symBinAddr: 0x100078EA0, symSize: 0x80 }
  - { offsetInCU: 0x3D408, offset: 0x47AAA, size: 0x8, addend: 0x0, symName: __ZNSt3__116__variant_detail6__baseILNS0_6_TraitE1EJidbNS_12basic_stringIcNS_11char_traitsIcEENS_9allocatorIcEEEEEED2Ev, symObjAddr: 0x6E598, symBinAddr: 0x100078F20, symSize: 0x78 }
  - { offsetInCU: 0x3D434, offset: 0x47AD6, size: 0x8, addend: 0x0, symName: __ZNSt3__116__variant_detail7__unionILNS0_6_TraitE1ELm0EJidbNS_12basic_stringIcNS_11char_traitsIcEENS_9allocatorIcEEEEEED1Ev, symObjAddr: 0x6E610, symBinAddr: 0x100078F98, symSize: 0x78 }
  - { offsetInCU: 0x3D45C, offset: 0x47AFE, size: 0x8, addend: 0x0, symName: __ZNSt3__116__variant_detail7__unionILNS0_6_TraitE1ELm0EJidbNS_12basic_stringIcNS_11char_traitsIcEENS_9allocatorIcEEEEEED2Ev, symObjAddr: 0x6E688, symBinAddr: 0x100079010, symSize: 0x6C }
  - { offsetInCU: 0x3D484, offset: 0x47B26, size: 0x8, addend: 0x0, symName: __ZNSt3__128__exception_guard_exceptionsINS_29_AllocatorDestroyRangeReverseINS_9allocatorINS_7variantIJidbNS_12basic_stringIcNS_11char_traitsIcEENS2_IcEEEEEEEEEPS9_EEED2B7v160006Ev, symObjAddr: 0x6E6F4, symBinAddr: 0x10007907C, symSize: 0x17C }
  - { offsetInCU: 0x3D4AC, offset: 0x47B4E, size: 0x8, addend: 0x0, symName: __ZNKSt3__129_AllocatorDestroyRangeReverseINS_9allocatorINS_7variantIJidbNS_12basic_stringIcNS_11char_traitsIcEENS1_IcEEEEEEEEEPS8_EclB7v160006Ev, symObjAddr: 0x6E870, symBinAddr: 0x1000791F8, symSize: 0x40C }
  - { offsetInCU: 0x3D4D2, offset: 0x47B74, size: 0x8, addend: 0x0, symName: __ZNSt3__116reverse_iteratorIPNS_7variantIJidbNS_12basic_stringIcNS_11char_traitsIcEENS_9allocatorIcEEEEEEEEC1B7v160006ES9_, symObjAddr: 0x6EF58, symBinAddr: 0x1000798E0, symSize: 0x80 }
  - { offsetInCU: 0x3D508, offset: 0x47BAA, size: 0x8, addend: 0x0, symName: __ZNSt3__116allocator_traitsINS_9allocatorINS_7variantIJidbNS_12basic_stringIcNS_11char_traitsIcEENS1_IcEEEEEEEEEE7destroyB7v160006IS8_vEEvRS9_PT_, symObjAddr: 0x6F074, symBinAddr: 0x1000799FC, symSize: 0x2C }
  - { offsetInCU: 0x3D546, offset: 0x47BE8, size: 0x8, addend: 0x0, symName: __ZNSt3__116reverse_iteratorIPNS_7variantIJidbNS_12basic_stringIcNS_11char_traitsIcEENS_9allocatorIcEEEEEEEEppB7v160006Ev, symObjAddr: 0x6F10C, symBinAddr: 0x100079A94, symSize: 0x1B0 }
  - { offsetInCU: 0x3D56B, offset: 0x47C0D, size: 0x8, addend: 0x0, symName: __ZNKSt3__116reverse_iteratorIPNS_7variantIJidbNS_12basic_stringIcNS_11char_traitsIcEENS_9allocatorIcEEEEEEEE4baseB7v160006Ev, symObjAddr: 0x6F2BC, symBinAddr: 0x100079C44, symSize: 0xB0 }
  - { offsetInCU: 0x3D590, offset: 0x47C32, size: 0x8, addend: 0x0, symName: __ZNSt3__19allocatorINS_7variantIJidbNS_12basic_stringIcNS_11char_traitsIcEENS0_IcEEEEEEEE7destroyB7v160006EPS7_, symObjAddr: 0x6F36C, symBinAddr: 0x100079CF4, symSize: 0x9C }
  - { offsetInCU: 0x3D5C3, offset: 0x47C65, size: 0x8, addend: 0x0, symName: __ZNSt3__17variantIJidbNS_12basic_stringIcNS_11char_traitsIcEENS_9allocatorIcEEEEEED1Ev, symObjAddr: 0x6F408, symBinAddr: 0x100079D90, symSize: 0x78 }
  - { offsetInCU: 0x3D5EB, offset: 0x47C8D, size: 0x8, addend: 0x0, symName: __ZNSt3__17variantIJidbNS_12basic_stringIcNS_11char_traitsIcEENS_9allocatorIcEEEEEED2Ev, symObjAddr: 0x6F480, symBinAddr: 0x100079E08, symSize: 0x78 }
  - { offsetInCU: 0x3D613, offset: 0x47CB5, size: 0x8, addend: 0x0, symName: __ZNSt3__116__variant_detail6__implIJidbNS_12basic_stringIcNS_11char_traitsIcEENS_9allocatorIcEEEEEED1Ev, symObjAddr: 0x6F4F8, symBinAddr: 0x100079E80, symSize: 0x78 }
  - { offsetInCU: 0x3D63F, offset: 0x47CE1, size: 0x8, addend: 0x0, symName: __ZNSt3__116__variant_detail6__implIJidbNS_12basic_stringIcNS_11char_traitsIcEENS_9allocatorIcEEEEEED2Ev, symObjAddr: 0x6F570, symBinAddr: 0x100079EF8, symSize: 0x78 }
  - { offsetInCU: 0x3D66B, offset: 0x47D0D, size: 0x8, addend: 0x0, symName: __ZNSt3__116__variant_detail17__copy_assignmentINS0_8__traitsIJidbNS_12basic_stringIcNS_11char_traitsIcEENS_9allocatorIcEEEEEEELNS0_6_TraitE1EED2Ev, symObjAddr: 0x6F5E8, symBinAddr: 0x100079F70, symSize: 0x78 }
  - { offsetInCU: 0x3D693, offset: 0x47D35, size: 0x8, addend: 0x0, symName: __ZNSt3__116__variant_detail17__move_assignmentINS0_8__traitsIJidbNS_12basic_stringIcNS_11char_traitsIcEENS_9allocatorIcEEEEEEELNS0_6_TraitE1EED2Ev, symObjAddr: 0x6F660, symBinAddr: 0x100079FE8, symSize: 0x78 }
  - { offsetInCU: 0x3D6BB, offset: 0x47D5D, size: 0x8, addend: 0x0, symName: __ZNSt3__116__variant_detail12__assignmentINS0_8__traitsIJidbNS_12basic_stringIcNS_11char_traitsIcEENS_9allocatorIcEEEEEEEED2Ev, symObjAddr: 0x6F6D8, symBinAddr: 0x10007A060, symSize: 0x78 }
  - { offsetInCU: 0x3D6EC, offset: 0x47D8E, size: 0x8, addend: 0x0, symName: __ZNSt3__119__to_address_helperINS_16reverse_iteratorIPNS_7variantIJidbNS_12basic_stringIcNS_11char_traitsIcEENS_9allocatorIcEEEEEEEEEvE6__callB7v160006ERKSB_, symObjAddr: 0x6F750, symBinAddr: 0x10007A0D8, symSize: 0x70 }
  - { offsetInCU: 0x3D70F, offset: 0x47DB1, size: 0x8, addend: 0x0, symName: __ZNKSt3__116reverse_iteratorIPNS_7variantIJidbNS_12basic_stringIcNS_11char_traitsIcEENS_9allocatorIcEEEEEEEEptB7v160006Ev, symObjAddr: 0x6F7C0, symBinAddr: 0x10007A148, symSize: 0x6C }
  - { offsetInCU: 0x3D734, offset: 0x47DD6, size: 0x8, addend: 0x0, symName: __ZNKSt3__116reverse_iteratorIPNS_7variantIJidbNS_12basic_stringIcNS_11char_traitsIcEENS_9allocatorIcEEEEEEEEdeB7v160006Ev, symObjAddr: 0x6F82C, symBinAddr: 0x10007A1B4, symSize: 0x184 }
  - { offsetInCU: 0x3D767, offset: 0x47E09, size: 0x8, addend: 0x0, symName: __ZNSt3__116reverse_iteratorIPNS_7variantIJidbNS_12basic_stringIcNS_11char_traitsIcEENS_9allocatorIcEEEEEEEEC2B7v160006ES9_, symObjAddr: 0x6F9B0, symBinAddr: 0x10007A338, symSize: 0x10C }
  - { offsetInCU: 0x3D79D, offset: 0x47E3F, size: 0x8, addend: 0x0, symName: __ZNSt3__117__compressed_pairIPNS_7variantIJidbNS_12basic_stringIcNS_11char_traitsIcEENS_9allocatorIcEEEEEEENS5_IS8_EEE6secondB7v160006Ev, symObjAddr: 0x6FABC, symBinAddr: 0x10007A444, symSize: 0x108 }
  - { offsetInCU: 0x3D7C2, offset: 0x47E64, size: 0x8, addend: 0x0, symName: __ZNSt3__122__compressed_pair_elemINS_9allocatorINS_7variantIJidbNS_12basic_stringIcNS_11char_traitsIcEENS1_IcEEEEEEEEELi1ELb1EE5__getB7v160006Ev, symObjAddr: 0x6FBC4, symBinAddr: 0x10007A54C, symSize: 0x74 }
  - { offsetInCU: 0x3D7E7, offset: 0x47E89, size: 0x8, addend: 0x0, symName: __ZNSt3__16vectorINS_7variantIJidbNS_12basic_stringIcNS_11char_traitsIcEENS_9allocatorIcEEEEEEENS5_IS8_EEE21_ConstructTransactionD2B7v160006Ev, symObjAddr: 0x6FC38, symBinAddr: 0x10007A5C0, symSize: 0x390 }
  - { offsetInCU: 0x3D80F, offset: 0x47EB1, size: 0x8, addend: 0x0, symName: __ZNKSt3__16vectorINS_7variantIJidbNS_12basic_stringIcNS_11char_traitsIcEENS_9allocatorIcEEEEEEENS5_IS8_EEE17__annotate_shrinkB7v160006Em, symObjAddr: 0x6FFC8, symBinAddr: 0x10007A950, symSize: 0x360 }
  - { offsetInCU: 0x3D843, offset: 0x47EE5, size: 0x8, addend: 0x0, symName: __ZNSt3__16vectorINS_7variantIJidbNS_12basic_stringIcNS_11char_traitsIcEENS_9allocatorIcEEEEEEENS5_IS8_EEE27__invalidate_iterators_pastB7v160006EPS8_, symObjAddr: 0x70328, symBinAddr: 0x10007ACB0, symSize: 0x64 }
  - { offsetInCU: 0x3D879, offset: 0x47F1B, size: 0x8, addend: 0x0, symName: __ZNSt3__16vectorINS_7variantIJidbNS_12basic_stringIcNS_11char_traitsIcEENS_9allocatorIcEEEEEEENS5_IS8_EEE22__base_destruct_at_endB7v160006EPS8_, symObjAddr: 0x7038C, symBinAddr: 0x10007AD14, symSize: 0x1FC }
  - { offsetInCU: 0x3D8BC, offset: 0x47F5E, size: 0x8, addend: 0x0, symName: __ZNSt3__16vectorINS_7variantIJidbNS_12basic_stringIcNS_11char_traitsIcEENS_9allocatorIcEEEEEEENS5_IS8_EEE5clearB7v160006Ev, symObjAddr: 0x70588, symBinAddr: 0x10007AF10, symSize: 0xA4 }
  - { offsetInCU: 0x3D8F0, offset: 0x47F92, size: 0x8, addend: 0x0, symName: __ZNSt3__116allocator_traitsINS_9allocatorINS_7variantIJidbNS_12basic_stringIcNS_11char_traitsIcEENS1_IcEEEEEEEEEE10deallocateB7v160006ERS9_PS8_m, symObjAddr: 0x7062C, symBinAddr: 0x10007AFB4, symSize: 0x34 }
  - { offsetInCU: 0x3D932, offset: 0x47FD4, size: 0x8, addend: 0x0, symName: __ZNSt3__16vectorINS_7variantIJidbNS_12basic_stringIcNS_11char_traitsIcEENS_9allocatorIcEEEEEEENS5_IS8_EEE9__end_capB7v160006Ev, symObjAddr: 0x70660, symBinAddr: 0x10007AFE8, symSize: 0x100 }
  - { offsetInCU: 0x3D957, offset: 0x47FF9, size: 0x8, addend: 0x0, symName: __ZNSt3__16vectorINS_7variantIJidbNS_12basic_stringIcNS_11char_traitsIcEENS_9allocatorIcEEEEEEENS5_IS8_EEE7__clearB7v160006Ev, symObjAddr: 0x70760, symBinAddr: 0x10007B0E8, symSize: 0xB0 }
  - { offsetInCU: 0x3D97C, offset: 0x4801E, size: 0x8, addend: 0x0, symName: __ZNSt3__19allocatorINS_7variantIJidbNS_12basic_stringIcNS_11char_traitsIcEENS0_IcEEEEEEEE10deallocateB7v160006EPS7_m, symObjAddr: 0x70810, symBinAddr: 0x10007B198, symSize: 0x78 }
  - { offsetInCU: 0x3D9BD, offset: 0x4805F, size: 0x8, addend: 0x0, symName: __ZNSt3__117__compressed_pairIPNS_7variantIJidbNS_12basic_stringIcNS_11char_traitsIcEENS_9allocatorIcEEEEEEENS5_IS8_EEE5firstB7v160006Ev, symObjAddr: 0x70888, symBinAddr: 0x10007B210, symSize: 0x124 }
  - { offsetInCU: 0x3D9E2, offset: 0x48084, size: 0x8, addend: 0x0, symName: __ZNSt3__122__compressed_pair_elemIPNS_7variantIJidbNS_12basic_stringIcNS_11char_traitsIcEENS_9allocatorIcEEEEEEELi0ELb0EE5__getB7v160006Ev, symObjAddr: 0x709AC, symBinAddr: 0x10007B334, symSize: 0xAC }
  - { offsetInCU: 0x3DA07, offset: 0x480A9, size: 0x8, addend: 0x0, symName: __ZNKSt3__16vectorINS_7variantIJidbNS_12basic_stringIcNS_11char_traitsIcEENS_9allocatorIcEEEEEEENS5_IS8_EEE8max_sizeEv, symObjAddr: 0x70A58, symBinAddr: 0x10007B3E0, symSize: 0x3B8 }
  - { offsetInCU: 0x3DA2F, offset: 0x480D1, size: 0x8, addend: 0x0, symName: __ZNKSt3__16vectorINS_7variantIJidbNS_12basic_stringIcNS_11char_traitsIcEENS_9allocatorIcEEEEEEENS5_IS8_EEE20__throw_length_errorB7v160006Ev, symObjAddr: 0x70E10, symBinAddr: 0x10007B798, symSize: 0x80 }
  - { offsetInCU: 0x3DA54, offset: 0x480F6, size: 0x8, addend: 0x0, symName: __ZNKSt3__16vectorINS_7variantIJidbNS_12basic_stringIcNS_11char_traitsIcEENS_9allocatorIcEEEEEEENS5_IS8_EEE14__annotate_newB7v160006Em, symObjAddr: 0x7111C, symBinAddr: 0x10007BAA4, symSize: 0x360 }
  - { offsetInCU: 0x3DA92, offset: 0x48134, size: 0x8, addend: 0x0, symName: __ZNSt3__116allocator_traitsINS_9allocatorINS_7variantIJidbNS_12basic_stringIcNS_11char_traitsIcEENS1_IcEEEEEEEEEE8max_sizeB7v160006IS9_vEEmRKS9_, symObjAddr: 0x7147C, symBinAddr: 0x10007BE04, symSize: 0x24 }
  - { offsetInCU: 0x3DAC1, offset: 0x48163, size: 0x8, addend: 0x0, symName: __ZNKSt3__16vectorINS_7variantIJidbNS_12basic_stringIcNS_11char_traitsIcEENS_9allocatorIcEEEEEEENS5_IS8_EEE7__allocB7v160006Ev, symObjAddr: 0x714A0, symBinAddr: 0x10007BE28, symSize: 0xE4 }
  - { offsetInCU: 0x3DAE6, offset: 0x48188, size: 0x8, addend: 0x0, symName: __ZNKSt3__19allocatorINS_7variantIJidbNS_12basic_stringIcNS_11char_traitsIcEENS0_IcEEEEEEEE8max_sizeB7v160006Ev, symObjAddr: 0x71584, symBinAddr: 0x10007BF0C, symSize: 0x4C }
  - { offsetInCU: 0x3DB0B, offset: 0x481AD, size: 0x8, addend: 0x0, symName: __ZNKSt3__117__compressed_pairIPNS_7variantIJidbNS_12basic_stringIcNS_11char_traitsIcEENS_9allocatorIcEEEEEEENS5_IS8_EEE6secondB7v160006Ev, symObjAddr: 0x715D0, symBinAddr: 0x10007BF58, symSize: 0x108 }
  - { offsetInCU: 0x3DB30, offset: 0x481D2, size: 0x8, addend: 0x0, symName: __ZNKSt3__122__compressed_pair_elemINS_9allocatorINS_7variantIJidbNS_12basic_stringIcNS_11char_traitsIcEENS1_IcEEEEEEEEELi1ELb1EE5__getB7v160006Ev, symObjAddr: 0x716D8, symBinAddr: 0x10007C060, symSize: 0x74 }
  - { offsetInCU: 0x3DB55, offset: 0x481F7, size: 0x8, addend: 0x0, symName: __ZNSt3__19allocatorINS_7variantIJidbNS_12basic_stringIcNS_11char_traitsIcEENS0_IcEEEEEEEE8allocateB7v160006Em, symObjAddr: 0x7174C, symBinAddr: 0x10007C0D4, symSize: 0xCC }
  - { offsetInCU: 0x3DB88, offset: 0x4822A, size: 0x8, addend: 0x0, symName: __ZNSt3__118__unwrap_iter_implIPNS_6vectorINS_7variantIJidbNS_12basic_stringIcNS_11char_traitsIcEENS_9allocatorIcEEEEEEENS6_IS9_EEEELb1EE8__unwrapB7v160006ESC_, symObjAddr: 0x71818, symBinAddr: 0x10007C1A0, symSize: 0x24 }
  - { offsetInCU: 0x3DBB0, offset: 0x48252, size: 0x8, addend: 0x0, symName: __ZNSt3__14pairIPNS_6vectorINS_7variantIJidbNS_12basic_stringIcNS_11char_traitsIcEENS_9allocatorIcEEEEEEENS6_IS9_EEEESC_EC1B7v160006ISC_SC_LPv0EEEOT_OT0_, symObjAddr: 0x71850, symBinAddr: 0x10007C1D8, symSize: 0x88 }
  - { offsetInCU: 0x3DC0C, offset: 0x482AE, size: 0x8, addend: 0x0, symName: __ZNSt3__14pairIPNS_6vectorINS_7variantIJidbNS_12basic_stringIcNS_11char_traitsIcEENS_9allocatorIcEEEEEEENS6_IS9_EEEESC_EC2B7v160006ISC_SC_LPv0EEEOT_OT0_, symObjAddr: 0x718D8, symBinAddr: 0x10007C260, symSize: 0x210 }
  - { offsetInCU: 0x3DC68, offset: 0x4830A, size: 0x8, addend: 0x0, symName: __ZNSt3__118__unwrap_iter_implIPNS_6vectorINS_7variantIJidbNS_12basic_stringIcNS_11char_traitsIcEENS_9allocatorIcEEEEEEENS6_IS9_EEEELb1EE8__rewrapB7v160006ESC_SC_, symObjAddr: 0x71AE8, symBinAddr: 0x10007C470, symSize: 0x140 }
  - { offsetInCU: 0x3DCB2, offset: 0x48354, size: 0x8, addend: 0x0, symName: __ZNSt3__16vectorINS0_INS_7variantIJidbNS_12basic_stringIcNS_11char_traitsIcEENS_9allocatorIcEEEEEEENS5_IS8_EEEENS5_ISA_EEE21_ConstructTransactionC1B7v160006ERSC_m, symObjAddr: 0x71C28, symBinAddr: 0x10007C5B0, symSize: 0x88 }
  - { offsetInCU: 0x3DCF8, offset: 0x4839A, size: 0x8, addend: 0x0, symName: __ZNSt3__16vectorINS0_INS_7variantIJidbNS_12basic_stringIcNS_11char_traitsIcEENS_9allocatorIcEEEEEEENS5_IS8_EEEENS5_ISA_EEE7__allocB7v160006Ev, symObjAddr: 0x7239C, symBinAddr: 0x10007CD24, symSize: 0xE4 }
  - { offsetInCU: 0x3DD1D, offset: 0x483BF, size: 0x8, addend: 0x0, symName: __ZNSt3__16vectorINS0_INS_7variantIJidbNS_12basic_stringIcNS_11char_traitsIcEENS_9allocatorIcEEEEEEENS5_IS8_EEEENS5_ISA_EEE21_ConstructTransactionD1B7v160006Ev, symObjAddr: 0x72480, symBinAddr: 0x10007CE08, symSize: 0x78 }
  - { offsetInCU: 0x3DD45, offset: 0x483E7, size: 0x8, addend: 0x0, symName: __ZNSt3__16vectorINS0_INS_7variantIJidbNS_12basic_stringIcNS_11char_traitsIcEENS_9allocatorIcEEEEEEENS5_IS8_EEEENS5_ISA_EEE21_ConstructTransactionC2B7v160006ERSC_m, symObjAddr: 0x724F8, symBinAddr: 0x10007CE80, symSize: 0x3E0 }
  - { offsetInCU: 0x3DD8B, offset: 0x4842D, size: 0x8, addend: 0x0, symName: __ZNKSt3__16vectorINS0_INS_7variantIJidbNS_12basic_stringIcNS_11char_traitsIcEENS_9allocatorIcEEEEEEENS5_IS8_EEEENS5_ISA_EEE19__annotate_increaseB7v160006Em, symObjAddr: 0x728D8, symBinAddr: 0x10007D260, symSize: 0x46C }
  - { offsetInCU: 0x3DDBF, offset: 0x48461, size: 0x8, addend: 0x0, symName: __ZNKSt3__16vectorINS0_INS_7variantIJidbNS_12basic_stringIcNS_11char_traitsIcEENS_9allocatorIcEEEEEEENS5_IS8_EEEENS5_ISA_EEE31__annotate_contiguous_containerEPKvSE_SE_SE_, symObjAddr: 0x72D44, symBinAddr: 0x10007D6CC, symSize: 0x9C }
  - { offsetInCU: 0x3DE20, offset: 0x484C2, size: 0x8, addend: 0x0, symName: __ZNKSt3__16vectorINS0_INS_7variantIJidbNS_12basic_stringIcNS_11char_traitsIcEENS_9allocatorIcEEEEEEENS5_IS8_EEEENS5_ISA_EEE4dataB7v160006Ev, symObjAddr: 0x72DE0, symBinAddr: 0x10007D768, symSize: 0xB0 }
  - { offsetInCU: 0x3DE45, offset: 0x484E7, size: 0x8, addend: 0x0, symName: __ZNSt3__129_AllocatorDestroyRangeReverseINS_9allocatorINS_6vectorINS_7variantIJidbNS_12basic_stringIcNS_11char_traitsIcEENS1_IcEEEEEEENS1_IS9_EEEEEEPSB_EC1B7v160006ERSC_RSD_SG_, symObjAddr: 0x730CC, symBinAddr: 0x10007DA54, symSize: 0x90 }
  - { offsetInCU: 0x3DE9A, offset: 0x4853C, size: 0x8, addend: 0x0, symName: __ZNSt3__116allocator_traitsINS_9allocatorINS_6vectorINS_7variantIJidbNS_12basic_stringIcNS_11char_traitsIcEENS1_IcEEEEEEENS1_IS9_EEEEEEE9constructB7v160006ISB_JRSB_EvEEvRSC_PT_DpOT0_, symObjAddr: 0x7315C, symBinAddr: 0x10007DAE4, symSize: 0x8C }
  - { offsetInCU: 0x3DEF3, offset: 0x48595, size: 0x8, addend: 0x0, symName: __ZNSt3__128__exception_guard_exceptionsINS_29_AllocatorDestroyRangeReverseINS_9allocatorINS_6vectorINS_7variantIJidbNS_12basic_stringIcNS_11char_traitsIcEENS2_IcEEEEEEENS2_ISA_EEEEEEPSC_EEE10__completeB7v160006Ev, symObjAddr: 0x731E8, symBinAddr: 0x10007DB70, symSize: 0xD8 }
  - { offsetInCU: 0x3DF18, offset: 0x485BA, size: 0x8, addend: 0x0, symName: __ZNSt3__128__exception_guard_exceptionsINS_29_AllocatorDestroyRangeReverseINS_9allocatorINS_6vectorINS_7variantIJidbNS_12basic_stringIcNS_11char_traitsIcEENS2_IcEEEEEEENS2_ISA_EEEEEEPSC_EEED1B7v160006Ev, symObjAddr: 0x732C0, symBinAddr: 0x10007DC48, symSize: 0x78 }
  - { offsetInCU: 0x3DF40, offset: 0x485E2, size: 0x8, addend: 0x0, symName: __ZNSt3__128__exception_guard_exceptionsINS_29_AllocatorDestroyRangeReverseINS_9allocatorINS_6vectorINS_7variantIJidbNS_12basic_stringIcNS_11char_traitsIcEENS2_IcEEEEEEENS2_ISA_EEEEEEPSC_EEEC1B7v160006ESF_, symObjAddr: 0x73338, symBinAddr: 0x10007DCC0, symSize: 0x84 }
  - { offsetInCU: 0x3DF77, offset: 0x48619, size: 0x8, addend: 0x0, symName: __ZNSt3__128__exception_guard_exceptionsINS_29_AllocatorDestroyRangeReverseINS_9allocatorINS_6vectorINS_7variantIJidbNS_12basic_stringIcNS_11char_traitsIcEENS2_IcEEEEEEENS2_ISA_EEEEEEPSC_EEEC2B7v160006ESF_, symObjAddr: 0x733BC, symBinAddr: 0x10007DD44, symSize: 0xF8 }
  - { offsetInCU: 0x3DFAE, offset: 0x48650, size: 0x8, addend: 0x0, symName: __ZNSt3__129_AllocatorDestroyRangeReverseINS_9allocatorINS_6vectorINS_7variantIJidbNS_12basic_stringIcNS_11char_traitsIcEENS1_IcEEEEEEENS1_IS9_EEEEEEPSB_EC2B7v160006ERSC_RSD_SG_, symObjAddr: 0x734B4, symBinAddr: 0x10007DE3C, symSize: 0x20C }
  - { offsetInCU: 0x3E003, offset: 0x486A5, size: 0x8, addend: 0x0, symName: __ZNSt3__19allocatorINS_6vectorINS_7variantIJidbNS_12basic_stringIcNS_11char_traitsIcEENS0_IcEEEEEEENS0_IS8_EEEEE9constructB7v160006ISA_JRSA_EEEvPT_DpOT0_, symObjAddr: 0x736C0, symBinAddr: 0x10007E048, symSize: 0xEC }
  - { offsetInCU: 0x3E059, offset: 0x486FB, size: 0x8, addend: 0x0, symName: __ZNSt3__16vectorINS_7variantIJidbNS_12basic_stringIcNS_11char_traitsIcEENS_9allocatorIcEEEEEEENS5_IS8_EEEC1ERKSA_, symObjAddr: 0x737AC, symBinAddr: 0x10007E134, symSize: 0x80 }
  - { offsetInCU: 0x3E093, offset: 0x48735, size: 0x8, addend: 0x0, symName: __ZNSt3__16vectorINS_7variantIJidbNS_12basic_stringIcNS_11char_traitsIcEENS_9allocatorIcEEEEEEENS5_IS8_EEEC2ERKSA_, symObjAddr: 0x7382C, symBinAddr: 0x10007E1B4, symSize: 0x6B8 }
  - { offsetInCU: 0x3E0F8, offset: 0x4879A, size: 0x8, addend: 0x0, symName: __ZNSt3__116allocator_traitsINS_9allocatorINS_7variantIJidbNS_12basic_stringIcNS_11char_traitsIcEENS1_IcEEEEEEEEEE37select_on_container_copy_constructionB7v160006IS9_vvEES9_RKS9_, symObjAddr: 0x73EE4, symBinAddr: 0x10007E86C, symSize: 0x10 }
  - { offsetInCU: 0x3E12E, offset: 0x487D0, size: 0x8, addend: 0x0, symName: __ZNSt3__117__compressed_pairIPNS_7variantIJidbNS_12basic_stringIcNS_11char_traitsIcEENS_9allocatorIcEEEEEEENS5_IS8_EEEC1B7v160006IDnSA_EEOT_OT0_, symObjAddr: 0x73EF4, symBinAddr: 0x10007E87C, symSize: 0x88 }
  - { offsetInCU: 0x3E184, offset: 0x48826, size: 0x8, addend: 0x0, symName: __ZNSt3__16vectorINS_7variantIJidbNS_12basic_stringIcNS_11char_traitsIcEENS_9allocatorIcEEEEEEENS5_IS8_EEE16__destroy_vectorC1ERSA_, symObjAddr: 0x74238, symBinAddr: 0x10007EBC0, symSize: 0x80 }
  - { offsetInCU: 0x3E1BB, offset: 0x4885D, size: 0x8, addend: 0x0, symName: __ZNSt3__128__exception_guard_exceptionsINS_6vectorINS_7variantIJidbNS_12basic_stringIcNS_11char_traitsIcEENS_9allocatorIcEEEEEEENS6_IS9_EEE16__destroy_vectorEE10__completeB7v160006Ev, symObjAddr: 0x742C8, symBinAddr: 0x10007EC50, symSize: 0xD8 }
  - { offsetInCU: 0x3E1E0, offset: 0x48882, size: 0x8, addend: 0x0, symName: __ZNSt3__128__exception_guard_exceptionsINS_6vectorINS_7variantIJidbNS_12basic_stringIcNS_11char_traitsIcEENS_9allocatorIcEEEEEEENS6_IS9_EEE16__destroy_vectorEED1B7v160006Ev, symObjAddr: 0x743A0, symBinAddr: 0x10007ED28, symSize: 0x78 }
  - { offsetInCU: 0x3E208, offset: 0x488AA, size: 0x8, addend: 0x0, symName: __ZNSt3__117__compressed_pairIPNS_7variantIJidbNS_12basic_stringIcNS_11char_traitsIcEENS_9allocatorIcEEEEEEENS5_IS8_EEEC2B7v160006IDnSA_EEOT_OT0_, symObjAddr: 0x74418, symBinAddr: 0x10007EDA0, symSize: 0x170 }
  - { offsetInCU: 0x3E25E, offset: 0x48900, size: 0x8, addend: 0x0, symName: __ZNSt3__122__compressed_pair_elemIPNS_7variantIJidbNS_12basic_stringIcNS_11char_traitsIcEENS_9allocatorIcEEEEEEELi0ELb0EEC2B7v160006IDnvEEOT_, symObjAddr: 0x74588, symBinAddr: 0x10007EF10, symSize: 0xBC }
  - { offsetInCU: 0x3E29F, offset: 0x48941, size: 0x8, addend: 0x0, symName: __ZNSt3__122__compressed_pair_elemINS_9allocatorINS_7variantIJidbNS_12basic_stringIcNS_11char_traitsIcEENS1_IcEEEEEEEEELi1ELb1EEC2B7v160006IS9_vEEOT_, symObjAddr: 0x74644, symBinAddr: 0x10007EFCC, symSize: 0x58 }
  - { offsetInCU: 0x3E2E0, offset: 0x48982, size: 0x8, addend: 0x0, symName: __ZNSt3__128__exception_guard_exceptionsINS_6vectorINS_7variantIJidbNS_12basic_stringIcNS_11char_traitsIcEENS_9allocatorIcEEEEEEENS6_IS9_EEE16__destroy_vectorEEC1B7v160006ESC_, symObjAddr: 0x7469C, symBinAddr: 0x10007F024, symSize: 0x28C }
  - { offsetInCU: 0x3E31B, offset: 0x489BD, size: 0x8, addend: 0x0, symName: __ZNSt3__128__exception_guard_exceptionsINS_6vectorINS_7variantIJidbNS_12basic_stringIcNS_11char_traitsIcEENS_9allocatorIcEEEEEEENS6_IS9_EEE16__destroy_vectorEEC2B7v160006ESC_, symObjAddr: 0x74928, symBinAddr: 0x10007F2B0, symSize: 0x2BC }
  - { offsetInCU: 0x3E356, offset: 0x489F8, size: 0x8, addend: 0x0, symName: __ZNSt3__16vectorINS_7variantIJidbNS_12basic_stringIcNS_11char_traitsIcEENS_9allocatorIcEEEEEEENS5_IS8_EEE16__destroy_vectorC2ERSA_, symObjAddr: 0x74BE4, symBinAddr: 0x10007F56C, symSize: 0x108 }
  - { offsetInCU: 0x3E38D, offset: 0x48A2F, size: 0x8, addend: 0x0, symName: __ZNSt3__128__exception_guard_exceptionsINS_6vectorINS_7variantIJidbNS_12basic_stringIcNS_11char_traitsIcEENS_9allocatorIcEEEEEEENS6_IS9_EEE16__destroy_vectorEED2B7v160006Ev, symObjAddr: 0x74CEC, symBinAddr: 0x10007F674, symSize: 0x17C }
  - { offsetInCU: 0x3E3B5, offset: 0x48A57, size: 0x8, addend: 0x0, symName: __ZNSt3__16vectorINS_7variantIJidbNS_12basic_stringIcNS_11char_traitsIcEENS_9allocatorIcEEEEEEENS5_IS8_EEE16__destroy_vectorclB7v160006Ev, symObjAddr: 0x74E68, symBinAddr: 0x10007F7F0, symSize: 0x478 }
  - { offsetInCU: 0x3E3DA, offset: 0x48A7C, size: 0x8, addend: 0x0, symName: __ZNKSt3__16vectorINS_7variantIJidbNS_12basic_stringIcNS_11char_traitsIcEENS_9allocatorIcEEEEEEENS5_IS8_EEE17__annotate_deleteB7v160006Ev, symObjAddr: 0x752E0, symBinAddr: 0x10007FC68, symSize: 0x370 }
  - { offsetInCU: 0x3E3FF, offset: 0x48AA1, size: 0x8, addend: 0x0, symName: __ZNSt3__128__exception_guard_exceptionsINS_29_AllocatorDestroyRangeReverseINS_9allocatorINS_6vectorINS_7variantIJidbNS_12basic_stringIcNS_11char_traitsIcEENS2_IcEEEEEEENS2_ISA_EEEEEEPSC_EEED2B7v160006Ev, symObjAddr: 0x75660, symBinAddr: 0x10007FFE8, symSize: 0x17C }
  - { offsetInCU: 0x3E427, offset: 0x48AC9, size: 0x8, addend: 0x0, symName: __ZNKSt3__129_AllocatorDestroyRangeReverseINS_9allocatorINS_6vectorINS_7variantIJidbNS_12basic_stringIcNS_11char_traitsIcEENS1_IcEEEEEEENS1_IS9_EEEEEEPSB_EclB7v160006Ev, symObjAddr: 0x757DC, symBinAddr: 0x100080164, symSize: 0x40C }
  - { offsetInCU: 0x3E44D, offset: 0x48AEF, size: 0x8, addend: 0x0, symName: __ZNSt3__116reverse_iteratorIPNS_6vectorINS_7variantIJidbNS_12basic_stringIcNS_11char_traitsIcEENS_9allocatorIcEEEEEEENS6_IS9_EEEEEC1B7v160006ESC_, symObjAddr: 0x75EC4, symBinAddr: 0x10008084C, symSize: 0x80 }
  - { offsetInCU: 0x3E483, offset: 0x48B25, size: 0x8, addend: 0x0, symName: __ZNSt3__116allocator_traitsINS_9allocatorINS_6vectorINS_7variantIJidbNS_12basic_stringIcNS_11char_traitsIcEENS1_IcEEEEEEENS1_IS9_EEEEEEE7destroyB7v160006ISB_vEEvRSC_PT_, symObjAddr: 0x75FE0, symBinAddr: 0x100080968, symSize: 0x2C }
  - { offsetInCU: 0x3E4C1, offset: 0x48B63, size: 0x8, addend: 0x0, symName: __ZNSt3__116reverse_iteratorIPNS_6vectorINS_7variantIJidbNS_12basic_stringIcNS_11char_traitsIcEENS_9allocatorIcEEEEEEENS6_IS9_EEEEEppB7v160006Ev, symObjAddr: 0x76078, symBinAddr: 0x100080A00, symSize: 0x1B0 }
  - { offsetInCU: 0x3E4E6, offset: 0x48B88, size: 0x8, addend: 0x0, symName: __ZNKSt3__116reverse_iteratorIPNS_6vectorINS_7variantIJidbNS_12basic_stringIcNS_11char_traitsIcEENS_9allocatorIcEEEEEEENS6_IS9_EEEEE4baseB7v160006Ev, symObjAddr: 0x76228, symBinAddr: 0x100080BB0, symSize: 0xB0 }
  - { offsetInCU: 0x3E50B, offset: 0x48BAD, size: 0x8, addend: 0x0, symName: __ZNSt3__19allocatorINS_6vectorINS_7variantIJidbNS_12basic_stringIcNS_11char_traitsIcEENS0_IcEEEEEEENS0_IS8_EEEEE7destroyB7v160006EPSA_, symObjAddr: 0x762D8, symBinAddr: 0x100080C60, symSize: 0x9C }
  - { offsetInCU: 0x3E53E, offset: 0x48BE0, size: 0x8, addend: 0x0, symName: __ZNSt3__16vectorINS_7variantIJidbNS_12basic_stringIcNS_11char_traitsIcEENS_9allocatorIcEEEEEEENS5_IS8_EEED1B7v160006Ev, symObjAddr: 0x76374, symBinAddr: 0x100080CFC, symSize: 0x78 }
  - { offsetInCU: 0x3E566, offset: 0x48C08, size: 0x8, addend: 0x0, symName: __ZNSt3__16vectorINS_7variantIJidbNS_12basic_stringIcNS_11char_traitsIcEENS_9allocatorIcEEEEEEENS5_IS8_EEED2B7v160006Ev, symObjAddr: 0x763EC, symBinAddr: 0x100080D74, symSize: 0x298 }
  - { offsetInCU: 0x3E594, offset: 0x48C36, size: 0x8, addend: 0x0, symName: __ZNSt3__119__to_address_helperINS_16reverse_iteratorIPNS_6vectorINS_7variantIJidbNS_12basic_stringIcNS_11char_traitsIcEENS_9allocatorIcEEEEEEENS7_ISA_EEEEEEvE6__callB7v160006ERKSE_, symObjAddr: 0x76684, symBinAddr: 0x10008100C, symSize: 0x70 }
  - { offsetInCU: 0x3E5B7, offset: 0x48C59, size: 0x8, addend: 0x0, symName: __ZNKSt3__116reverse_iteratorIPNS_6vectorINS_7variantIJidbNS_12basic_stringIcNS_11char_traitsIcEENS_9allocatorIcEEEEEEENS6_IS9_EEEEEptB7v160006Ev, symObjAddr: 0x766F4, symBinAddr: 0x10008107C, symSize: 0x6C }
  - { offsetInCU: 0x3E5DC, offset: 0x48C7E, size: 0x8, addend: 0x0, symName: __ZNKSt3__116reverse_iteratorIPNS_6vectorINS_7variantIJidbNS_12basic_stringIcNS_11char_traitsIcEENS_9allocatorIcEEEEEEENS6_IS9_EEEEEdeB7v160006Ev, symObjAddr: 0x76760, symBinAddr: 0x1000810E8, symSize: 0x184 }
  - { offsetInCU: 0x3E60F, offset: 0x48CB1, size: 0x8, addend: 0x0, symName: __ZNSt3__116reverse_iteratorIPNS_6vectorINS_7variantIJidbNS_12basic_stringIcNS_11char_traitsIcEENS_9allocatorIcEEEEEEENS6_IS9_EEEEEC2B7v160006ESC_, symObjAddr: 0x768E4, symBinAddr: 0x10008126C, symSize: 0x10C }
  - { offsetInCU: 0x3E645, offset: 0x48CE7, size: 0x8, addend: 0x0, symName: __ZNSt3__117__compressed_pairIPNS_6vectorINS_7variantIJidbNS_12basic_stringIcNS_11char_traitsIcEENS_9allocatorIcEEEEEEENS6_IS9_EEEENS6_ISB_EEE6secondB7v160006Ev, symObjAddr: 0x769F0, symBinAddr: 0x100081378, symSize: 0x108 }
  - { offsetInCU: 0x3E66A, offset: 0x48D0C, size: 0x8, addend: 0x0, symName: __ZNSt3__122__compressed_pair_elemINS_9allocatorINS_6vectorINS_7variantIJidbNS_12basic_stringIcNS_11char_traitsIcEENS1_IcEEEEEEENS1_IS9_EEEEEELi1ELb1EE5__getB7v160006Ev, symObjAddr: 0x76AF8, symBinAddr: 0x100081480, symSize: 0x74 }
  - { offsetInCU: 0x3E68F, offset: 0x48D31, size: 0x8, addend: 0x0, symName: __ZNSt3__16vectorINS0_INS_7variantIJidbNS_12basic_stringIcNS_11char_traitsIcEENS_9allocatorIcEEEEEEENS5_IS8_EEEENS5_ISA_EEE21_ConstructTransactionD2B7v160006Ev, symObjAddr: 0x76B6C, symBinAddr: 0x1000814F4, symSize: 0x390 }
  - { offsetInCU: 0x3E6B7, offset: 0x48D59, size: 0x8, addend: 0x0, symName: __ZNKSt3__16vectorINS0_INS_7variantIJidbNS_12basic_stringIcNS_11char_traitsIcEENS_9allocatorIcEEEEEEENS5_IS8_EEEENS5_ISA_EEE17__annotate_shrinkB7v160006Em, symObjAddr: 0x76EFC, symBinAddr: 0x100081884, symSize: 0x378 }
  - { offsetInCU: 0x3E6EB, offset: 0x48D8D, size: 0x8, addend: 0x0, symName: __ZNSt3__16vectorINS0_INS_7variantIJidbNS_12basic_stringIcNS_11char_traitsIcEENS_9allocatorIcEEEEEEENS5_IS8_EEEENS5_ISA_EEE27__invalidate_iterators_pastB7v160006EPSA_, symObjAddr: 0x77274, symBinAddr: 0x100081BFC, symSize: 0x64 }
  - { offsetInCU: 0x3E721, offset: 0x48DC3, size: 0x8, addend: 0x0, symName: __ZNSt3__16vectorINS0_INS_7variantIJidbNS_12basic_stringIcNS_11char_traitsIcEENS_9allocatorIcEEEEEEENS5_IS8_EEEENS5_ISA_EEE22__base_destruct_at_endB7v160006EPSA_, symObjAddr: 0x772D8, symBinAddr: 0x100081C60, symSize: 0x1FC }
  - { offsetInCU: 0x3E764, offset: 0x48E06, size: 0x8, addend: 0x0, symName: __ZNSt3__16vectorINS0_INS_7variantIJidbNS_12basic_stringIcNS_11char_traitsIcEENS_9allocatorIcEEEEEEENS5_IS8_EEEENS5_ISA_EEE5clearB7v160006Ev, symObjAddr: 0x774D4, symBinAddr: 0x100081E5C, symSize: 0xA4 }
  - { offsetInCU: 0x3E798, offset: 0x48E3A, size: 0x8, addend: 0x0, symName: __ZNSt3__116allocator_traitsINS_9allocatorINS_6vectorINS_7variantIJidbNS_12basic_stringIcNS_11char_traitsIcEENS1_IcEEEEEEENS1_IS9_EEEEEEE10deallocateB7v160006ERSC_PSB_m, symObjAddr: 0x77578, symBinAddr: 0x100081F00, symSize: 0x34 }
  - { offsetInCU: 0x3E7DA, offset: 0x48E7C, size: 0x8, addend: 0x0, symName: __ZNSt3__16vectorINS0_INS_7variantIJidbNS_12basic_stringIcNS_11char_traitsIcEENS_9allocatorIcEEEEEEENS5_IS8_EEEENS5_ISA_EEE9__end_capB7v160006Ev, symObjAddr: 0x775AC, symBinAddr: 0x100081F34, symSize: 0x100 }
  - { offsetInCU: 0x3E7FF, offset: 0x48EA1, size: 0x8, addend: 0x0, symName: __ZNSt3__16vectorINS0_INS_7variantIJidbNS_12basic_stringIcNS_11char_traitsIcEENS_9allocatorIcEEEEEEENS5_IS8_EEEENS5_ISA_EEE7__clearB7v160006Ev, symObjAddr: 0x776AC, symBinAddr: 0x100082034, symSize: 0xB0 }
  - { offsetInCU: 0x3E824, offset: 0x48EC6, size: 0x8, addend: 0x0, symName: __ZNSt3__19allocatorINS_6vectorINS_7variantIJidbNS_12basic_stringIcNS_11char_traitsIcEENS0_IcEEEEEEENS0_IS8_EEEEE10deallocateB7v160006EPSA_m, symObjAddr: 0x7775C, symBinAddr: 0x1000820E4, symSize: 0x7C }
  - { offsetInCU: 0x3E865, offset: 0x48F07, size: 0x8, addend: 0x0, symName: __ZNSt3__117__compressed_pairIPNS_6vectorINS_7variantIJidbNS_12basic_stringIcNS_11char_traitsIcEENS_9allocatorIcEEEEEEENS6_IS9_EEEENS6_ISB_EEE5firstB7v160006Ev, symObjAddr: 0x777D8, symBinAddr: 0x100082160, symSize: 0x124 }
  - { offsetInCU: 0x3E88A, offset: 0x48F2C, size: 0x8, addend: 0x0, symName: __ZNSt3__122__compressed_pair_elemIPNS_6vectorINS_7variantIJidbNS_12basic_stringIcNS_11char_traitsIcEENS_9allocatorIcEEEEEEENS6_IS9_EEEELi0ELb0EE5__getB7v160006Ev, symObjAddr: 0x778FC, symBinAddr: 0x100082284, symSize: 0xAC }
  - { offsetInCU: 0x3E8AF, offset: 0x48F51, size: 0x8, addend: 0x0, symName: __ZNKSt3__16vectorINS0_INS_7variantIJidbNS_12basic_stringIcNS_11char_traitsIcEENS_9allocatorIcEEEEEEENS5_IS8_EEEENS5_ISA_EEE8max_sizeEv, symObjAddr: 0x779A8, symBinAddr: 0x100082330, symSize: 0x3B8 }
  - { offsetInCU: 0x3E8D7, offset: 0x48F79, size: 0x8, addend: 0x0, symName: __ZNKSt3__16vectorINS0_INS_7variantIJidbNS_12basic_stringIcNS_11char_traitsIcEENS_9allocatorIcEEEEEEENS5_IS8_EEEENS5_ISA_EEE20__throw_length_errorB7v160006Ev, symObjAddr: 0x77D60, symBinAddr: 0x1000826E8, symSize: 0x80 }
  - { offsetInCU: 0x3E8FC, offset: 0x48F9E, size: 0x8, addend: 0x0, symName: __ZNKSt3__16vectorINS0_INS_7variantIJidbNS_12basic_stringIcNS_11char_traitsIcEENS_9allocatorIcEEEEEEENS5_IS8_EEEENS5_ISA_EEE14__annotate_newB7v160006Em, symObjAddr: 0x7806C, symBinAddr: 0x1000829F4, symSize: 0x378 }
  - { offsetInCU: 0x3E93A, offset: 0x48FDC, size: 0x8, addend: 0x0, symName: __ZNSt3__116allocator_traitsINS_9allocatorINS_6vectorINS_7variantIJidbNS_12basic_stringIcNS_11char_traitsIcEENS1_IcEEEEEEENS1_IS9_EEEEEEE8max_sizeB7v160006ISC_vEEmRKSC_, symObjAddr: 0x783E4, symBinAddr: 0x100082D6C, symSize: 0x24 }
  - { offsetInCU: 0x3E969, offset: 0x4900B, size: 0x8, addend: 0x0, symName: __ZNKSt3__16vectorINS0_INS_7variantIJidbNS_12basic_stringIcNS_11char_traitsIcEENS_9allocatorIcEEEEEEENS5_IS8_EEEENS5_ISA_EEE7__allocB7v160006Ev, symObjAddr: 0x78408, symBinAddr: 0x100082D90, symSize: 0xE4 }
  - { offsetInCU: 0x3E98E, offset: 0x49030, size: 0x8, addend: 0x0, symName: __ZNKSt3__19allocatorINS_6vectorINS_7variantIJidbNS_12basic_stringIcNS_11char_traitsIcEENS0_IcEEEEEEENS0_IS8_EEEEE8max_sizeB7v160006Ev, symObjAddr: 0x784EC, symBinAddr: 0x100082E74, symSize: 0x50 }
  - { offsetInCU: 0x3E9B3, offset: 0x49055, size: 0x8, addend: 0x0, symName: __ZNKSt3__117__compressed_pairIPNS_6vectorINS_7variantIJidbNS_12basic_stringIcNS_11char_traitsIcEENS_9allocatorIcEEEEEEENS6_IS9_EEEENS6_ISB_EEE6secondB7v160006Ev, symObjAddr: 0x7853C, symBinAddr: 0x100082EC4, symSize: 0x108 }
  - { offsetInCU: 0x3E9D8, offset: 0x4907A, size: 0x8, addend: 0x0, symName: __ZNKSt3__122__compressed_pair_elemINS_9allocatorINS_6vectorINS_7variantIJidbNS_12basic_stringIcNS_11char_traitsIcEENS1_IcEEEEEEENS1_IS9_EEEEEELi1ELb1EE5__getB7v160006Ev, symObjAddr: 0x78644, symBinAddr: 0x100082FCC, symSize: 0x74 }
  - { offsetInCU: 0x3E9FD, offset: 0x4909F, size: 0x8, addend: 0x0, symName: __ZNSt3__19allocatorINS_6vectorINS_7variantIJidbNS_12basic_stringIcNS_11char_traitsIcEENS0_IcEEEEEEENS0_IS8_EEEEE8allocateB7v160006Em, symObjAddr: 0x786B8, symBinAddr: 0x100083040, symSize: 0xD0 }
  - { offsetInCU: 0x3EA30, offset: 0x490D2, size: 0x8, addend: 0x0, symName: __ZNSt3__112__hash_tableINS_17__hash_value_typeINS_7variantIJidbNS_12basic_stringIcNS_11char_traitsIcEENS_9allocatorIcEEEEEEENS_6vectorIjNS6_IjEEEEEENS_22__unordered_map_hasherIS9_SD_NS_4hashIS9_EENS_8equal_toIS9_EELb1EEENS_21__unordered_map_equalIS9_SD_SI_SG_Lb1EEENS6_ISD_EEEaSERKSN_, symObjAddr: 0x78788, symBinAddr: 0x100083110, symSize: 0x5BC }
  - { offsetInCU: 0x3EA68, offset: 0x4910A, size: 0x8, addend: 0x0, symName: __ZNSt3__112__hash_tableINS_17__hash_value_typeINS_7variantIJidbNS_12basic_stringIcNS_11char_traitsIcEENS_9allocatorIcEEEEEEENS_6vectorIjNS6_IjEEEEEENS_22__unordered_map_hasherIS9_SD_NS_4hashIS9_EENS_8equal_toIS9_EELb1EEENS_21__unordered_map_equalIS9_SD_SI_SG_Lb1EEENS6_ISD_EEE19__copy_assign_allocB7v160006ERKSN_, symObjAddr: 0x78D44, symBinAddr: 0x1000836CC, symSize: 0xBC }
  - { offsetInCU: 0x3EA9C, offset: 0x4913E, size: 0x8, addend: 0x0, symName: __ZNKSt3__112__hash_tableINS_17__hash_value_typeINS_7variantIJidbNS_12basic_stringIcNS_11char_traitsIcEENS_9allocatorIcEEEEEEENS_6vectorIjNS6_IjEEEEEENS_22__unordered_map_hasherIS9_SD_NS_4hashIS9_EENS_8equal_toIS9_EELb1EEENS_21__unordered_map_equalIS9_SD_SI_SG_Lb1EEENS6_ISD_EEE13hash_functionB7v160006Ev, symObjAddr: 0x78E00, symBinAddr: 0x100083788, symSize: 0xE4 }
  - { offsetInCU: 0x3EAC1, offset: 0x49163, size: 0x8, addend: 0x0, symName: __ZNSt3__112__hash_tableINS_17__hash_value_typeINS_7variantIJidbNS_12basic_stringIcNS_11char_traitsIcEENS_9allocatorIcEEEEEEENS_6vectorIjNS6_IjEEEEEENS_22__unordered_map_hasherIS9_SD_NS_4hashIS9_EENS_8equal_toIS9_EELb1EEENS_21__unordered_map_equalIS9_SD_SI_SG_Lb1EEENS6_ISD_EEE13hash_functionB7v160006Ev, symObjAddr: 0x78EE4, symBinAddr: 0x10008386C, symSize: 0xE4 }
  - { offsetInCU: 0x3EAE6, offset: 0x49188, size: 0x8, addend: 0x0, symName: __ZNKSt3__112__hash_tableINS_17__hash_value_typeINS_7variantIJidbNS_12basic_stringIcNS_11char_traitsIcEENS_9allocatorIcEEEEEEENS_6vectorIjNS6_IjEEEEEENS_22__unordered_map_hasherIS9_SD_NS_4hashIS9_EENS_8equal_toIS9_EELb1EEENS_21__unordered_map_equalIS9_SD_SI_SG_Lb1EEENS6_ISD_EEE6key_eqB7v160006Ev, symObjAddr: 0x78FC8, symBinAddr: 0x100083950, symSize: 0xE4 }
  - { offsetInCU: 0x3EB0B, offset: 0x491AD, size: 0x8, addend: 0x0, symName: __ZNSt3__112__hash_tableINS_17__hash_value_typeINS_7variantIJidbNS_12basic_stringIcNS_11char_traitsIcEENS_9allocatorIcEEEEEEENS_6vectorIjNS6_IjEEEEEENS_22__unordered_map_hasherIS9_SD_NS_4hashIS9_EENS_8equal_toIS9_EELb1EEENS_21__unordered_map_equalIS9_SD_SI_SG_Lb1EEENS6_ISD_EEE6key_eqB7v160006Ev, symObjAddr: 0x790AC, symBinAddr: 0x100083A34, symSize: 0xE4 }
  - { offsetInCU: 0x3EB30, offset: 0x491D2, size: 0x8, addend: 0x0, symName: __ZNKSt3__112__hash_tableINS_17__hash_value_typeINS_7variantIJidbNS_12basic_stringIcNS_11char_traitsIcEENS_9allocatorIcEEEEEEENS_6vectorIjNS6_IjEEEEEENS_22__unordered_map_hasherIS9_SD_NS_4hashIS9_EENS_8equal_toIS9_EELb1EEENS_21__unordered_map_equalIS9_SD_SI_SG_Lb1EEENS6_ISD_EEE15max_load_factorB7v160006Ev, symObjAddr: 0x79190, symBinAddr: 0x100083B18, symSize: 0x16C }
  - { offsetInCU: 0x3EB55, offset: 0x491F7, size: 0x8, addend: 0x0, symName: __ZNSt3__112__hash_tableINS_17__hash_value_typeINS_7variantIJidbNS_12basic_stringIcNS_11char_traitsIcEENS_9allocatorIcEEEEEEENS_6vectorIjNS6_IjEEEEEENS_22__unordered_map_hasherIS9_SD_NS_4hashIS9_EENS_8equal_toIS9_EELb1EEENS_21__unordered_map_equalIS9_SD_SI_SG_Lb1EEENS6_ISD_EEE15max_load_factorB7v160006Ev, symObjAddr: 0x792FC, symBinAddr: 0x100083C84, symSize: 0x100 }
  - { offsetInCU: 0x3EB7A, offset: 0x4921C, size: 0x8, addend: 0x0, symName: __ZNSt3__112__hash_tableINS_17__hash_value_typeINS_7variantIJidbNS_12basic_stringIcNS_11char_traitsIcEENS_9allocatorIcEEEEEEENS_6vectorIjNS6_IjEEEEEENS_22__unordered_map_hasherIS9_SD_NS_4hashIS9_EENS_8equal_toIS9_EELb1EEENS_21__unordered_map_equalIS9_SD_SI_SG_Lb1EEENS6_ISD_EEE14__assign_multiINS_21__hash_const_iteratorIPNS_11__hash_nodeISD_PvEEEEEEvT_SV_, symObjAddr: 0x793FC, symBinAddr: 0x100083D84, symSize: 0x858 }
  - { offsetInCU: 0x3EBFD, offset: 0x4929F, size: 0x8, addend: 0x0, symName: __ZNKSt3__112__hash_tableINS_17__hash_value_typeINS_7variantIJidbNS_12basic_stringIcNS_11char_traitsIcEENS_9allocatorIcEEEEEEENS_6vectorIjNS6_IjEEEEEENS_22__unordered_map_hasherIS9_SD_NS_4hashIS9_EENS_8equal_toIS9_EELb1EEENS_21__unordered_map_equalIS9_SD_SI_SG_Lb1EEENS6_ISD_EEE5beginEv, symObjAddr: 0x79C54, symBinAddr: 0x1000845DC, symSize: 0x358 }
  - { offsetInCU: 0x3EC25, offset: 0x492C7, size: 0x8, addend: 0x0, symName: __ZNKSt3__112__hash_tableINS_17__hash_value_typeINS_7variantIJidbNS_12basic_stringIcNS_11char_traitsIcEENS_9allocatorIcEEEEEEENS_6vectorIjNS6_IjEEEEEENS_22__unordered_map_hasherIS9_SD_NS_4hashIS9_EENS_8equal_toIS9_EELb1EEENS_21__unordered_map_equalIS9_SD_SI_SG_Lb1EEENS6_ISD_EEE3endEv, symObjAddr: 0x79FAC, symBinAddr: 0x100084934, symSize: 0x248 }
  - { offsetInCU: 0x3EC4D, offset: 0x492EF, size: 0x8, addend: 0x0, symName: __ZNSt3__112__hash_tableINS_17__hash_value_typeINS_7variantIJidbNS_12basic_stringIcNS_11char_traitsIcEENS_9allocatorIcEEEEEEENS_6vectorIjNS6_IjEEEEEENS_22__unordered_map_hasherIS9_SD_NS_4hashIS9_EENS_8equal_toIS9_EELb1EEENS_21__unordered_map_equalIS9_SD_SI_SG_Lb1EEENS6_ISD_EEE19__copy_assign_allocB7v160006ERKSN_NS_17integral_constantIbLb0EEE, symObjAddr: 0x7A1F4, symBinAddr: 0x100084B7C, symSize: 0x64 }
  - { offsetInCU: 0x3EC8A, offset: 0x4932C, size: 0x8, addend: 0x0, symName: __ZNKSt3__117__compressed_pairImNS_22__unordered_map_hasherINS_7variantIJidbNS_12basic_stringIcNS_11char_traitsIcEENS_9allocatorIcEEEEEEENS_17__hash_value_typeIS9_NS_6vectorIjNS6_IjEEEEEENS_4hashIS9_EENS_8equal_toIS9_EELb1EEEE6secondB7v160006Ev, symObjAddr: 0x7A258, symBinAddr: 0x100084BE0, symSize: 0x108 }
  - { offsetInCU: 0x3ECAF, offset: 0x49351, size: 0x8, addend: 0x0, symName: __ZNKSt3__122__compressed_pair_elemINS_22__unordered_map_hasherINS_7variantIJidbNS_12basic_stringIcNS_11char_traitsIcEENS_9allocatorIcEEEEEEENS_17__hash_value_typeIS9_NS_6vectorIjNS6_IjEEEEEENS_4hashIS9_EENS_8equal_toIS9_EELb1EEELi1ELb1EE5__getB7v160006Ev, symObjAddr: 0x7A360, symBinAddr: 0x100084CE8, symSize: 0x74 }
  - { offsetInCU: 0x3ECD4, offset: 0x49376, size: 0x8, addend: 0x0, symName: __ZNSt3__117__compressed_pairImNS_22__unordered_map_hasherINS_7variantIJidbNS_12basic_stringIcNS_11char_traitsIcEENS_9allocatorIcEEEEEEENS_17__hash_value_typeIS9_NS_6vectorIjNS6_IjEEEEEENS_4hashIS9_EENS_8equal_toIS9_EELb1EEEE6secondB7v160006Ev, symObjAddr: 0x7A3D4, symBinAddr: 0x100084D5C, symSize: 0x108 }
  - { offsetInCU: 0x3ECF9, offset: 0x4939B, size: 0x8, addend: 0x0, symName: __ZNSt3__122__compressed_pair_elemINS_22__unordered_map_hasherINS_7variantIJidbNS_12basic_stringIcNS_11char_traitsIcEENS_9allocatorIcEEEEEEENS_17__hash_value_typeIS9_NS_6vectorIjNS6_IjEEEEEENS_4hashIS9_EENS_8equal_toIS9_EELb1EEELi1ELb1EE5__getB7v160006Ev, symObjAddr: 0x7A4DC, symBinAddr: 0x100084E64, symSize: 0x74 }
  - { offsetInCU: 0x3ED1E, offset: 0x493C0, size: 0x8, addend: 0x0, symName: __ZNKSt3__117__compressed_pairIfNS_21__unordered_map_equalINS_7variantIJidbNS_12basic_stringIcNS_11char_traitsIcEENS_9allocatorIcEEEEEEENS_17__hash_value_typeIS9_NS_6vectorIjNS6_IjEEEEEENS_8equal_toIS9_EENS_4hashIS9_EELb1EEEE6secondB7v160006Ev, symObjAddr: 0x7A550, symBinAddr: 0x100084ED8, symSize: 0x108 }
  - { offsetInCU: 0x3ED43, offset: 0x493E5, size: 0x8, addend: 0x0, symName: __ZNKSt3__122__compressed_pair_elemINS_21__unordered_map_equalINS_7variantIJidbNS_12basic_stringIcNS_11char_traitsIcEENS_9allocatorIcEEEEEEENS_17__hash_value_typeIS9_NS_6vectorIjNS6_IjEEEEEENS_8equal_toIS9_EENS_4hashIS9_EELb1EEELi1ELb1EE5__getB7v160006Ev, symObjAddr: 0x7A658, symBinAddr: 0x100084FE0, symSize: 0x74 }
  - { offsetInCU: 0x3ED68, offset: 0x4940A, size: 0x8, addend: 0x0, symName: __ZNSt3__117__compressed_pairIfNS_21__unordered_map_equalINS_7variantIJidbNS_12basic_stringIcNS_11char_traitsIcEENS_9allocatorIcEEEEEEENS_17__hash_value_typeIS9_NS_6vectorIjNS6_IjEEEEEENS_8equal_toIS9_EENS_4hashIS9_EELb1EEEE6secondB7v160006Ev, symObjAddr: 0x7A6CC, symBinAddr: 0x100085054, symSize: 0x108 }
  - { offsetInCU: 0x3ED8D, offset: 0x4942F, size: 0x8, addend: 0x0, symName: __ZNSt3__122__compressed_pair_elemINS_21__unordered_map_equalINS_7variantIJidbNS_12basic_stringIcNS_11char_traitsIcEENS_9allocatorIcEEEEEEENS_17__hash_value_typeIS9_NS_6vectorIjNS6_IjEEEEEENS_8equal_toIS9_EENS_4hashIS9_EELb1EEELi1ELb1EE5__getB7v160006Ev, symObjAddr: 0x7A7D4, symBinAddr: 0x10008515C, symSize: 0x74 }
  - { offsetInCU: 0x3EDB2, offset: 0x49454, size: 0x8, addend: 0x0, symName: __ZNKSt3__117__compressed_pairIfNS_21__unordered_map_equalINS_7variantIJidbNS_12basic_stringIcNS_11char_traitsIcEENS_9allocatorIcEEEEEEENS_17__hash_value_typeIS9_NS_6vectorIjNS6_IjEEEEEENS_8equal_toIS9_EENS_4hashIS9_EELb1EEEE5firstB7v160006Ev, symObjAddr: 0x7A848, symBinAddr: 0x1000851D0, symSize: 0x124 }
  - { offsetInCU: 0x3EDD7, offset: 0x49479, size: 0x8, addend: 0x0, symName: __ZNKSt3__122__compressed_pair_elemIfLi0ELb0EE5__getB7v160006Ev, symObjAddr: 0x7A96C, symBinAddr: 0x1000852F4, symSize: 0xAC }
  - { offsetInCU: 0x3EDFC, offset: 0x4949E, size: 0x8, addend: 0x0, symName: __ZNSt3__117__compressed_pairIfNS_21__unordered_map_equalINS_7variantIJidbNS_12basic_stringIcNS_11char_traitsIcEENS_9allocatorIcEEEEEEENS_17__hash_value_typeIS9_NS_6vectorIjNS6_IjEEEEEENS_8equal_toIS9_EENS_4hashIS9_EELb1EEEE5firstB7v160006Ev, symObjAddr: 0x7AA18, symBinAddr: 0x1000853A0, symSize: 0x124 }
  - { offsetInCU: 0x3EE21, offset: 0x494C3, size: 0x8, addend: 0x0, symName: __ZNKSt3__112__hash_tableINS_17__hash_value_typeINS_7variantIJidbNS_12basic_stringIcNS_11char_traitsIcEENS_9allocatorIcEEEEEEENS_6vectorIjNS6_IjEEEEEENS_22__unordered_map_hasherIS9_SD_NS_4hashIS9_EENS_8equal_toIS9_EELb1EEENS_21__unordered_map_equalIS9_SD_SI_SG_Lb1EEENS6_ISD_EEE12bucket_countB7v160006Ev, symObjAddr: 0x7AB3C, symBinAddr: 0x1000854C4, symSize: 0xFC }
  - { offsetInCU: 0x3EE46, offset: 0x494E8, size: 0x8, addend: 0x0, symName: __ZNSt3__112__hash_tableINS_17__hash_value_typeINS_7variantIJidbNS_12basic_stringIcNS_11char_traitsIcEENS_9allocatorIcEEEEEEENS_6vectorIjNS6_IjEEEEEENS_22__unordered_map_hasherIS9_SD_NS_4hashIS9_EENS_8equal_toIS9_EELb1EEENS_21__unordered_map_equalIS9_SD_SI_SG_Lb1EEENS6_ISD_EEE8__detachEv, symObjAddr: 0x7AC38, symBinAddr: 0x1000855C0, symSize: 0x450 }
  - { offsetInCU: 0x3EEA0, offset: 0x49542, size: 0x8, addend: 0x0, symName: __ZNKSt3__121__hash_const_iteratorIPNS_11__hash_nodeINS_17__hash_value_typeINS_7variantIJidbNS_12basic_stringIcNS_11char_traitsIcEENS_9allocatorIcEEEEEEENS_6vectorIjNS7_IjEEEEEEPvEEEdeB7v160006Ev, symObjAddr: 0x7B14C, symBinAddr: 0x100085AD4, symSize: 0x18C }
  - { offsetInCU: 0x3EEC5, offset: 0x49567, size: 0x8, addend: 0x0, symName: __ZNSt3__116__hash_node_baseIPNS_11__hash_nodeINS_17__hash_value_typeINS_7variantIJidbNS_12basic_stringIcNS_11char_traitsIcEENS_9allocatorIcEEEEEEENS_6vectorIjNS7_IjEEEEEEPvEEE8__upcastB7v160006Ev, symObjAddr: 0x7B2D8, symBinAddr: 0x100085C60, symSize: 0xF8 }
  - { offsetInCU: 0x3EEEA, offset: 0x4958C, size: 0x8, addend: 0x0, symName: __ZNSt3__117__hash_value_typeINS_7variantIJidbNS_12basic_stringIcNS_11char_traitsIcEENS_9allocatorIcEEEEEEENS_6vectorIjNS5_IjEEEEEaSB7v160006ERKSC_, symObjAddr: 0x7B3D0, symBinAddr: 0x100085D58, symSize: 0x334 }
  - { offsetInCU: 0x3EF20, offset: 0x495C2, size: 0x8, addend: 0x0, symName: __ZNSt3__112__hash_tableINS_17__hash_value_typeINS_7variantIJidbNS_12basic_stringIcNS_11char_traitsIcEENS_9allocatorIcEEEEEEENS_6vectorIjNS6_IjEEEEEENS_22__unordered_map_hasherIS9_SD_NS_4hashIS9_EENS_8equal_toIS9_EELb1EEENS_21__unordered_map_equalIS9_SD_SI_SG_Lb1EEENS6_ISD_EEE19__node_insert_multiEPNS_11__hash_nodeISD_PvEE, symObjAddr: 0x7B704, symBinAddr: 0x10008608C, symSize: 0x5A8 }
  - { offsetInCU: 0x3EF68, offset: 0x4960A, size: 0x8, addend: 0x0, symName: __ZNSt3__121__hash_const_iteratorIPNS_11__hash_nodeINS_17__hash_value_typeINS_7variantIJidbNS_12basic_stringIcNS_11char_traitsIcEENS_9allocatorIcEEEEEEENS_6vectorIjNS7_IjEEEEEEPvEEEppB7v160006Ev, symObjAddr: 0x7BCAC, symBinAddr: 0x100086634, symSize: 0x1F0 }
  - { offsetInCU: 0x3EF8D, offset: 0x4962F, size: 0x8, addend: 0x0, symName: __ZNSt3__112__hash_tableINS_17__hash_value_typeINS_7variantIJidbNS_12basic_stringIcNS_11char_traitsIcEENS_9allocatorIcEEEEEEENS_6vectorIjNS6_IjEEEEEENS_22__unordered_map_hasherIS9_SD_NS_4hashIS9_EENS_8equal_toIS9_EELb1EEENS_21__unordered_map_equalIS9_SD_SI_SG_Lb1EEENS6_ISD_EEE17__deallocate_nodeEPNS_16__hash_node_baseIPNS_11__hash_nodeISD_PvEEEE, symObjAddr: 0x7BE9C, symBinAddr: 0x100086824, symSize: 0x31C }
  - { offsetInCU: 0x3EFF6, offset: 0x49698, size: 0x8, addend: 0x0, symName: __ZNSt3__112__hash_tableINS_17__hash_value_typeINS_7variantIJidbNS_12basic_stringIcNS_11char_traitsIcEENS_9allocatorIcEEEEEEENS_6vectorIjNS6_IjEEEEEENS_22__unordered_map_hasherIS9_SD_NS_4hashIS9_EENS_8equal_toIS9_EELb1EEENS_21__unordered_map_equalIS9_SD_SI_SG_Lb1EEENS6_ISD_EEE14__insert_multiB7v160006IRKNS_4pairIKS9_SC_EEEENS_15__hash_iteratorIPNS_11__hash_nodeISD_PvEEEEOT_, symObjAddr: 0x7C1B8, symBinAddr: 0x100086B40, symSize: 0x2CC }
  - { offsetInCU: 0x3F035, offset: 0x496D7, size: 0x8, addend: 0x0, symName: __ZNSt3__122__hash_key_value_typesINS_17__hash_value_typeINS_7variantIJidbNS_12basic_stringIcNS_11char_traitsIcEENS_9allocatorIcEEEEEEENS_6vectorIjNS6_IjEEEEEEE11__get_valueB7v160006IKSD_EENS_9enable_ifIXsr17__is_same_uncvrefIT_SD_EE5valueERKNS_4pairIKS9_SC_EEE4typeERSI_, symObjAddr: 0x7C484, symBinAddr: 0x100086E0C, symSize: 0x98 }
  - { offsetInCU: 0x3F061, offset: 0x49703, size: 0x8, addend: 0x0, symName: __ZNKSt3__110unique_ptrIA_PNS_16__hash_node_baseIPNS_11__hash_nodeINS_17__hash_value_typeINS_7variantIJidbNS_12basic_stringIcNS_11char_traitsIcEENS_9allocatorIcEEEEEEENS_6vectorIjNS8_IjEEEEEEPvEEEENS_25__bucket_list_deallocatorINS8_ISK_EEEEE11get_deleterB7v160006Ev, symObjAddr: 0x7C51C, symBinAddr: 0x100086EA4, symSize: 0xF8 }
  - { offsetInCU: 0x3F086, offset: 0x49728, size: 0x8, addend: 0x0, symName: __ZNKSt3__125__bucket_list_deallocatorINS_9allocatorIPNS_16__hash_node_baseIPNS_11__hash_nodeINS_17__hash_value_typeINS_7variantIJidbNS_12basic_stringIcNS_11char_traitsIcEENS1_IcEEEEEEENS_6vectorIjNS1_IjEEEEEEPvEEEEEEE4sizeB7v160006Ev, symObjAddr: 0x7C614, symBinAddr: 0x100086F9C, symSize: 0x13C }
  - { offsetInCU: 0x3F0AB, offset: 0x4974D, size: 0x8, addend: 0x0, symName: __ZNKSt3__117__compressed_pairIPPNS_16__hash_node_baseIPNS_11__hash_nodeINS_17__hash_value_typeINS_7variantIJidbNS_12basic_stringIcNS_11char_traitsIcEENS_9allocatorIcEEEEEEENS_6vectorIjNS8_IjEEEEEEPvEEEENS_25__bucket_list_deallocatorINS8_ISK_EEEEE6secondB7v160006Ev, symObjAddr: 0x7C750, symBinAddr: 0x1000870D8, symSize: 0x12C }
  - { offsetInCU: 0x3F0D0, offset: 0x49772, size: 0x8, addend: 0x0, symName: __ZNKSt3__122__compressed_pair_elemINS_25__bucket_list_deallocatorINS_9allocatorIPNS_16__hash_node_baseIPNS_11__hash_nodeINS_17__hash_value_typeINS_7variantIJidbNS_12basic_stringIcNS_11char_traitsIcEENS2_IcEEEEEEENS_6vectorIjNS2_IjEEEEEEPvEEEEEEEELi1ELb0EE5__getB7v160006Ev, symObjAddr: 0x7C87C, symBinAddr: 0x100087204, symSize: 0xAC }
  - { offsetInCU: 0x3F0F5, offset: 0x49797, size: 0x8, addend: 0x0, symName: __ZNKSt3__117__compressed_pairImNS_9allocatorIPNS_16__hash_node_baseIPNS_11__hash_nodeINS_17__hash_value_typeINS_7variantIJidbNS_12basic_stringIcNS_11char_traitsIcEENS1_IcEEEEEEENS_6vectorIjNS1_IjEEEEEEPvEEEEEEE5firstB7v160006Ev, symObjAddr: 0x7C928, symBinAddr: 0x1000872B0, symSize: 0x124 }
  - { offsetInCU: 0x3F11A, offset: 0x497BC, size: 0x8, addend: 0x0, symName: __ZNKSt3__110unique_ptrIA_PNS_16__hash_node_baseIPNS_11__hash_nodeINS_17__hash_value_typeINS_7variantIJidbNS_12basic_stringIcNS_11char_traitsIcEENS_9allocatorIcEEEEEEENS_6vectorIjNS8_IjEEEEEEPvEEEENS_25__bucket_list_deallocatorINS8_ISK_EEEEEixB7v160006Em, symObjAddr: 0x7CA4C, symBinAddr: 0x1000873D4, symSize: 0x25C }
  - { offsetInCU: 0x3F14E, offset: 0x497F0, size: 0x8, addend: 0x0, symName: __ZNSt3__112__hash_tableINS_17__hash_value_typeINS_7variantIJidbNS_12basic_stringIcNS_11char_traitsIcEENS_9allocatorIcEEEEEEENS_6vectorIjNS6_IjEEEEEENS_22__unordered_map_hasherIS9_SD_NS_4hashIS9_EENS_8equal_toIS9_EELb1EEENS_21__unordered_map_equalIS9_SD_SI_SG_Lb1EEENS6_ISD_EEE4sizeB7v160006Ev, symObjAddr: 0x7CCA8, symBinAddr: 0x100087630, symSize: 0x100 }
  - { offsetInCU: 0x3F173, offset: 0x49815, size: 0x8, addend: 0x0, symName: __ZNSt3__117__compressed_pairINS_16__hash_node_baseIPNS_11__hash_nodeINS_17__hash_value_typeINS_7variantIJidbNS_12basic_stringIcNS_11char_traitsIcEENS_9allocatorIcEEEEEEENS_6vectorIjNS8_IjEEEEEEPvEEEENS8_ISH_EEE5firstB7v160006Ev, symObjAddr: 0x7CDA8, symBinAddr: 0x100087730, symSize: 0x124 }
  - { offsetInCU: 0x3F198, offset: 0x4983A, size: 0x8, addend: 0x0, symName: __ZNKSt3__117__compressed_pairIPPNS_16__hash_node_baseIPNS_11__hash_nodeINS_17__hash_value_typeINS_7variantIJidbNS_12basic_stringIcNS_11char_traitsIcEENS_9allocatorIcEEEEEEENS_6vectorIjNS8_IjEEEEEEPvEEEENS_25__bucket_list_deallocatorINS8_ISK_EEEEE5firstB7v160006Ev, symObjAddr: 0x7CECC, symBinAddr: 0x100087854, symSize: 0x124 }
  - { offsetInCU: 0x3F1BD, offset: 0x4985F, size: 0x8, addend: 0x0, symName: __ZNKSt3__122__compressed_pair_elemIPPNS_16__hash_node_baseIPNS_11__hash_nodeINS_17__hash_value_typeINS_7variantIJidbNS_12basic_stringIcNS_11char_traitsIcEENS_9allocatorIcEEEEEEENS_6vectorIjNS8_IjEEEEEEPvEEEELi0ELb0EE5__getB7v160006Ev, symObjAddr: 0x7CFF0, symBinAddr: 0x100087978, symSize: 0xAC }
  - { offsetInCU: 0x3F1E2, offset: 0x49884, size: 0x8, addend: 0x0, symName: __ZNSt3__117__compressed_pairImNS_22__unordered_map_hasherINS_7variantIJidbNS_12basic_stringIcNS_11char_traitsIcEENS_9allocatorIcEEEEEEENS_17__hash_value_typeIS9_NS_6vectorIjNS6_IjEEEEEENS_4hashIS9_EENS_8equal_toIS9_EELb1EEEE5firstB7v160006Ev, symObjAddr: 0x7D09C, symBinAddr: 0x100087A24, symSize: 0x124 }
  - { offsetInCU: 0x3F207, offset: 0x498A9, size: 0x8, addend: 0x0, symName: __ZNSt3__122__compressed_pair_elemINS_16__hash_node_baseIPNS_11__hash_nodeINS_17__hash_value_typeINS_7variantIJidbNS_12basic_stringIcNS_11char_traitsIcEENS_9allocatorIcEEEEEEENS_6vectorIjNS8_IjEEEEEEPvEEEELi0ELb0EE5__getB7v160006Ev, symObjAddr: 0x7D1C0, symBinAddr: 0x100087B48, symSize: 0xAC }
  - { offsetInCU: 0x3F22C, offset: 0x498CE, size: 0x8, addend: 0x0, symName: __ZNSt3__114pointer_traitsIPNS_16__hash_node_baseIPNS_11__hash_nodeINS_17__hash_value_typeINS_7variantIJidbNS_12basic_stringIcNS_11char_traitsIcEENS_9allocatorIcEEEEEEENS_6vectorIjNS8_IjEEEEEEPvEEEEE10pointer_toB7v160006ERSJ_, symObjAddr: 0x7D380, symBinAddr: 0x100087D08, symSize: 0x14 }
  - { offsetInCU: 0x3F24F, offset: 0x498F1, size: 0x8, addend: 0x0, symName: __ZNKSt3__117__hash_value_typeINS_7variantIJidbNS_12basic_stringIcNS_11char_traitsIcEENS_9allocatorIcEEEEEEENS_6vectorIjNS5_IjEEEEE11__get_valueB7v160006Ev, symObjAddr: 0x7D394, symBinAddr: 0x100087D1C, symSize: 0xB4 }
  - { offsetInCU: 0x3F274, offset: 0x49916, size: 0x8, addend: 0x0, symName: __ZNSt3__117__hash_value_typeINS_7variantIJidbNS_12basic_stringIcNS_11char_traitsIcEENS_9allocatorIcEEEEEEENS_6vectorIjNS5_IjEEEEE5__refB7v160006Ev, symObjAddr: 0x7D448, symBinAddr: 0x100087DD0, symSize: 0x33C }
  - { offsetInCU: 0x3F2AA, offset: 0x4994C, size: 0x8, addend: 0x0, symName: __ZNSt3__14pairIRNS_7variantIJidbNS_12basic_stringIcNS_11char_traitsIcEENS_9allocatorIcEEEEEEERNS_6vectorIjNS5_IjEEEEEaSB7v160006IRKNS0_IKS8_SC_EELPv0EEERSE_OT_, symObjAddr: 0x7D784, symBinAddr: 0x10008810C, symSize: 0x2FC }
  - { offsetInCU: 0x3F2ED, offset: 0x4998F, size: 0x8, addend: 0x0, symName: __ZNSt3__117__hash_value_typeINS_7variantIJidbNS_12basic_stringIcNS_11char_traitsIcEENS_9allocatorIcEEEEEEENS_6vectorIjNS5_IjEEEEE11__get_valueB7v160006Ev, symObjAddr: 0x7DAB8, symBinAddr: 0x100088440, symSize: 0xB4 }
  - { offsetInCU: 0x3F312, offset: 0x499B4, size: 0x8, addend: 0x0, symName: __ZNSt3__14pairIRNS_7variantIJidbNS_12basic_stringIcNS_11char_traitsIcEENS_9allocatorIcEEEEEEERNS_6vectorIjNS5_IjEEEEEC1B7v160006ILb1ELPv0EEES9_SD_, symObjAddr: 0x7DB6C, symBinAddr: 0x1000884F4, symSize: 0x88 }
  - { offsetInCU: 0x3F366, offset: 0x49A08, size: 0x8, addend: 0x0, symName: __ZNSt3__14pairIRNS_7variantIJidbNS_12basic_stringIcNS_11char_traitsIcEENS_9allocatorIcEEEEEEERNS_6vectorIjNS5_IjEEEEEC2B7v160006ILb1ELPv0EEES9_SD_, symObjAddr: 0x7DC2C, symBinAddr: 0x1000885B4, symSize: 0x198 }
  - { offsetInCU: 0x3F3BA, offset: 0x49A5C, size: 0x8, addend: 0x0, symName: __ZNSt3__16vectorIjNS_9allocatorIjEEEaSB7v160006ERKS3_, symObjAddr: 0x7DF2C, symBinAddr: 0x1000888B4, symSize: 0x218 }
  - { offsetInCU: 0x3F3F0, offset: 0x49A92, size: 0x8, addend: 0x0, symName: __ZNSt3__110__get_pairILm0EE3getB7v160006IKNS_7variantIJidbNS_12basic_stringIcNS_11char_traitsIcEENS_9allocatorIcEEEEEEENS_6vectorIjNS7_IjEEEEEERKT_RKNS_4pairISF_T0_EE, symObjAddr: 0x7E144, symBinAddr: 0x100088ACC, symSize: 0x68 }
  - { offsetInCU: 0x3F426, offset: 0x49AC8, size: 0x8, addend: 0x0, symName: __ZNSt3__110__get_pairILm1EE3getB7v160006IKNS_7variantIJidbNS_12basic_stringIcNS_11char_traitsIcEENS_9allocatorIcEEEEEEENS_6vectorIjNS7_IjEEEEEERKT0_RKNS_4pairIT_SF_EE, symObjAddr: 0x7E1AC, symBinAddr: 0x100088B34, symSize: 0x6C }
  - { offsetInCU: 0x3F45C, offset: 0x49AFE, size: 0x8, addend: 0x0, symName: __ZNSt3__16vectorIjNS_9allocatorIjEEE19__copy_assign_allocB7v160006ERKS3_, symObjAddr: 0x7E218, symBinAddr: 0x100088BA0, symSize: 0xBC }
  - { offsetInCU: 0x3F490, offset: 0x49B32, size: 0x8, addend: 0x0, symName: __ZNSt3__16vectorIjNS_9allocatorIjEEE6assignIPjLi0EEEvT_S6_, symObjAddr: 0x7E2D4, symBinAddr: 0x100088C5C, symSize: 0x4B4 }
  - { offsetInCU: 0x3F531, offset: 0x49BD3, size: 0x8, addend: 0x0, symName: __ZNSt3__16vectorIjNS_9allocatorIjEEE19__copy_assign_allocB7v160006ERKS3_NS_17integral_constantIbLb0EEE, symObjAddr: 0x7E788, symBinAddr: 0x100089110, symSize: 0x64 }
  - { offsetInCU: 0x3F56E, offset: 0x49C10, size: 0x8, addend: 0x0, symName: __ZNKSt3__16vectorIjNS_9allocatorIjEEE8capacityB7v160006Ev, symObjAddr: 0x7E818, symBinAddr: 0x1000891A0, symSize: 0x144 }
  - { offsetInCU: 0x3F593, offset: 0x49C35, size: 0x8, addend: 0x0, symName: __ZNKSt3__16vectorIjNS_9allocatorIjEEE4sizeB7v160006Ev, symObjAddr: 0x7E95C, symBinAddr: 0x1000892E4, symSize: 0xF8 }
  - { offsetInCU: 0x3F5B8, offset: 0x49C5A, size: 0x8, addend: 0x0, symName: __ZNSt3__16vectorIjNS_9allocatorIjEEE18__construct_at_endIPjLi0EEEvT_S6_m, symObjAddr: 0x7EDA0, symBinAddr: 0x100089728, symSize: 0x494 }
  - { offsetInCU: 0x3F633, offset: 0x49CD5, size: 0x8, addend: 0x0, symName: __ZNSt3__16vectorIjNS_9allocatorIjEEE17__destruct_at_endB7v160006EPj, symObjAddr: 0x7F234, symBinAddr: 0x100089BBC, symSize: 0xB0 }
  - { offsetInCU: 0x3F676, offset: 0x49D18, size: 0x8, addend: 0x0, symName: __ZNSt3__16vectorIjNS_9allocatorIjEEE13__vdeallocateEv, symObjAddr: 0x7F2E4, symBinAddr: 0x100089C6C, symSize: 0x23C }
  - { offsetInCU: 0x3F69D, offset: 0x49D3F, size: 0x8, addend: 0x0, symName: __ZNSt3__16vectorIjNS_9allocatorIjEEE11__vallocateB7v160006Em, symObjAddr: 0x7F520, symBinAddr: 0x100089EA8, symSize: 0x5E8 }
  - { offsetInCU: 0x3F6E6, offset: 0x49D88, size: 0x8, addend: 0x0, symName: __ZNKSt3__16vectorIjNS_9allocatorIjEEE11__recommendB7v160006Em, symObjAddr: 0x7FB08, symBinAddr: 0x10008A490, symSize: 0x45C }
  - { offsetInCU: 0x3F741, offset: 0x49DE3, size: 0x8, addend: 0x0, symName: __ZNKSt3__16vectorIjNS_9allocatorIjEEE9__end_capB7v160006Ev, symObjAddr: 0x7FF9C, symBinAddr: 0x10008A924, symSize: 0x100 }
  - { offsetInCU: 0x3F766, offset: 0x49E08, size: 0x8, addend: 0x0, symName: __ZNKSt3__117__compressed_pairIPjNS_9allocatorIjEEE5firstB7v160006Ev, symObjAddr: 0x8009C, symBinAddr: 0x10008AA24, symSize: 0x124 }
  - { offsetInCU: 0x3F78B, offset: 0x49E2D, size: 0x8, addend: 0x0, symName: __ZNKSt3__122__compressed_pair_elemIPjLi0ELb0EE5__getB7v160006Ev, symObjAddr: 0x801C0, symBinAddr: 0x10008AB48, symSize: 0xAC }
  - { offsetInCU: 0x3F7C9, offset: 0x49E6B, size: 0x8, addend: 0x0, symName: __ZNKSt3__114__copy_trivialclB7v160006IjjLi0EEENS_4pairIPT_PT0_EES4_S4_S6_, symObjAddr: 0x811E4, symBinAddr: 0x10008BB6C, symSize: 0x25C }
  - { offsetInCU: 0x3F83A, offset: 0x49EDC, size: 0x8, addend: 0x0, symName: __ZNSt3__14pairIPjS1_EC1B7v160006IRS1_S1_LPv0EEEOT_OT0_, symObjAddr: 0x81E9C, symBinAddr: 0x10008C824, symSize: 0x88 }
  - { offsetInCU: 0x3F896, offset: 0x49F38, size: 0x8, addend: 0x0, symName: __ZNSt3__14pairIPjS1_EC2B7v160006IRS1_S1_LPv0EEEOT_OT0_, symObjAddr: 0x81F24, symBinAddr: 0x10008C8AC, symSize: 0x210 }
  - { offsetInCU: 0x3F8F2, offset: 0x49F94, size: 0x8, addend: 0x0, symName: __ZNSt3__118__unwrap_iter_implIPjLb1EE8__unwrapB7v160006ES1_, symObjAddr: 0x82134, symBinAddr: 0x10008CABC, symSize: 0x24 }
  - { offsetInCU: 0x3F915, offset: 0x49FB7, size: 0x8, addend: 0x0, symName: __ZNSt3__14pairIPjS1_EC1B7v160006IS1_S1_LPv0EEEOT_OT0_, symObjAddr: 0x8216C, symBinAddr: 0x10008CAF4, symSize: 0x88 }
  - { offsetInCU: 0x3F971, offset: 0x4A013, size: 0x8, addend: 0x0, symName: __ZNSt3__14pairIPjS1_EC2B7v160006IS1_S1_LPv0EEEOT_OT0_, symObjAddr: 0x821F4, symBinAddr: 0x10008CB7C, symSize: 0x210 }
  - { offsetInCU: 0x3F9CD, offset: 0x4A06F, size: 0x8, addend: 0x0, symName: __ZNSt3__118__unwrap_iter_implIPjLb1EE8__rewrapB7v160006ES1_S1_, symObjAddr: 0x82404, symBinAddr: 0x10008CD8C, symSize: 0x13C }
  - { offsetInCU: 0x3FA17, offset: 0x4A0B9, size: 0x8, addend: 0x0, symName: __ZNSt3__16vectorIjNS_9allocatorIjEEE21_ConstructTransactionC1B7v160006ERS3_m, symObjAddr: 0x82540, symBinAddr: 0x10008CEC8, symSize: 0x88 }
  - { offsetInCU: 0x3FA5D, offset: 0x4A0FF, size: 0x8, addend: 0x0, symName: __ZNSt3__16vectorIjNS_9allocatorIjEEE7__allocB7v160006Ev, symObjAddr: 0x82CB4, symBinAddr: 0x10008D63C, symSize: 0xE4 }
  - { offsetInCU: 0x3FA82, offset: 0x4A124, size: 0x8, addend: 0x0, symName: __ZNSt3__16vectorIjNS_9allocatorIjEEE21_ConstructTransactionD1B7v160006Ev, symObjAddr: 0x82D98, symBinAddr: 0x10008D720, symSize: 0x78 }
  - { offsetInCU: 0x3FAAA, offset: 0x4A14C, size: 0x8, addend: 0x0, symName: __ZNSt3__16vectorIjNS_9allocatorIjEEE21_ConstructTransactionC2B7v160006ERS3_m, symObjAddr: 0x82E10, symBinAddr: 0x10008D798, symSize: 0x3D8 }
  - { offsetInCU: 0x3FAF0, offset: 0x4A192, size: 0x8, addend: 0x0, symName: __ZNKSt3__16vectorIjNS_9allocatorIjEEE19__annotate_increaseB7v160006Em, symObjAddr: 0x831E8, symBinAddr: 0x10008DB70, symSize: 0x44C }
  - { offsetInCU: 0x3FB24, offset: 0x4A1C6, size: 0x8, addend: 0x0, symName: __ZNKSt3__16vectorIjNS_9allocatorIjEEE31__annotate_contiguous_containerEPKvS5_S5_S5_, symObjAddr: 0x83634, symBinAddr: 0x10008DFBC, symSize: 0x9C }
  - { offsetInCU: 0x3FB85, offset: 0x4A227, size: 0x8, addend: 0x0, symName: __ZNKSt3__16vectorIjNS_9allocatorIjEEE4dataB7v160006Ev, symObjAddr: 0x836D0, symBinAddr: 0x10008E058, symSize: 0xB0 }
  - { offsetInCU: 0x3FBAA, offset: 0x4A24C, size: 0x8, addend: 0x0, symName: __ZNSt3__129_AllocatorDestroyRangeReverseINS_9allocatorIjEEPjEC1B7v160006ERS2_RS3_S6_, symObjAddr: 0x839BC, symBinAddr: 0x10008E344, symSize: 0x90 }
  - { offsetInCU: 0x3FBFF, offset: 0x4A2A1, size: 0x8, addend: 0x0, symName: __ZNSt3__116allocator_traitsINS_9allocatorIjEEE9constructB7v160006IjJRjEvEEvRS2_PT_DpOT0_, symObjAddr: 0x83A4C, symBinAddr: 0x10008E3D4, symSize: 0x8C }
  - { offsetInCU: 0x3FC58, offset: 0x4A2FA, size: 0x8, addend: 0x0, symName: __ZNSt3__128__exception_guard_exceptionsINS_29_AllocatorDestroyRangeReverseINS_9allocatorIjEEPjEEE10__completeB7v160006Ev, symObjAddr: 0x83AD8, symBinAddr: 0x10008E460, symSize: 0xD8 }
  - { offsetInCU: 0x3FC7D, offset: 0x4A31F, size: 0x8, addend: 0x0, symName: __ZNSt3__128__exception_guard_exceptionsINS_29_AllocatorDestroyRangeReverseINS_9allocatorIjEEPjEEED1B7v160006Ev, symObjAddr: 0x83BB0, symBinAddr: 0x10008E538, symSize: 0x78 }
  - { offsetInCU: 0x3FCA5, offset: 0x4A347, size: 0x8, addend: 0x0, symName: __ZNSt3__128__exception_guard_exceptionsINS_29_AllocatorDestroyRangeReverseINS_9allocatorIjEEPjEEEC1B7v160006ES5_, symObjAddr: 0x83C28, symBinAddr: 0x10008E5B0, symSize: 0x84 }
  - { offsetInCU: 0x3FCDC, offset: 0x4A37E, size: 0x8, addend: 0x0, symName: __ZNSt3__128__exception_guard_exceptionsINS_29_AllocatorDestroyRangeReverseINS_9allocatorIjEEPjEEEC2B7v160006ES5_, symObjAddr: 0x83CAC, symBinAddr: 0x10008E634, symSize: 0xF8 }
  - { offsetInCU: 0x3FD13, offset: 0x4A3B5, size: 0x8, addend: 0x0, symName: __ZNSt3__129_AllocatorDestroyRangeReverseINS_9allocatorIjEEPjEC2B7v160006ERS2_RS3_S6_, symObjAddr: 0x83DA4, symBinAddr: 0x10008E72C, symSize: 0x20C }
  - { offsetInCU: 0x3FD68, offset: 0x4A40A, size: 0x8, addend: 0x0, symName: __ZNSt3__19allocatorIjE9constructB7v160006IjJRjEEEvPT_DpOT0_, symObjAddr: 0x83FB0, symBinAddr: 0x10008E938, symSize: 0x1B8 }
  - { offsetInCU: 0x3FDBE, offset: 0x4A460, size: 0x8, addend: 0x0, symName: __ZNSt3__128__exception_guard_exceptionsINS_29_AllocatorDestroyRangeReverseINS_9allocatorIjEEPjEEED2B7v160006Ev, symObjAddr: 0x84168, symBinAddr: 0x10008EAF0, symSize: 0x17C }
  - { offsetInCU: 0x3FDE6, offset: 0x4A488, size: 0x8, addend: 0x0, symName: __ZNKSt3__129_AllocatorDestroyRangeReverseINS_9allocatorIjEEPjEclB7v160006Ev, symObjAddr: 0x842E4, symBinAddr: 0x10008EC6C, symSize: 0x40C }
  - { offsetInCU: 0x3FE0C, offset: 0x4A4AE, size: 0x8, addend: 0x0, symName: __ZNSt3__116reverse_iteratorIPjEC1B7v160006ES1_, symObjAddr: 0x849CC, symBinAddr: 0x10008F354, symSize: 0x80 }
  - { offsetInCU: 0x3FE42, offset: 0x4A4E4, size: 0x8, addend: 0x0, symName: __ZNSt3__116allocator_traitsINS_9allocatorIjEEE7destroyB7v160006IjvEEvRS2_PT_, symObjAddr: 0x84AE8, symBinAddr: 0x10008F470, symSize: 0x2C }
  - { offsetInCU: 0x3FE80, offset: 0x4A522, size: 0x8, addend: 0x0, symName: __ZNSt3__116reverse_iteratorIPjEppB7v160006Ev, symObjAddr: 0x84B80, symBinAddr: 0x10008F508, symSize: 0x1B0 }
  - { offsetInCU: 0x3FEA5, offset: 0x4A547, size: 0x8, addend: 0x0, symName: __ZNKSt3__116reverse_iteratorIPjE4baseB7v160006Ev, symObjAddr: 0x84D30, symBinAddr: 0x10008F6B8, symSize: 0xB0 }
  - { offsetInCU: 0x3FECA, offset: 0x4A56C, size: 0x8, addend: 0x0, symName: __ZNSt3__19allocatorIjE7destroyB7v160006EPj, symObjAddr: 0x84DE0, symBinAddr: 0x10008F768, symSize: 0x4C }
  - { offsetInCU: 0x3FF02, offset: 0x4A5A4, size: 0x8, addend: 0x0, symName: __ZNSt3__119__to_address_helperINS_16reverse_iteratorIPjEEvE6__callB7v160006ERKS3_, symObjAddr: 0x84E2C, symBinAddr: 0x10008F7B4, symSize: 0x70 }
  - { offsetInCU: 0x3FF25, offset: 0x4A5C7, size: 0x8, addend: 0x0, symName: __ZNKSt3__116reverse_iteratorIPjEptB7v160006Ev, symObjAddr: 0x84E9C, symBinAddr: 0x10008F824, symSize: 0x6C }
  - { offsetInCU: 0x3FF4A, offset: 0x4A5EC, size: 0x8, addend: 0x0, symName: __ZNKSt3__116reverse_iteratorIPjEdeB7v160006Ev, symObjAddr: 0x84F08, symBinAddr: 0x10008F890, symSize: 0x184 }
  - { offsetInCU: 0x3FF7D, offset: 0x4A61F, size: 0x8, addend: 0x0, symName: __ZNSt3__116reverse_iteratorIPjEC2B7v160006ES1_, symObjAddr: 0x8508C, symBinAddr: 0x10008FA14, symSize: 0x10C }
  - { offsetInCU: 0x3FFB3, offset: 0x4A655, size: 0x8, addend: 0x0, symName: __ZNSt3__117__compressed_pairIPjNS_9allocatorIjEEE6secondB7v160006Ev, symObjAddr: 0x85198, symBinAddr: 0x10008FB20, symSize: 0x108 }
  - { offsetInCU: 0x3FFD8, offset: 0x4A67A, size: 0x8, addend: 0x0, symName: __ZNSt3__122__compressed_pair_elemINS_9allocatorIjEELi1ELb1EE5__getB7v160006Ev, symObjAddr: 0x852A0, symBinAddr: 0x10008FC28, symSize: 0x74 }
  - { offsetInCU: 0x3FFFD, offset: 0x4A69F, size: 0x8, addend: 0x0, symName: __ZNSt3__16vectorIjNS_9allocatorIjEEE21_ConstructTransactionD2B7v160006Ev, symObjAddr: 0x85314, symBinAddr: 0x10008FC9C, symSize: 0x390 }
  - { offsetInCU: 0x40025, offset: 0x4A6C7, size: 0x8, addend: 0x0, symName: __ZNKSt3__16vectorIjNS_9allocatorIjEEE17__annotate_shrinkB7v160006Em, symObjAddr: 0x856A4, symBinAddr: 0x10009002C, symSize: 0x360 }
  - { offsetInCU: 0x40059, offset: 0x4A6FB, size: 0x8, addend: 0x0, symName: __ZNSt3__16vectorIjNS_9allocatorIjEEE27__invalidate_iterators_pastB7v160006EPj, symObjAddr: 0x85A04, symBinAddr: 0x10009038C, symSize: 0x64 }
  - { offsetInCU: 0x4008F, offset: 0x4A731, size: 0x8, addend: 0x0, symName: __ZNSt3__16vectorIjNS_9allocatorIjEEE22__base_destruct_at_endB7v160006EPj, symObjAddr: 0x85A68, symBinAddr: 0x1000903F0, symSize: 0x1FC }
  - { offsetInCU: 0x400D2, offset: 0x4A774, size: 0x8, addend: 0x0, symName: __ZNSt3__16vectorIjNS_9allocatorIjEEE5clearB7v160006Ev, symObjAddr: 0x85C64, symBinAddr: 0x1000905EC, symSize: 0xA4 }
  - { offsetInCU: 0x40106, offset: 0x4A7A8, size: 0x8, addend: 0x0, symName: __ZNSt3__116allocator_traitsINS_9allocatorIjEEE10deallocateB7v160006ERS2_Pjm, symObjAddr: 0x85D08, symBinAddr: 0x100090690, symSize: 0x34 }
  - { offsetInCU: 0x40148, offset: 0x4A7EA, size: 0x8, addend: 0x0, symName: __ZNSt3__16vectorIjNS_9allocatorIjEEE9__end_capB7v160006Ev, symObjAddr: 0x85D3C, symBinAddr: 0x1000906C4, symSize: 0x100 }
  - { offsetInCU: 0x4016D, offset: 0x4A80F, size: 0x8, addend: 0x0, symName: __ZNSt3__16vectorIjNS_9allocatorIjEEE7__clearB7v160006Ev, symObjAddr: 0x85E3C, symBinAddr: 0x1000907C4, symSize: 0xB0 }
  - { offsetInCU: 0x40192, offset: 0x4A834, size: 0x8, addend: 0x0, symName: __ZNSt3__19allocatorIjE10deallocateB7v160006EPjm, symObjAddr: 0x85EEC, symBinAddr: 0x100090874, symSize: 0x78 }
  - { offsetInCU: 0x401D3, offset: 0x4A875, size: 0x8, addend: 0x0, symName: __ZNSt3__117__compressed_pairIPjNS_9allocatorIjEEE5firstB7v160006Ev, symObjAddr: 0x85F64, symBinAddr: 0x1000908EC, symSize: 0x124 }
  - { offsetInCU: 0x401F8, offset: 0x4A89A, size: 0x8, addend: 0x0, symName: __ZNSt3__122__compressed_pair_elemIPjLi0ELb0EE5__getB7v160006Ev, symObjAddr: 0x86088, symBinAddr: 0x100090A10, symSize: 0xAC }
  - { offsetInCU: 0x4021D, offset: 0x4A8BF, size: 0x8, addend: 0x0, symName: __ZNKSt3__16vectorIjNS_9allocatorIjEEE8max_sizeEv, symObjAddr: 0x86134, symBinAddr: 0x100090ABC, symSize: 0x3B8 }
  - { offsetInCU: 0x40245, offset: 0x4A8E7, size: 0x8, addend: 0x0, symName: __ZNKSt3__16vectorIjNS_9allocatorIjEEE20__throw_length_errorB7v160006Ev, symObjAddr: 0x864EC, symBinAddr: 0x100090E74, symSize: 0x80 }
  - { offsetInCU: 0x4026A, offset: 0x4A90C, size: 0x8, addend: 0x0, symName: __ZNKSt3__16vectorIjNS_9allocatorIjEEE14__annotate_newB7v160006Em, symObjAddr: 0x867F8, symBinAddr: 0x100091180, symSize: 0x360 }
  - { offsetInCU: 0x402A8, offset: 0x4A94A, size: 0x8, addend: 0x0, symName: __ZNSt3__116allocator_traitsINS_9allocatorIjEEE8max_sizeB7v160006IS2_vEEmRKS2_, symObjAddr: 0x86B58, symBinAddr: 0x1000914E0, symSize: 0x24 }
  - { offsetInCU: 0x402D7, offset: 0x4A979, size: 0x8, addend: 0x0, symName: __ZNKSt3__16vectorIjNS_9allocatorIjEEE7__allocB7v160006Ev, symObjAddr: 0x86B7C, symBinAddr: 0x100091504, symSize: 0xE4 }
  - { offsetInCU: 0x402FC, offset: 0x4A99E, size: 0x8, addend: 0x0, symName: __ZNKSt3__19allocatorIjE8max_sizeB7v160006Ev, symObjAddr: 0x86C60, symBinAddr: 0x1000915E8, symSize: 0x4C }
  - { offsetInCU: 0x40321, offset: 0x4A9C3, size: 0x8, addend: 0x0, symName: __ZNKSt3__117__compressed_pairIPjNS_9allocatorIjEEE6secondB7v160006Ev, symObjAddr: 0x86CAC, symBinAddr: 0x100091634, symSize: 0x108 }
  - { offsetInCU: 0x40346, offset: 0x4A9E8, size: 0x8, addend: 0x0, symName: __ZNKSt3__122__compressed_pair_elemINS_9allocatorIjEELi1ELb1EE5__getB7v160006Ev, symObjAddr: 0x86DB4, symBinAddr: 0x10009173C, symSize: 0x74 }
  - { offsetInCU: 0x4036B, offset: 0x4AA0D, size: 0x8, addend: 0x0, symName: __ZNSt3__19allocatorIjE8allocateB7v160006Em, symObjAddr: 0x86E28, symBinAddr: 0x1000917B0, symSize: 0xCC }
  - { offsetInCU: 0x4039E, offset: 0x4AA40, size: 0x8, addend: 0x0, symName: __ZNKSt3__122__unordered_map_hasherINS_7variantIJidbNS_12basic_stringIcNS_11char_traitsIcEENS_9allocatorIcEEEEEEENS_17__hash_value_typeIS8_NS_6vectorIjNS5_IjEEEEEENS_4hashIS8_EENS_8equal_toIS8_EELb1EEclB7v160006ERKSD_, symObjAddr: 0x86EF4, symBinAddr: 0x10009187C, symSize: 0x13C }
  - { offsetInCU: 0x403D2, offset: 0x4AA74, size: 0x8, addend: 0x0, symName: __ZNSt3__112__hash_tableINS_17__hash_value_typeINS_7variantIJidbNS_12basic_stringIcNS_11char_traitsIcEENS_9allocatorIcEEEEEEENS_6vectorIjNS6_IjEEEEEENS_22__unordered_map_hasherIS9_SD_NS_4hashIS9_EENS_8equal_toIS9_EELb1EEENS_21__unordered_map_equalIS9_SD_SI_SG_Lb1EEENS6_ISD_EEE27__node_insert_multi_prepareEmRSD_, symObjAddr: 0x87030, symBinAddr: 0x1000919B8, symSize: 0xEEC }
  - { offsetInCU: 0x40469, offset: 0x4AB0B, size: 0x8, addend: 0x0, symName: __ZNKSt3__116__hash_node_baseIPNS_11__hash_nodeINS_17__hash_value_typeINS_7variantIJidbNS_12basic_stringIcNS_11char_traitsIcEENS_9allocatorIcEEEEEEENS_6vectorIjNS7_IjEEEEEEPvEEE6__hashB7v160006Ev, symObjAddr: 0x87F1C, symBinAddr: 0x1000928A4, symSize: 0x180 }
  - { offsetInCU: 0x4048E, offset: 0x4AB30, size: 0x8, addend: 0x0, symName: __ZNSt3__112__hash_tableINS_17__hash_value_typeINS_7variantIJidbNS_12basic_stringIcNS_11char_traitsIcEENS_9allocatorIcEEEEEEENS_6vectorIjNS6_IjEEEEEENS_22__unordered_map_hasherIS9_SD_NS_4hashIS9_EENS_8equal_toIS9_EELb1EEENS_21__unordered_map_equalIS9_SD_SI_SG_Lb1EEENS6_ISD_EEE27__node_insert_multi_performEPNS_11__hash_nodeISD_PvEEPNS_16__hash_node_baseISR_EE, symObjAddr: 0x8809C, symBinAddr: 0x100092A24, symSize: 0x10A0 }
  - { offsetInCU: 0x4050F, offset: 0x4ABB1, size: 0x8, addend: 0x0, symName: __ZNSt3__116__hash_node_baseIPNS_11__hash_nodeINS_17__hash_value_typeINS_7variantIJidbNS_12basic_stringIcNS_11char_traitsIcEENS_9allocatorIcEEEEEEENS_6vectorIjNS7_IjEEEEEEPvEEE5__ptrB7v160006Ev, symObjAddr: 0x8913C, symBinAddr: 0x100093AC4, symSize: 0xB0 }
  - { offsetInCU: 0x40534, offset: 0x4ABD6, size: 0x8, addend: 0x0, symName: __ZNSt3__115__hash_iteratorIPNS_11__hash_nodeINS_17__hash_value_typeINS_7variantIJidbNS_12basic_stringIcNS_11char_traitsIcEENS_9allocatorIcEEEEEEENS_6vectorIjNS7_IjEEEEEEPvEEEC1B7v160006EPNS_16__hash_node_baseISH_EEPKv, symObjAddr: 0x891EC, symBinAddr: 0x100093B74, symSize: 0x88 }
  - { offsetInCU: 0x4057A, offset: 0x4AC1C, size: 0x8, addend: 0x0, symName: __ZNKSt3__14hashINS_7variantIJidbNS_12basic_stringIcNS_11char_traitsIcEENS_9allocatorIcEEEEEEEEclB7v160006ERKS8_, symObjAddr: 0x89274, symBinAddr: 0x100093BFC, symSize: 0x36C }
  - { offsetInCU: 0x40658, offset: 0x4ACFA, size: 0x8, addend: 0x0, symName: __ZNKSt3__17variantIJidbNS_12basic_stringIcNS_11char_traitsIcEENS_9allocatorIcEEEEEE22valueless_by_exceptionB7v160006Ev, symObjAddr: 0x895E0, symBinAddr: 0x100093F68, symSize: 0xE0 }
  - { offsetInCU: 0x40682, offset: 0x4AD24, size: 0x8, addend: 0x0, symName: __ZNSt3__116__variant_detail12__visitation9__variant11__visit_altB7v160006IZNKS_4hashINS_7variantIJidbNS_12basic_stringIcNS_11char_traitsIcEENS_9allocatorIcEEEEEEEEclB7v160006ERKSC_EUlRKT_E_JSF_EEEDcOSG_DpOT0_, symObjAddr: 0x896C0, symBinAddr: 0x100094048, symSize: 0x130 }
  - { offsetInCU: 0x406D4, offset: 0x4AD76, size: 0x8, addend: 0x0, symName: __ZNKSt3__14hashImEclB7v160006Em, symObjAddr: 0x89AF0, symBinAddr: 0x100094478, symSize: 0x50 }
  - { offsetInCU: 0x40708, offset: 0x4ADAA, size: 0x8, addend: 0x0, symName: __ZNKSt3__17variantIJidbNS_12basic_stringIcNS_11char_traitsIcEENS_9allocatorIcEEEEEE5indexB7v160006Ev, symObjAddr: 0x89B40, symBinAddr: 0x1000944C8, symSize: 0xDC }
  - { offsetInCU: 0x4072D, offset: 0x4ADCF, size: 0x8, addend: 0x0, symName: __ZNSt3__116__variant_detail12__visitation6__base11__visit_altB7v160006IZNKS_4hashINS_7variantIJidbNS_12basic_stringIcNS_11char_traitsIcEENS_9allocatorIcEEEEEEEEclB7v160006ERKSC_EUlRKT_E_JRKNS0_6__implIJidbSB_EEEEEEDcOSG_DpOT0_, symObjAddr: 0x89C1C, symBinAddr: 0x1000945A4, symSize: 0x40C }
  - { offsetInCU: 0x4078A, offset: 0x4AE2C, size: 0x8, addend: 0x0, symName: __ZNSt3__116__variant_detail12__visitation6__base12__dispatcherIJLm0EEE10__dispatchB7v160006IOZNKS_4hashINS_7variantIJidbNS_12basic_stringIcNS_11char_traitsIcEENS_9allocatorIcEEEEEEEEclB7v160006ERKSE_EUlRKT_E_JRKNS0_6__baseILNS0_6_TraitE1EJidbSD_EEEEEEDcSI_DpT0_, symObjAddr: 0x8A090, symBinAddr: 0x100094A18, symSize: 0xEC }
  - { offsetInCU: 0x407D2, offset: 0x4AE74, size: 0x8, addend: 0x0, symName: __ZNSt3__116__variant_detail12__visitation6__base12__dispatcherIJLm1EEE10__dispatchB7v160006IOZNKS_4hashINS_7variantIJidbNS_12basic_stringIcNS_11char_traitsIcEENS_9allocatorIcEEEEEEEEclB7v160006ERKSE_EUlRKT_E_JRKNS0_6__baseILNS0_6_TraitE1EJidbSD_EEEEEEDcSI_DpT0_, symObjAddr: 0x8A17C, symBinAddr: 0x100094B04, symSize: 0xEC }
  - { offsetInCU: 0x4081A, offset: 0x4AEBC, size: 0x8, addend: 0x0, symName: __ZNSt3__116__variant_detail12__visitation6__base12__dispatcherIJLm2EEE10__dispatchB7v160006IOZNKS_4hashINS_7variantIJidbNS_12basic_stringIcNS_11char_traitsIcEENS_9allocatorIcEEEEEEEEclB7v160006ERKSE_EUlRKT_E_JRKNS0_6__baseILNS0_6_TraitE1EJidbSD_EEEEEEDcSI_DpT0_, symObjAddr: 0x8A268, symBinAddr: 0x100094BF0, symSize: 0xD0 }
  - { offsetInCU: 0x40862, offset: 0x4AF04, size: 0x8, addend: 0x0, symName: __ZNSt3__116__variant_detail12__visitation6__base12__dispatcherIJLm3EEE10__dispatchB7v160006IOZNKS_4hashINS_7variantIJidbNS_12basic_stringIcNS_11char_traitsIcEENS_9allocatorIcEEEEEEEEclB7v160006ERKSE_EUlRKT_E_JRKNS0_6__baseILNS0_6_TraitE1EJidbSD_EEEEEEDcSI_DpT0_, symObjAddr: 0x8A338, symBinAddr: 0x100094CC0, symSize: 0xEC }
  - { offsetInCU: 0x408E4, offset: 0x4AF86, size: 0x8, addend: 0x0, symName: __ZNSt3__116__variant_detail12__visitation6__base4__atB7v160006IPFmOZNKS_4hashINS_7variantIJidbNS_12basic_stringIcNS_11char_traitsIcEENS_9allocatorIcEEEEEEEEclB7v160006ERKSC_EUlRKT_E_RKNS0_6__baseILNS0_6_TraitE1EJidbSB_EEEELm4EJEEEODaRKNS_8__farrayISG_XT0_EEEmDpT1_, symObjAddr: 0x8A424, symBinAddr: 0x100094DAC, symSize: 0x108 }
  - { offsetInCU: 0x4093A, offset: 0x4AFDC, size: 0x8, addend: 0x0, symName: __ZZNKSt3__14hashINS_7variantIJidbNS_12basic_stringIcNS_11char_traitsIcEENS_9allocatorIcEEEEEEEEclB7v160006ERKS8_ENKUlRKT_E_clINS_16__variant_detail5__altILm0EiEEEEDaSE_, symObjAddr: 0x8A5CC, symBinAddr: 0x100094F54, symSize: 0x270 }
  - { offsetInCU: 0x4097C, offset: 0x4B01E, size: 0x8, addend: 0x0, symName: __ZZNKSt3__14hashINS_7variantIJidbNS_12basic_stringIcNS_11char_traitsIcEENS_9allocatorIcEEEEEEEEclB7v160006ERKS8_ENKUlRKT_E_clINS_16__variant_detail5__altILm1EdEEEEDaSE_, symObjAddr: 0x8A92C, symBinAddr: 0x100095264, symSize: 0x248 }
  - { offsetInCU: 0x409BE, offset: 0x4B060, size: 0x8, addend: 0x0, symName: __ZZNKSt3__14hashINS_7variantIJidbNS_12basic_stringIcNS_11char_traitsIcEENS_9allocatorIcEEEEEEEEclB7v160006ERKS8_ENKUlRKT_E_clINS_16__variant_detail5__altILm2EbEEEEDaSE_, symObjAddr: 0x8AEC8, symBinAddr: 0x100095530, symSize: 0x270 }
  - { offsetInCU: 0x40A00, offset: 0x4B0A2, size: 0x8, addend: 0x0, symName: __ZZNKSt3__14hashINS_7variantIJidbNS_12basic_stringIcNS_11char_traitsIcEENS_9allocatorIcEEEEEEEEclB7v160006ERKS8_ENKUlRKT_E_clINS_16__variant_detail5__altILm3ES7_EEEEDaSE_, symObjAddr: 0x8B264, symBinAddr: 0x100095840, symSize: 0x22C }
  - { offsetInCU: 0x40A42, offset: 0x4B0E4, size: 0x8, addend: 0x0, symName: __ZNSt3__116__variant_detail12__visitation6__base4__atB7v160006IPFmOZNKS_4hashINS_7variantIJidbNS_12basic_stringIcNS_11char_traitsIcEENS_9allocatorIcEEEEEEEEclB7v160006ERKSC_EUlRKT_E_RKNS0_6__baseILNS0_6_TraitE1EJidbSB_EEEEEESI_SI_, symObjAddr: 0x8B490, symBinAddr: 0x100095A6C, symSize: 0x68 }
  - { offsetInCU: 0x40A6F, offset: 0x4B111, size: 0x8, addend: 0x0, symName: __ZNKSt3__18__farrayIPFmOZNKS_4hashINS_7variantIJidbNS_12basic_stringIcNS_11char_traitsIcEENS_9allocatorIcEEEEEEEEclB7v160006ERKS9_EUlRKT_E_RKNS_16__variant_detail6__baseILNSI_6_TraitE1EJidbS8_EEEELm4EEixB7v160006Em, symObjAddr: 0x8B4F8, symBinAddr: 0x100095AD4, symSize: 0x1B4 }
  - { offsetInCU: 0x40AAD, offset: 0x4B14F, size: 0x8, addend: 0x0, symName: __ZNKSt3__113__scalar_hashINS_6_PairTELm2EEclB7v160006ES1_, symObjAddr: 0x8B6AC, symBinAddr: 0x100095C88, symSize: 0x2E4 }
  - { offsetInCU: 0x40B3D, offset: 0x4B1DF, size: 0x8, addend: 0x0, symName: __ZNSt3__112__hash_tableINS_17__hash_value_typeINS_7variantIJidbNS_12basic_stringIcNS_11char_traitsIcEENS_9allocatorIcEEEEEEENS_6vectorIjNS6_IjEEEEEENS_22__unordered_map_hasherIS9_SD_NS_4hashIS9_EENS_8equal_toIS9_EELb1EEENS_21__unordered_map_equalIS9_SD_SI_SG_Lb1EEENS6_ISD_EEE14__rehash_multiB7v160006Em, symObjAddr: 0x8B990, symBinAddr: 0x100095F6C, symSize: 0x74 }
  - { offsetInCU: 0x40B71, offset: 0x4B213, size: 0x8, addend: 0x0, symName: __ZNKSt3__121__unordered_map_equalINS_7variantIJidbNS_12basic_stringIcNS_11char_traitsIcEENS_9allocatorIcEEEEEEENS_17__hash_value_typeIS8_NS_6vectorIjNS5_IjEEEEEENS_8equal_toIS8_EENS_4hashIS8_EELb1EEclB7v160006ERKSD_SK_, symObjAddr: 0x8BA04, symBinAddr: 0x100095FE0, symSize: 0x204 }
  - { offsetInCU: 0x40BB4, offset: 0x4B256, size: 0x8, addend: 0x0, symName: __ZNSt3__112__hash_tableINS_17__hash_value_typeINS_7variantIJidbNS_12basic_stringIcNS_11char_traitsIcEENS_9allocatorIcEEEEEEENS_6vectorIjNS6_IjEEEEEENS_22__unordered_map_hasherIS9_SD_NS_4hashIS9_EENS_8equal_toIS9_EELb1EEENS_21__unordered_map_equalIS9_SD_SI_SG_Lb1EEENS6_ISD_EEE8__rehashILb0EEEvm, symObjAddr: 0x8BC08, symBinAddr: 0x1000961E4, symSize: 0x9CC }
  - { offsetInCU: 0x40C09, offset: 0x4B2AB, size: 0x8, addend: 0x0, symName: __ZNSt3__112__hash_tableINS_17__hash_value_typeINS_7variantIJidbNS_12basic_stringIcNS_11char_traitsIcEENS_9allocatorIcEEEEEEENS_6vectorIjNS6_IjEEEEEENS_22__unordered_map_hasherIS9_SD_NS_4hashIS9_EENS_8equal_toIS9_EELb1EEENS_21__unordered_map_equalIS9_SD_SI_SG_Lb1EEENS6_ISD_EEE11__do_rehashILb0EEEvm, symObjAddr: 0x8C5D4, symBinAddr: 0x100096BB0, symSize: 0x1510 }
  - { offsetInCU: 0x40CF1, offset: 0x4B393, size: 0x8, addend: 0x0, symName: __ZNSt3__110unique_ptrIA_PNS_16__hash_node_baseIPNS_11__hash_nodeINS_17__hash_value_typeINS_7variantIJidbNS_12basic_stringIcNS_11char_traitsIcEENS_9allocatorIcEEEEEEENS_6vectorIjNS8_IjEEEEEEPvEEEENS_25__bucket_list_deallocatorINS8_ISK_EEEEE11get_deleterB7v160006Ev, symObjAddr: 0x8DAF4, symBinAddr: 0x1000980D0, symSize: 0xF8 }
  - { offsetInCU: 0x40D16, offset: 0x4B3B8, size: 0x8, addend: 0x0, symName: __ZNSt3__125__bucket_list_deallocatorINS_9allocatorIPNS_16__hash_node_baseIPNS_11__hash_nodeINS_17__hash_value_typeINS_7variantIJidbNS_12basic_stringIcNS_11char_traitsIcEENS1_IcEEEEEEENS_6vectorIjNS1_IjEEEEEEPvEEEEEEE7__allocB7v160006Ev, symObjAddr: 0x8DBEC, symBinAddr: 0x1000981C8, symSize: 0xDC }
  - { offsetInCU: 0x40D3B, offset: 0x4B3DD, size: 0x8, addend: 0x0, symName: __ZNSt3__110unique_ptrIA_PNS_16__hash_node_baseIPNS_11__hash_nodeINS_17__hash_value_typeINS_7variantIJidbNS_12basic_stringIcNS_11char_traitsIcEENS_9allocatorIcEEEEEEENS_6vectorIjNS8_IjEEEEEEPvEEEENS_25__bucket_list_deallocatorINS8_ISK_EEEEE5resetB7v160006IPSK_EENS_9enable_ifIXsr28_CheckArrayPointerConversionIT_EE5valueEvE4typeEST_, symObjAddr: 0x8DCC8, symBinAddr: 0x1000982A4, symSize: 0x2CC }
  - { offsetInCU: 0x40D87, offset: 0x4B429, size: 0x8, addend: 0x0, symName: __ZNSt3__116allocator_traitsINS_9allocatorIPNS_16__hash_node_baseIPNS_11__hash_nodeINS_17__hash_value_typeINS_7variantIJidbNS_12basic_stringIcNS_11char_traitsIcEENS1_IcEEEEEEENS_6vectorIjNS1_IjEEEEEEPvEEEEEEE8allocateB7v160006ERSL_m, symObjAddr: 0x8DF94, symBinAddr: 0x100098570, symSize: 0x2C }
  - { offsetInCU: 0x40DBA, offset: 0x4B45C, size: 0x8, addend: 0x0, symName: __ZNSt3__125__bucket_list_deallocatorINS_9allocatorIPNS_16__hash_node_baseIPNS_11__hash_nodeINS_17__hash_value_typeINS_7variantIJidbNS_12basic_stringIcNS_11char_traitsIcEENS1_IcEEEEEEENS_6vectorIjNS1_IjEEEEEEPvEEEEEEE4sizeB7v160006Ev, symObjAddr: 0x8DFC0, symBinAddr: 0x10009859C, symSize: 0xF8 }
  - { offsetInCU: 0x40DDF, offset: 0x4B481, size: 0x8, addend: 0x0, symName: __ZNSt3__117__compressed_pairIPPNS_16__hash_node_baseIPNS_11__hash_nodeINS_17__hash_value_typeINS_7variantIJidbNS_12basic_stringIcNS_11char_traitsIcEENS_9allocatorIcEEEEEEENS_6vectorIjNS8_IjEEEEEEPvEEEENS_25__bucket_list_deallocatorINS8_ISK_EEEEE6secondB7v160006Ev, symObjAddr: 0x8E0B8, symBinAddr: 0x100098694, symSize: 0x12C }
  - { offsetInCU: 0x40E04, offset: 0x4B4A6, size: 0x8, addend: 0x0, symName: __ZNSt3__122__compressed_pair_elemINS_25__bucket_list_deallocatorINS_9allocatorIPNS_16__hash_node_baseIPNS_11__hash_nodeINS_17__hash_value_typeINS_7variantIJidbNS_12basic_stringIcNS_11char_traitsIcEENS2_IcEEEEEEENS_6vectorIjNS2_IjEEEEEEPvEEEEEEEELi1ELb0EE5__getB7v160006Ev, symObjAddr: 0x8E1E4, symBinAddr: 0x1000987C0, symSize: 0xAC }
  - { offsetInCU: 0x40E29, offset: 0x4B4CB, size: 0x8, addend: 0x0, symName: __ZNSt3__117__compressed_pairImNS_9allocatorIPNS_16__hash_node_baseIPNS_11__hash_nodeINS_17__hash_value_typeINS_7variantIJidbNS_12basic_stringIcNS_11char_traitsIcEENS1_IcEEEEEEENS_6vectorIjNS1_IjEEEEEEPvEEEEEEE6secondB7v160006Ev, symObjAddr: 0x8E290, symBinAddr: 0x10009886C, symSize: 0x108 }
  - { offsetInCU: 0x40E4E, offset: 0x4B4F0, size: 0x8, addend: 0x0, symName: __ZNSt3__122__compressed_pair_elemINS_9allocatorIPNS_16__hash_node_baseIPNS_11__hash_nodeINS_17__hash_value_typeINS_7variantIJidbNS_12basic_stringIcNS_11char_traitsIcEENS1_IcEEEEEEENS_6vectorIjNS1_IjEEEEEEPvEEEEEELi1ELb1EE5__getB7v160006Ev, symObjAddr: 0x8E398, symBinAddr: 0x100098974, symSize: 0x74 }
  - { offsetInCU: 0x40E73, offset: 0x4B515, size: 0x8, addend: 0x0, symName: __ZNSt3__117__compressed_pairIPPNS_16__hash_node_baseIPNS_11__hash_nodeINS_17__hash_value_typeINS_7variantIJidbNS_12basic_stringIcNS_11char_traitsIcEENS_9allocatorIcEEEEEEENS_6vectorIjNS8_IjEEEEEEPvEEEENS_25__bucket_list_deallocatorINS8_ISK_EEEEE5firstB7v160006Ev, symObjAddr: 0x8E40C, symBinAddr: 0x1000989E8, symSize: 0x124 }
  - { offsetInCU: 0x40E98, offset: 0x4B53A, size: 0x8, addend: 0x0, symName: __ZNSt3__125__bucket_list_deallocatorINS_9allocatorIPNS_16__hash_node_baseIPNS_11__hash_nodeINS_17__hash_value_typeINS_7variantIJidbNS_12basic_stringIcNS_11char_traitsIcEENS1_IcEEEEEEENS_6vectorIjNS1_IjEEEEEEPvEEEEEEEclB7v160006EPSK_, symObjAddr: 0x8E530, symBinAddr: 0x100098B0C, symSize: 0x140 }
  - { offsetInCU: 0x40ECC, offset: 0x4B56E, size: 0x8, addend: 0x0, symName: __ZNSt3__122__compressed_pair_elemIPPNS_16__hash_node_baseIPNS_11__hash_nodeINS_17__hash_value_typeINS_7variantIJidbNS_12basic_stringIcNS_11char_traitsIcEENS_9allocatorIcEEEEEEENS_6vectorIjNS8_IjEEEEEEPvEEEELi0ELb0EE5__getB7v160006Ev, symObjAddr: 0x8E670, symBinAddr: 0x100098C4C, symSize: 0xAC }
  - { offsetInCU: 0x40EF1, offset: 0x4B593, size: 0x8, addend: 0x0, symName: __ZNSt3__116allocator_traitsINS_9allocatorIPNS_16__hash_node_baseIPNS_11__hash_nodeINS_17__hash_value_typeINS_7variantIJidbNS_12basic_stringIcNS_11char_traitsIcEENS1_IcEEEEEEENS_6vectorIjNS1_IjEEEEEEPvEEEEEEE10deallocateB7v160006ERSL_PSK_m, symObjAddr: 0x8E71C, symBinAddr: 0x100098CF8, symSize: 0x34 }
  - { offsetInCU: 0x40F33, offset: 0x4B5D5, size: 0x8, addend: 0x0, symName: __ZNSt3__19allocatorIPNS_16__hash_node_baseIPNS_11__hash_nodeINS_17__hash_value_typeINS_7variantIJidbNS_12basic_stringIcNS_11char_traitsIcEENS0_IcEEEEEEENS_6vectorIjNS0_IjEEEEEEPvEEEEE10deallocateB7v160006EPSJ_m, symObjAddr: 0x8E750, symBinAddr: 0x100098D2C, symSize: 0x78 }
  - { offsetInCU: 0x40F74, offset: 0x4B616, size: 0x8, addend: 0x0, symName: __ZNSt3__19allocatorIPNS_16__hash_node_baseIPNS_11__hash_nodeINS_17__hash_value_typeINS_7variantIJidbNS_12basic_stringIcNS_11char_traitsIcEENS0_IcEEEEEEENS_6vectorIjNS0_IjEEEEEEPvEEEEE8allocateB7v160006Em, symObjAddr: 0x8E7C8, symBinAddr: 0x100098DA4, symSize: 0xCC }
  - { offsetInCU: 0x40FB1, offset: 0x4B653, size: 0x8, addend: 0x0, symName: __ZNSt3__116allocator_traitsINS_9allocatorIPNS_16__hash_node_baseIPNS_11__hash_nodeINS_17__hash_value_typeINS_7variantIJidbNS_12basic_stringIcNS_11char_traitsIcEENS1_IcEEEEEEENS_6vectorIjNS1_IjEEEEEEPvEEEEEEE8max_sizeB7v160006ISL_vEEmRKSL_, symObjAddr: 0x8E894, symBinAddr: 0x100098E70, symSize: 0x24 }
  - { offsetInCU: 0x40FE0, offset: 0x4B682, size: 0x8, addend: 0x0, symName: __ZNKSt3__19allocatorIPNS_16__hash_node_baseIPNS_11__hash_nodeINS_17__hash_value_typeINS_7variantIJidbNS_12basic_stringIcNS_11char_traitsIcEENS0_IcEEEEEEENS_6vectorIjNS0_IjEEEEEEPvEEEEE8max_sizeB7v160006Ev, symObjAddr: 0x8E8B8, symBinAddr: 0x100098E94, symSize: 0x4C }
  - { offsetInCU: 0x41005, offset: 0x4B6A7, size: 0x8, addend: 0x0, symName: __ZNSt3__117__compressed_pairImNS_9allocatorIPNS_16__hash_node_baseIPNS_11__hash_nodeINS_17__hash_value_typeINS_7variantIJidbNS_12basic_stringIcNS_11char_traitsIcEENS1_IcEEEEEEENS_6vectorIjNS1_IjEEEEEEPvEEEEEEE5firstB7v160006Ev, symObjAddr: 0x8E904, symBinAddr: 0x100098EE0, symSize: 0x124 }
  - { offsetInCU: 0x4102A, offset: 0x4B6CC, size: 0x8, addend: 0x0, symName: __ZNKSt3__18equal_toINS_7variantIJidbNS_12basic_stringIcNS_11char_traitsIcEENS_9allocatorIcEEEEEEEEclB7v160006ERKS8_SB_, symObjAddr: 0x8EA28, symBinAddr: 0x100099004, symSize: 0xF0 }
  - { offsetInCU: 0x4106D, offset: 0x4B70F, size: 0x8, addend: 0x0, symName: __ZNSt3__116__variant_detail12__visitation9__variant16__visit_value_atB7v160006INS_17__convert_to_boolINS_8equal_toIvEEEEJRKNS_7variantIJidbNS_12basic_stringIcNS_11char_traitsIcEENS_9allocatorIcEEEEEEESH_EEEDcmOT_DpOT0_, symObjAddr: 0x8EECC, symBinAddr: 0x1000994A8, symSize: 0x300 }
  - { offsetInCU: 0x410E1, offset: 0x4B783, size: 0x8, addend: 0x0, symName: __ZNSt3__116__variant_detail12__visitation9__variant14__visit_alt_atB7v160006INS2_15__value_visitorINS_17__convert_to_boolINS_8equal_toIvEEEEEEJRKNS_7variantIJidbNS_12basic_stringIcNS_11char_traitsIcEENS_9allocatorIcEEEEEEESJ_EEEDcmOT_DpOT0_, symObjAddr: 0x8F1CC, symBinAddr: 0x1000997A8, symSize: 0x1A8 }
  - { offsetInCU: 0x4114C, offset: 0x4B7EE, size: 0x8, addend: 0x0, symName: __ZNSt3__116__variant_detail12__visitation9__variant20__make_value_visitorB7v160006INS_17__convert_to_boolINS_8equal_toIvEEEEEEDaOT_, symObjAddr: 0x8F374, symBinAddr: 0x100099950, symSize: 0x254 }
  - { offsetInCU: 0x4117A, offset: 0x4B81C, size: 0x8, addend: 0x0, symName: __ZNSt3__116__variant_detail12__visitation6__base14__visit_alt_atB7v160006INS1_9__variant15__value_visitorINS_17__convert_to_boolINS_8equal_toIvEEEEEEJRKNS0_6__implIJidbNS_12basic_stringIcNS_11char_traitsIcEENS_9allocatorIcEEEEEEESK_EEEDcmOT_DpOT0_, symObjAddr: 0x8F5C8, symBinAddr: 0x100099BA4, symSize: 0x47C }
  - { offsetInCU: 0x411FC, offset: 0x4B89E, size: 0x8, addend: 0x0, symName: __ZNSt3__116__variant_detail12__visitation6__base12__dispatcherIJLm0ELm0EEE10__dispatchB7v160006IONS1_9__variant15__value_visitorINS_17__convert_to_boolINS_8equal_toIvEEEEEEJRKNS0_6__baseILNS0_6_TraitE1EJidbNS_12basic_stringIcNS_11char_traitsIcEENS_9allocatorIcEEEEEEESO_EEEDcT_DpT0_, symObjAddr: 0x8FA44, symBinAddr: 0x10009A020, symSize: 0x1A8 }
  - { offsetInCU: 0x41258, offset: 0x4B8FA, size: 0x8, addend: 0x0, symName: __ZNSt3__116__variant_detail12__visitation6__base12__dispatcherIJLm1ELm1EEE10__dispatchB7v160006IONS1_9__variant15__value_visitorINS_17__convert_to_boolINS_8equal_toIvEEEEEEJRKNS0_6__baseILNS0_6_TraitE1EJidbNS_12basic_stringIcNS_11char_traitsIcEENS_9allocatorIcEEEEEEESO_EEEDcT_DpT0_, symObjAddr: 0x8FBEC, symBinAddr: 0x10009A1C8, symSize: 0x1A8 }
  - { offsetInCU: 0x412B4, offset: 0x4B956, size: 0x8, addend: 0x0, symName: __ZNSt3__116__variant_detail12__visitation6__base12__dispatcherIJLm2ELm2EEE10__dispatchB7v160006IONS1_9__variant15__value_visitorINS_17__convert_to_boolINS_8equal_toIvEEEEEEJRKNS0_6__baseILNS0_6_TraitE1EJidbNS_12basic_stringIcNS_11char_traitsIcEENS_9allocatorIcEEEEEEESO_EEEDcT_DpT0_, symObjAddr: 0x8FD94, symBinAddr: 0x10009A370, symSize: 0x170 }
  - { offsetInCU: 0x41310, offset: 0x4B9B2, size: 0x8, addend: 0x0, symName: __ZNSt3__116__variant_detail12__visitation6__base12__dispatcherIJLm3ELm3EEE10__dispatchB7v160006IONS1_9__variant15__value_visitorINS_17__convert_to_boolINS_8equal_toIvEEEEEEJRKNS0_6__baseILNS0_6_TraitE1EJidbNS_12basic_stringIcNS_11char_traitsIcEENS_9allocatorIcEEEEEEESO_EEEDcT_DpT0_, symObjAddr: 0x8FF04, symBinAddr: 0x10009A4E0, symSize: 0x1A8 }
  - { offsetInCU: 0x413A6, offset: 0x4BA48, size: 0x8, addend: 0x0, symName: __ZNKSt3__18__farrayIPFbONS_16__variant_detail12__visitation9__variant15__value_visitorINS_17__convert_to_boolINS_8equal_toIvEEEEEERKNS1_6__baseILNS1_6_TraitE1EJidbNS_12basic_stringIcNS_11char_traitsIcEENS_9allocatorIcEEEEEEESL_ELm4EEixB7v160006Em, symObjAddr: 0x900AC, symBinAddr: 0x10009A688, symSize: 0x1B4 }
  - { offsetInCU: 0x413E4, offset: 0x4BA86, size: 0x8, addend: 0x0, symName: __ZNKSt3__116__variant_detail12__visitation9__variant15__value_visitorINS_17__convert_to_boolINS_8equal_toIvEEEEEclB7v160006IJRKNS0_5__altILm0EiEESD_EEEDcDpOT_, symObjAddr: 0x90370, symBinAddr: 0x10009A94C, symSize: 0x20C }
  - { offsetInCU: 0x41438, offset: 0x4BADA, size: 0x8, addend: 0x0, symName: __ZNSt3__116__variant_detail12__visitation9__variant36__std_visit_exhaustive_visitor_checkINS_17__convert_to_boolINS_8equal_toIvEEEEJRKiS9_EEEvv, symObjAddr: 0x9057C, symBinAddr: 0x10009AB58, symSize: 0x4 }
  - { offsetInCU: 0x41471, offset: 0x4BB13, size: 0x8, addend: 0x0, symName: __ZNKSt3__117__convert_to_boolINS_8equal_toIvEEEclB7v160006IRKiS6_EEbOT_OT0_, symObjAddr: 0x90674, symBinAddr: 0x10009AC50, symSize: 0x2B0 }
  - { offsetInCU: 0x414D3, offset: 0x4BB75, size: 0x8, addend: 0x0, symName: __ZNKSt3__18equal_toIvEclB7v160006IRKiS4_EEDTeqclsr3stdE7forwardIT_Efp_Eclsr3stdE7forwardIT0_Efp0_EEOS5_OS6_, symObjAddr: 0x90924, symBinAddr: 0x10009AF00, symSize: 0x1C4 }
  - { offsetInCU: 0x41528, offset: 0x4BBCA, size: 0x8, addend: 0x0, symName: __ZNKSt3__116__variant_detail12__visitation9__variant15__value_visitorINS_17__convert_to_boolINS_8equal_toIvEEEEEclB7v160006IJRKNS0_5__altILm1EdEESD_EEEDcDpOT_, symObjAddr: 0x90BF8, symBinAddr: 0x10009B1D4, symSize: 0x20C }
  - { offsetInCU: 0x4157C, offset: 0x4BC1E, size: 0x8, addend: 0x0, symName: __ZNSt3__116__variant_detail12__visitation9__variant36__std_visit_exhaustive_visitor_checkINS_17__convert_to_boolINS_8equal_toIvEEEEJRKdS9_EEEvv, symObjAddr: 0x90E04, symBinAddr: 0x10009B3E0, symSize: 0x4 }
  - { offsetInCU: 0x415AB, offset: 0x4BC4D, size: 0x8, addend: 0x0, symName: __ZNKSt3__117__convert_to_boolINS_8equal_toIvEEEclB7v160006IRKdS6_EEbOT_OT0_, symObjAddr: 0x90EFC, symBinAddr: 0x10009B4D8, symSize: 0x2B0 }
  - { offsetInCU: 0x41603, offset: 0x4BCA5, size: 0x8, addend: 0x0, symName: __ZNKSt3__18equal_toIvEclB7v160006IRKdS4_EEDTeqclsr3stdE7forwardIT_Efp_Eclsr3stdE7forwardIT0_Efp0_EEOS5_OS6_, symObjAddr: 0x911AC, symBinAddr: 0x10009B788, symSize: 0x174 }
  - { offsetInCU: 0x41658, offset: 0x4BCFA, size: 0x8, addend: 0x0, symName: __ZNKSt3__116__variant_detail12__visitation9__variant15__value_visitorINS_17__convert_to_boolINS_8equal_toIvEEEEEclB7v160006IJRKNS0_5__altILm2EbEESD_EEEDcDpOT_, symObjAddr: 0x913F8, symBinAddr: 0x10009B9D4, symSize: 0x19C }
  - { offsetInCU: 0x416AC, offset: 0x4BD4E, size: 0x8, addend: 0x0, symName: __ZNSt3__116__variant_detail12__visitation9__variant36__std_visit_exhaustive_visitor_checkINS_17__convert_to_boolINS_8equal_toIvEEEEJRKbS9_EEEvv, symObjAddr: 0x91594, symBinAddr: 0x10009BB70, symSize: 0x4 }
  - { offsetInCU: 0x416DB, offset: 0x4BD7D, size: 0x8, addend: 0x0, symName: __ZNKSt3__117__convert_to_boolINS_8equal_toIvEEEclB7v160006IRKbS6_EEbOT_OT0_, symObjAddr: 0x91654, symBinAddr: 0x10009BC30, symSize: 0x278 }
  - { offsetInCU: 0x41733, offset: 0x4BDD5, size: 0x8, addend: 0x0, symName: __ZNKSt3__18equal_toIvEclB7v160006IRKbS4_EEDTeqclsr3stdE7forwardIT_Efp_Eclsr3stdE7forwardIT0_Efp0_EEOS5_OS6_, symObjAddr: 0x918CC, symBinAddr: 0x10009BEA8, symSize: 0x1EC }
  - { offsetInCU: 0x41788, offset: 0x4BE2A, size: 0x8, addend: 0x0, symName: __ZNKSt3__116__variant_detail12__visitation9__variant15__value_visitorINS_17__convert_to_boolINS_8equal_toIvEEEEEclB7v160006IJRKNS0_5__altILm3ENS_12basic_stringIcNS_11char_traitsIcEENS_9allocatorIcEEEEEESJ_EEEDcDpOT_, symObjAddr: 0x91BC8, symBinAddr: 0x10009C1A4, symSize: 0x20C }
  - { offsetInCU: 0x417DC, offset: 0x4BE7E, size: 0x8, addend: 0x0, symName: __ZNSt3__116__variant_detail12__visitation9__variant36__std_visit_exhaustive_visitor_checkINS_17__convert_to_boolINS_8equal_toIvEEEEJRKNS_12basic_stringIcNS_11char_traitsIcEENS_9allocatorIcEEEESF_EEEvv, symObjAddr: 0x91DD4, symBinAddr: 0x10009C3B0, symSize: 0x4 }
  - { offsetInCU: 0x4180B, offset: 0x4BEAD, size: 0x8, addend: 0x0, symName: __ZNKSt3__117__convert_to_boolINS_8equal_toIvEEEclB7v160006IRKNS_12basic_stringIcNS_11char_traitsIcEENS_9allocatorIcEEEESC_EEbOT_OT0_, symObjAddr: 0x91ECC, symBinAddr: 0x10009C4A8, symSize: 0x2B0 }
  - { offsetInCU: 0x41863, offset: 0x4BF05, size: 0x8, addend: 0x0, symName: __ZNKSt3__18equal_toIvEclB7v160006IRKNS_12basic_stringIcNS_11char_traitsIcEENS_9allocatorIcEEEESA_EEDTeqclsr3stdE7forwardIT_Efp_Eclsr3stdE7forwardIT0_Efp0_EEOSB_OSC_, symObjAddr: 0x9217C, symBinAddr: 0x10009C758, symSize: 0xF0 }
  - { offsetInCU: 0x418B8, offset: 0x4BF5A, size: 0x8, addend: 0x0, symName: __ZNSt3__115__hash_iteratorIPNS_11__hash_nodeINS_17__hash_value_typeINS_7variantIJidbNS_12basic_stringIcNS_11char_traitsIcEENS_9allocatorIcEEEEEEENS_6vectorIjNS7_IjEEEEEEPvEEEC2B7v160006EPNS_16__hash_node_baseISH_EEPKv, symObjAddr: 0x9226C, symBinAddr: 0x10009C848, symSize: 0xCC }
  - { offsetInCU: 0x418FE, offset: 0x4BFA0, size: 0x8, addend: 0x0, symName: __ZNSt3__112__hash_tableINS_17__hash_value_typeINS_7variantIJidbNS_12basic_stringIcNS_11char_traitsIcEENS_9allocatorIcEEEEEEENS_6vectorIjNS6_IjEEEEEENS_22__unordered_map_hasherIS9_SD_NS_4hashIS9_EENS_8equal_toIS9_EELb1EEENS_21__unordered_map_equalIS9_SD_SI_SG_Lb1EEENS6_ISD_EEE12__node_allocB7v160006Ev, symObjAddr: 0x92338, symBinAddr: 0x10009C914, symSize: 0xE4 }
  - { offsetInCU: 0x41923, offset: 0x4BFC5, size: 0x8, addend: 0x0, symName: __ZNSt3__116allocator_traitsINS_9allocatorINS_11__hash_nodeINS_17__hash_value_typeINS_7variantIJidbNS_12basic_stringIcNS_11char_traitsIcEENS1_IcEEEEEEENS_6vectorIjNS1_IjEEEEEEPvEEEEE7destroyB7v160006INS_4pairIKSA_SD_EEvvEEvRSH_PT_, symObjAddr: 0x9241C, symBinAddr: 0x10009C9F8, symSize: 0x70 }
  - { offsetInCU: 0x41960, offset: 0x4C002, size: 0x8, addend: 0x0, symName: __ZNSt3__122__hash_key_value_typesINS_17__hash_value_typeINS_7variantIJidbNS_12basic_stringIcNS_11char_traitsIcEENS_9allocatorIcEEEEEEENS_6vectorIjNS6_IjEEEEEEE9__get_ptrB7v160006ERSD_, symObjAddr: 0x9248C, symBinAddr: 0x10009CA68, symSize: 0x50 }
  - { offsetInCU: 0x41983, offset: 0x4C025, size: 0x8, addend: 0x0, symName: __ZNSt3__116allocator_traitsINS_9allocatorINS_11__hash_nodeINS_17__hash_value_typeINS_7variantIJidbNS_12basic_stringIcNS_11char_traitsIcEENS1_IcEEEEEEENS_6vectorIjNS1_IjEEEEEEPvEEEEE10deallocateB7v160006ERSH_PSG_m, symObjAddr: 0x924DC, symBinAddr: 0x10009CAB8, symSize: 0x34 }
  - { offsetInCU: 0x419C5, offset: 0x4C067, size: 0x8, addend: 0x0, symName: __ZNSt3__117__compressed_pairINS_16__hash_node_baseIPNS_11__hash_nodeINS_17__hash_value_typeINS_7variantIJidbNS_12basic_stringIcNS_11char_traitsIcEENS_9allocatorIcEEEEEEENS_6vectorIjNS8_IjEEEEEEPvEEEENS8_ISH_EEE6secondB7v160006Ev, symObjAddr: 0x92510, symBinAddr: 0x10009CAEC, symSize: 0x108 }
  - { offsetInCU: 0x419EA, offset: 0x4C08C, size: 0x8, addend: 0x0, symName: __ZNSt3__122__compressed_pair_elemINS_9allocatorINS_11__hash_nodeINS_17__hash_value_typeINS_7variantIJidbNS_12basic_stringIcNS_11char_traitsIcEENS1_IcEEEEEEENS_6vectorIjNS1_IjEEEEEEPvEEEELi1ELb1EE5__getB7v160006Ev, symObjAddr: 0x92618, symBinAddr: 0x10009CBF4, symSize: 0x74 }
  - { offsetInCU: 0x41A0F, offset: 0x4C0B1, size: 0x8, addend: 0x0, symName: __ZNSt3__14pairIKNS_7variantIJidbNS_12basic_stringIcNS_11char_traitsIcEENS_9allocatorIcEEEEEEENS_6vectorIjNS5_IjEEEEED1Ev, symObjAddr: 0x9268C, symBinAddr: 0x10009CC68, symSize: 0x78 }
  - { offsetInCU: 0x41A3A, offset: 0x4C0DC, size: 0x8, addend: 0x0, symName: __ZNSt3__14pairIKNS_7variantIJidbNS_12basic_stringIcNS_11char_traitsIcEENS_9allocatorIcEEEEEEENS_6vectorIjNS5_IjEEEEED2Ev, symObjAddr: 0x92704, symBinAddr: 0x10009CCE0, symSize: 0x84 }
  - { offsetInCU: 0x41A65, offset: 0x4C107, size: 0x8, addend: 0x0, symName: __ZNSt3__16vectorIjNS_9allocatorIjEEED1B7v160006Ev, symObjAddr: 0x92788, symBinAddr: 0x10009CD64, symSize: 0x78 }
  - { offsetInCU: 0x41A8D, offset: 0x4C12F, size: 0x8, addend: 0x0, symName: __ZNSt3__16vectorIjNS_9allocatorIjEEED2B7v160006Ev, symObjAddr: 0x92800, symBinAddr: 0x10009CDDC, symSize: 0x298 }
  - { offsetInCU: 0x41AB6, offset: 0x4C158, size: 0x8, addend: 0x0, symName: __ZNSt3__16vectorIjNS_9allocatorIjEEE16__destroy_vectorC1ERS3_, symObjAddr: 0x92A98, symBinAddr: 0x10009D074, symSize: 0x80 }
  - { offsetInCU: 0x41AED, offset: 0x4C18F, size: 0x8, addend: 0x0, symName: __ZNSt3__16vectorIjNS_9allocatorIjEEE16__destroy_vectorclB7v160006Ev, symObjAddr: 0x92B18, symBinAddr: 0x10009D0F4, symSize: 0x478 }
  - { offsetInCU: 0x41B12, offset: 0x4C1B4, size: 0x8, addend: 0x0, symName: __ZNSt3__16vectorIjNS_9allocatorIjEEE16__destroy_vectorC2ERS3_, symObjAddr: 0x92F90, symBinAddr: 0x10009D56C, symSize: 0x108 }
  - { offsetInCU: 0x41B49, offset: 0x4C1EB, size: 0x8, addend: 0x0, symName: __ZNKSt3__16vectorIjNS_9allocatorIjEEE17__annotate_deleteB7v160006Ev, symObjAddr: 0x93098, symBinAddr: 0x10009D674, symSize: 0x370 }
  - { offsetInCU: 0x41B6E, offset: 0x4C210, size: 0x8, addend: 0x0, symName: __ZNSt3__19allocatorINS_11__hash_nodeINS_17__hash_value_typeINS_7variantIJidbNS_12basic_stringIcNS_11char_traitsIcEENS0_IcEEEEEEENS_6vectorIjNS0_IjEEEEEEPvEEE10deallocateB7v160006EPSF_m, symObjAddr: 0x93418, symBinAddr: 0x10009D9F4, symSize: 0x7C }
  - { offsetInCU: 0x41BAF, offset: 0x4C251, size: 0x8, addend: 0x0, symName: __ZNSt3__112__hash_tableINS_17__hash_value_typeINS_7variantIJidbNS_12basic_stringIcNS_11char_traitsIcEENS_9allocatorIcEEEEEEENS_6vectorIjNS6_IjEEEEEENS_22__unordered_map_hasherIS9_SD_NS_4hashIS9_EENS_8equal_toIS9_EELb1EEENS_21__unordered_map_equalIS9_SD_SI_SG_Lb1EEENS6_ISD_EEE15__emplace_multiIJRKNS_4pairIKS9_SC_EEEEENS_15__hash_iteratorIPNS_11__hash_nodeISD_PvEEEEDpOT_, symObjAddr: 0x93494, symBinAddr: 0x10009DA70, symSize: 0x410 }
  - { offsetInCU: 0x41C19, offset: 0x4C2BB, size: 0x8, addend: 0x0, symName: __ZNSt3__112__hash_tableINS_17__hash_value_typeINS_7variantIJidbNS_12basic_stringIcNS_11char_traitsIcEENS_9allocatorIcEEEEEEENS_6vectorIjNS6_IjEEEEEENS_22__unordered_map_hasherIS9_SD_NS_4hashIS9_EENS_8equal_toIS9_EELb1EEENS_21__unordered_map_equalIS9_SD_SI_SG_Lb1EEENS6_ISD_EEE16__construct_nodeIJRKNS_4pairIKS9_SC_EEEEENS_10unique_ptrINS_11__hash_nodeISD_PvEENS_22__hash_node_destructorINS6_ISX_EEEEEEDpOT_, symObjAddr: 0x938A4, symBinAddr: 0x10009DE80, symSize: 0x9F0 }
  - { offsetInCU: 0x41C7E, offset: 0x4C320, size: 0x8, addend: 0x0, symName: __ZNKSt3__110unique_ptrINS_11__hash_nodeINS_17__hash_value_typeINS_7variantIJidbNS_12basic_stringIcNS_11char_traitsIcEENS_9allocatorIcEEEEEEENS_6vectorIjNS7_IjEEEEEEPvEENS_22__hash_node_destructorINS7_ISG_EEEEE3getB7v160006Ev, symObjAddr: 0x94294, symBinAddr: 0x10009E870, symSize: 0x13C }
  - { offsetInCU: 0x41CA3, offset: 0x4C345, size: 0x8, addend: 0x0, symName: __ZNSt3__110unique_ptrINS_11__hash_nodeINS_17__hash_value_typeINS_7variantIJidbNS_12basic_stringIcNS_11char_traitsIcEENS_9allocatorIcEEEEEEENS_6vectorIjNS7_IjEEEEEEPvEENS_22__hash_node_destructorINS7_ISG_EEEEE7releaseB7v160006Ev, symObjAddr: 0x943D0, symBinAddr: 0x10009E9AC, symSize: 0x20C }
  - { offsetInCU: 0x41CD7, offset: 0x4C379, size: 0x8, addend: 0x0, symName: __ZNSt3__110unique_ptrINS_11__hash_nodeINS_17__hash_value_typeINS_7variantIJidbNS_12basic_stringIcNS_11char_traitsIcEENS_9allocatorIcEEEEEEENS_6vectorIjNS7_IjEEEEEEPvEENS_22__hash_node_destructorINS7_ISG_EEEEED1B7v160006Ev, symObjAddr: 0x945DC, symBinAddr: 0x10009EBB8, symSize: 0x78 }
  - { offsetInCU: 0x41CFF, offset: 0x4C3A1, size: 0x8, addend: 0x0, symName: __ZNSt3__116allocator_traitsINS_9allocatorINS_11__hash_nodeINS_17__hash_value_typeINS_7variantIJidbNS_12basic_stringIcNS_11char_traitsIcEENS1_IcEEEEEEENS_6vectorIjNS1_IjEEEEEEPvEEEEE8allocateB7v160006ERSH_m, symObjAddr: 0x94654, symBinAddr: 0x10009EC30, symSize: 0x2C }
  - { offsetInCU: 0x41D32, offset: 0x4C3D4, size: 0x8, addend: 0x0, symName: __ZNSt3__122__hash_node_destructorINS_9allocatorINS_11__hash_nodeINS_17__hash_value_typeINS_7variantIJidbNS_12basic_stringIcNS_11char_traitsIcEENS1_IcEEEEEEENS_6vectorIjNS1_IjEEEEEEPvEEEEEC1B7v160006ERSH_b, symObjAddr: 0x94680, symBinAddr: 0x10009EC5C, symSize: 0xCC }
  - { offsetInCU: 0x41D7D, offset: 0x4C41F, size: 0x8, addend: 0x0, symName: __ZNSt3__110unique_ptrINS_11__hash_nodeINS_17__hash_value_typeINS_7variantIJidbNS_12basic_stringIcNS_11char_traitsIcEENS_9allocatorIcEEEEEEENS_6vectorIjNS7_IjEEEEEEPvEENS_22__hash_node_destructorINS7_ISG_EEEEEC1B7v160006ILb1EvEEPSG_NS_16__dependent_typeINS_27__unique_ptr_deleter_sfinaeISJ_EEXT_EE20__good_rval_ref_typeE, symObjAddr: 0x9474C, symBinAddr: 0x10009ED28, symSize: 0x88 }
  - { offsetInCU: 0x41DCD, offset: 0x4C46F, size: 0x8, addend: 0x0, symName: __ZNSt3__116allocator_traitsINS_9allocatorINS_11__hash_nodeINS_17__hash_value_typeINS_7variantIJidbNS_12basic_stringIcNS_11char_traitsIcEENS1_IcEEEEEEENS_6vectorIjNS1_IjEEEEEEPvEEEEE9constructB7v160006INS_4pairIKSA_SD_EEJRKSM_EvEEvRSH_PT_DpOT0_, symObjAddr: 0x947D4, symBinAddr: 0x10009EDB0, symSize: 0x8C }
  - { offsetInCU: 0x41E26, offset: 0x4C4C8, size: 0x8, addend: 0x0, symName: __ZNKSt3__110unique_ptrINS_11__hash_nodeINS_17__hash_value_typeINS_7variantIJidbNS_12basic_stringIcNS_11char_traitsIcEENS_9allocatorIcEEEEEEENS_6vectorIjNS7_IjEEEEEEPvEENS_22__hash_node_destructorINS7_ISG_EEEEEptB7v160006Ev, symObjAddr: 0x94860, symBinAddr: 0x10009EE3C, symSize: 0x13C }
  - { offsetInCU: 0x41E4B, offset: 0x4C4ED, size: 0x8, addend: 0x0, symName: __ZNSt3__110unique_ptrINS_11__hash_nodeINS_17__hash_value_typeINS_7variantIJidbNS_12basic_stringIcNS_11char_traitsIcEENS_9allocatorIcEEEEEEENS_6vectorIjNS7_IjEEEEEEPvEENS_22__hash_node_destructorINS7_ISG_EEEEE11get_deleterB7v160006Ev, symObjAddr: 0x9499C, symBinAddr: 0x10009EF78, symSize: 0xF8 }
  - { offsetInCU: 0x41E70, offset: 0x4C512, size: 0x8, addend: 0x0, symName: __ZNSt3__19allocatorINS_11__hash_nodeINS_17__hash_value_typeINS_7variantIJidbNS_12basic_stringIcNS_11char_traitsIcEENS0_IcEEEEEEENS_6vectorIjNS0_IjEEEEEEPvEEE8allocateB7v160006Em, symObjAddr: 0x94A94, symBinAddr: 0x10009F070, symSize: 0xD0 }
  - { offsetInCU: 0x41EAD, offset: 0x4C54F, size: 0x8, addend: 0x0, symName: __ZNSt3__116allocator_traitsINS_9allocatorINS_11__hash_nodeINS_17__hash_value_typeINS_7variantIJidbNS_12basic_stringIcNS_11char_traitsIcEENS1_IcEEEEEEENS_6vectorIjNS1_IjEEEEEEPvEEEEE8max_sizeB7v160006ISH_vEEmRKSH_, symObjAddr: 0x94B64, symBinAddr: 0x10009F140, symSize: 0x24 }
  - { offsetInCU: 0x41EDC, offset: 0x4C57E, size: 0x8, addend: 0x0, symName: __ZNKSt3__19allocatorINS_11__hash_nodeINS_17__hash_value_typeINS_7variantIJidbNS_12basic_stringIcNS_11char_traitsIcEENS0_IcEEEEEEENS_6vectorIjNS0_IjEEEEEEPvEEE8max_sizeB7v160006Ev, symObjAddr: 0x94B88, symBinAddr: 0x10009F164, symSize: 0x58 }
  - { offsetInCU: 0x41F01, offset: 0x4C5A3, size: 0x8, addend: 0x0, symName: __ZNSt3__122__hash_node_destructorINS_9allocatorINS_11__hash_nodeINS_17__hash_value_typeINS_7variantIJidbNS_12basic_stringIcNS_11char_traitsIcEENS1_IcEEEEEEENS_6vectorIjNS1_IjEEEEEEPvEEEEEC2B7v160006ERSH_b, symObjAddr: 0x94BE0, symBinAddr: 0x10009F1BC, symSize: 0x1A0 }
  - { offsetInCU: 0x41F47, offset: 0x4C5E9, size: 0x8, addend: 0x0, symName: __ZNSt3__110unique_ptrINS_11__hash_nodeINS_17__hash_value_typeINS_7variantIJidbNS_12basic_stringIcNS_11char_traitsIcEENS_9allocatorIcEEEEEEENS_6vectorIjNS7_IjEEEEEEPvEENS_22__hash_node_destructorINS7_ISG_EEEEEC2B7v160006ILb1EvEEPSG_NS_16__dependent_typeINS_27__unique_ptr_deleter_sfinaeISJ_EEXT_EE20__good_rval_ref_typeE, symObjAddr: 0x94D80, symBinAddr: 0x10009F35C, symSize: 0x2BC }
  - { offsetInCU: 0x41F9D, offset: 0x4C63F, size: 0x8, addend: 0x0, symName: __ZNSt3__117__compressed_pairIPNS_11__hash_nodeINS_17__hash_value_typeINS_7variantIJidbNS_12basic_stringIcNS_11char_traitsIcEENS_9allocatorIcEEEEEEENS_6vectorIjNS7_IjEEEEEEPvEENS_22__hash_node_destructorINS7_ISG_EEEEEC1B7v160006IRSH_SK_EEOT_OT0_, symObjAddr: 0x9503C, symBinAddr: 0x10009F618, symSize: 0x88 }
  - { offsetInCU: 0x41FF3, offset: 0x4C695, size: 0x8, addend: 0x0, symName: __ZNSt3__117__compressed_pairIPNS_11__hash_nodeINS_17__hash_value_typeINS_7variantIJidbNS_12basic_stringIcNS_11char_traitsIcEENS_9allocatorIcEEEEEEENS_6vectorIjNS7_IjEEEEEEPvEENS_22__hash_node_destructorINS7_ISG_EEEEEC2B7v160006IRSH_SK_EEOT_OT0_, symObjAddr: 0x950C4, symBinAddr: 0x10009F6A0, symSize: 0x1B4 }
  - { offsetInCU: 0x42049, offset: 0x4C6EB, size: 0x8, addend: 0x0, symName: __ZNSt3__122__compressed_pair_elemIPNS_11__hash_nodeINS_17__hash_value_typeINS_7variantIJidbNS_12basic_stringIcNS_11char_traitsIcEENS_9allocatorIcEEEEEEENS_6vectorIjNS7_IjEEEEEEPvEELi0ELb0EEC2B7v160006IRSH_vEEOT_, symObjAddr: 0x95278, symBinAddr: 0x10009F854, symSize: 0x144 }
  - { offsetInCU: 0x4208A, offset: 0x4C72C, size: 0x8, addend: 0x0, symName: __ZNSt3__122__compressed_pair_elemINS_22__hash_node_destructorINS_9allocatorINS_11__hash_nodeINS_17__hash_value_typeINS_7variantIJidbNS_12basic_stringIcNS_11char_traitsIcEENS2_IcEEEEEEENS_6vectorIjNS2_IjEEEEEEPvEEEEEELi1ELb0EEC2B7v160006ISJ_vEEOT_, symObjAddr: 0x953BC, symBinAddr: 0x10009F998, symSize: 0x84 }
  - { offsetInCU: 0x420CB, offset: 0x4C76D, size: 0x8, addend: 0x0, symName: __ZNSt3__19allocatorINS_11__hash_nodeINS_17__hash_value_typeINS_7variantIJidbNS_12basic_stringIcNS_11char_traitsIcEENS0_IcEEEEEEENS_6vectorIjNS0_IjEEEEEEPvEEE9constructB7v160006INS_4pairIKS9_SC_EEJRKSK_EEEvPT_DpOT0_, symObjAddr: 0x95440, symBinAddr: 0x10009FA1C, symSize: 0xEC }
  - { offsetInCU: 0x42121, offset: 0x4C7C3, size: 0x8, addend: 0x0, symName: __ZNSt3__14pairIKNS_7variantIJidbNS_12basic_stringIcNS_11char_traitsIcEENS_9allocatorIcEEEEEEENS_6vectorIjNS5_IjEEEEEC1ERKSD_, symObjAddr: 0x9552C, symBinAddr: 0x10009FB08, symSize: 0x80 }
  - { offsetInCU: 0x42154, offset: 0x4C7F6, size: 0x8, addend: 0x0, symName: __ZNSt3__14pairIKNS_7variantIJidbNS_12basic_stringIcNS_11char_traitsIcEENS_9allocatorIcEEEEEEENS_6vectorIjNS5_IjEEEEEC2ERKSD_, symObjAddr: 0x955AC, symBinAddr: 0x10009FB88, symSize: 0x154 }
  - { offsetInCU: 0x42187, offset: 0x4C829, size: 0x8, addend: 0x0, symName: __ZNSt3__16vectorIjNS_9allocatorIjEEEC1ERKS3_, symObjAddr: 0x95700, symBinAddr: 0x10009FCDC, symSize: 0x80 }
  - { offsetInCU: 0x421C1, offset: 0x4C863, size: 0x8, addend: 0x0, symName: __ZNSt3__16vectorIjNS_9allocatorIjEEEC2ERKS3_, symObjAddr: 0x95780, symBinAddr: 0x10009FD5C, symSize: 0x6B8 }
  - { offsetInCU: 0x42226, offset: 0x4C8C8, size: 0x8, addend: 0x0, symName: __ZNSt3__116allocator_traitsINS_9allocatorIjEEE37select_on_container_copy_constructionB7v160006IS2_vvEES2_RKS2_, symObjAddr: 0x95E38, symBinAddr: 0x1000A0414, symSize: 0x10 }
  - { offsetInCU: 0x4225C, offset: 0x4C8FE, size: 0x8, addend: 0x0, symName: __ZNSt3__117__compressed_pairIPjNS_9allocatorIjEEEC1B7v160006IDnS3_EEOT_OT0_, symObjAddr: 0x95E48, symBinAddr: 0x1000A0424, symSize: 0x88 }
  - { offsetInCU: 0x422B2, offset: 0x4C954, size: 0x8, addend: 0x0, symName: __ZNSt3__128__exception_guard_exceptionsINS_6vectorIjNS_9allocatorIjEEE16__destroy_vectorEE10__completeB7v160006Ev, symObjAddr: 0x9619C, symBinAddr: 0x1000A0778, symSize: 0xD8 }
  - { offsetInCU: 0x422D7, offset: 0x4C979, size: 0x8, addend: 0x0, symName: __ZNSt3__128__exception_guard_exceptionsINS_6vectorIjNS_9allocatorIjEEE16__destroy_vectorEED1B7v160006Ev, symObjAddr: 0x96274, symBinAddr: 0x1000A0850, symSize: 0x78 }
  - { offsetInCU: 0x422FF, offset: 0x4C9A1, size: 0x8, addend: 0x0, symName: __ZNSt3__117__compressed_pairIPjNS_9allocatorIjEEEC2B7v160006IDnS3_EEOT_OT0_, symObjAddr: 0x962EC, symBinAddr: 0x1000A08C8, symSize: 0x170 }
  - { offsetInCU: 0x42355, offset: 0x4C9F7, size: 0x8, addend: 0x0, symName: __ZNSt3__122__compressed_pair_elemIPjLi0ELb0EEC2B7v160006IDnvEEOT_, symObjAddr: 0x9645C, symBinAddr: 0x1000A0A38, symSize: 0xBC }
  - { offsetInCU: 0x42396, offset: 0x4CA38, size: 0x8, addend: 0x0, symName: __ZNSt3__122__compressed_pair_elemINS_9allocatorIjEELi1ELb1EEC2B7v160006IS2_vEEOT_, symObjAddr: 0x96518, symBinAddr: 0x1000A0AF4, symSize: 0x58 }
  - { offsetInCU: 0x423D7, offset: 0x4CA79, size: 0x8, addend: 0x0, symName: __ZNSt3__128__exception_guard_exceptionsINS_6vectorIjNS_9allocatorIjEEE16__destroy_vectorEEC1B7v160006ES5_, symObjAddr: 0x96570, symBinAddr: 0x1000A0B4C, symSize: 0x28C }
  - { offsetInCU: 0x42412, offset: 0x4CAB4, size: 0x8, addend: 0x0, symName: __ZNSt3__128__exception_guard_exceptionsINS_6vectorIjNS_9allocatorIjEEE16__destroy_vectorEEC2B7v160006ES5_, symObjAddr: 0x967FC, symBinAddr: 0x1000A0DD8, symSize: 0x2BC }
  - { offsetInCU: 0x4244D, offset: 0x4CAEF, size: 0x8, addend: 0x0, symName: __ZNSt3__128__exception_guard_exceptionsINS_6vectorIjNS_9allocatorIjEEE16__destroy_vectorEED2B7v160006Ev, symObjAddr: 0x96AB8, symBinAddr: 0x1000A1094, symSize: 0x17C }
  - { offsetInCU: 0x42475, offset: 0x4CB17, size: 0x8, addend: 0x0, symName: __ZNKSt3__117__compressed_pairIPNS_11__hash_nodeINS_17__hash_value_typeINS_7variantIJidbNS_12basic_stringIcNS_11char_traitsIcEENS_9allocatorIcEEEEEEENS_6vectorIjNS7_IjEEEEEEPvEENS_22__hash_node_destructorINS7_ISG_EEEEE5firstB7v160006Ev, symObjAddr: 0x96C34, symBinAddr: 0x1000A1210, symSize: 0x124 }
  - { offsetInCU: 0x4249A, offset: 0x4CB3C, size: 0x8, addend: 0x0, symName: __ZNKSt3__122__compressed_pair_elemIPNS_11__hash_nodeINS_17__hash_value_typeINS_7variantIJidbNS_12basic_stringIcNS_11char_traitsIcEENS_9allocatorIcEEEEEEENS_6vectorIjNS7_IjEEEEEEPvEELi0ELb0EE5__getB7v160006Ev, symObjAddr: 0x96D58, symBinAddr: 0x1000A1334, symSize: 0xAC }
  - { offsetInCU: 0x424BF, offset: 0x4CB61, size: 0x8, addend: 0x0, symName: __ZNSt3__117__compressed_pairIPNS_11__hash_nodeINS_17__hash_value_typeINS_7variantIJidbNS_12basic_stringIcNS_11char_traitsIcEENS_9allocatorIcEEEEEEENS_6vectorIjNS7_IjEEEEEEPvEENS_22__hash_node_destructorINS7_ISG_EEEEE6secondB7v160006Ev, symObjAddr: 0x96E04, symBinAddr: 0x1000A13E0, symSize: 0x12C }
  - { offsetInCU: 0x424E4, offset: 0x4CB86, size: 0x8, addend: 0x0, symName: __ZNSt3__122__compressed_pair_elemINS_22__hash_node_destructorINS_9allocatorINS_11__hash_nodeINS_17__hash_value_typeINS_7variantIJidbNS_12basic_stringIcNS_11char_traitsIcEENS2_IcEEEEEEENS_6vectorIjNS2_IjEEEEEEPvEEEEEELi1ELb0EE5__getB7v160006Ev, symObjAddr: 0x96F30, symBinAddr: 0x1000A150C, symSize: 0xAC }
  - { offsetInCU: 0x42509, offset: 0x4CBAB, size: 0x8, addend: 0x0, symName: __ZNSt3__117__compressed_pairIPNS_11__hash_nodeINS_17__hash_value_typeINS_7variantIJidbNS_12basic_stringIcNS_11char_traitsIcEENS_9allocatorIcEEEEEEENS_6vectorIjNS7_IjEEEEEEPvEENS_22__hash_node_destructorINS7_ISG_EEEEE5firstB7v160006Ev, symObjAddr: 0x96FDC, symBinAddr: 0x1000A15B8, symSize: 0x124 }
  - { offsetInCU: 0x4252E, offset: 0x4CBD0, size: 0x8, addend: 0x0, symName: __ZNSt3__122__compressed_pair_elemIPNS_11__hash_nodeINS_17__hash_value_typeINS_7variantIJidbNS_12basic_stringIcNS_11char_traitsIcEENS_9allocatorIcEEEEEEENS_6vectorIjNS7_IjEEEEEEPvEELi0ELb0EE5__getB7v160006Ev, symObjAddr: 0x97100, symBinAddr: 0x1000A16DC, symSize: 0xAC }
  - { offsetInCU: 0x42553, offset: 0x4CBF5, size: 0x8, addend: 0x0, symName: __ZNSt3__110unique_ptrINS_11__hash_nodeINS_17__hash_value_typeINS_7variantIJidbNS_12basic_stringIcNS_11char_traitsIcEENS_9allocatorIcEEEEEEENS_6vectorIjNS7_IjEEEEEEPvEENS_22__hash_node_destructorINS7_ISG_EEEEED2B7v160006Ev, symObjAddr: 0x971AC, symBinAddr: 0x1000A1788, symSize: 0x7C }
  - { offsetInCU: 0x4257B, offset: 0x4CC1D, size: 0x8, addend: 0x0, symName: __ZNSt3__110unique_ptrINS_11__hash_nodeINS_17__hash_value_typeINS_7variantIJidbNS_12basic_stringIcNS_11char_traitsIcEENS_9allocatorIcEEEEEEENS_6vectorIjNS7_IjEEEEEEPvEENS_22__hash_node_destructorINS7_ISG_EEEEE5resetB7v160006EPSG_, symObjAddr: 0x97228, symBinAddr: 0x1000A1804, symSize: 0x2CC }
  - { offsetInCU: 0x425BE, offset: 0x4CC60, size: 0x8, addend: 0x0, symName: __ZNSt3__122__hash_node_destructorINS_9allocatorINS_11__hash_nodeINS_17__hash_value_typeINS_7variantIJidbNS_12basic_stringIcNS_11char_traitsIcEENS1_IcEEEEEEENS_6vectorIjNS1_IjEEEEEEPvEEEEEclB7v160006EPSG_, symObjAddr: 0x974F4, symBinAddr: 0x1000A1AD0, symSize: 0x2A4 }
  - { offsetInCU: 0x425F2, offset: 0x4CC94, size: 0x8, addend: 0x0, symName: __ZNKSt3__117__compressed_pairINS_16__hash_node_baseIPNS_11__hash_nodeINS_17__hash_value_typeINS_7variantIJidbNS_12basic_stringIcNS_11char_traitsIcEENS_9allocatorIcEEEEEEENS_6vectorIjNS8_IjEEEEEEPvEEEENS8_ISH_EEE5firstB7v160006Ev, symObjAddr: 0x97798, symBinAddr: 0x1000A1D74, symSize: 0x124 }
  - { offsetInCU: 0x42617, offset: 0x4CCB9, size: 0x8, addend: 0x0, symName: __ZNSt3__121__hash_const_iteratorIPNS_11__hash_nodeINS_17__hash_value_typeINS_7variantIJidbNS_12basic_stringIcNS_11char_traitsIcEENS_9allocatorIcEEEEEEENS_6vectorIjNS7_IjEEEEEEPvEEEC1B7v160006EPNS_16__hash_node_baseISH_EEPKv, symObjAddr: 0x978BC, symBinAddr: 0x1000A1E98, symSize: 0x88 }
  - { offsetInCU: 0x4265D, offset: 0x4CCFF, size: 0x8, addend: 0x0, symName: __ZNKSt3__122__compressed_pair_elemINS_16__hash_node_baseIPNS_11__hash_nodeINS_17__hash_value_typeINS_7variantIJidbNS_12basic_stringIcNS_11char_traitsIcEENS_9allocatorIcEEEEEEENS_6vectorIjNS8_IjEEEEEEPvEEEELi0ELb0EE5__getB7v160006Ev, symObjAddr: 0x97944, symBinAddr: 0x1000A1F20, symSize: 0xAC }
  - { offsetInCU: 0x42682, offset: 0x4CD24, size: 0x8, addend: 0x0, symName: __ZNSt3__121__hash_const_iteratorIPNS_11__hash_nodeINS_17__hash_value_typeINS_7variantIJidbNS_12basic_stringIcNS_11char_traitsIcEENS_9allocatorIcEEEEEEENS_6vectorIjNS7_IjEEEEEEPvEEEC2B7v160006EPNS_16__hash_node_baseISH_EEPKv, symObjAddr: 0x979F0, symBinAddr: 0x1000A1FCC, symSize: 0xCC }
  - { offsetInCU: 0x426C8, offset: 0x4CD6A, size: 0x8, addend: 0x0, symName: __ZNSt3__16__treeINS_12__value_typeINS_7variantIJidbNS_12basic_stringIcNS_11char_traitsIcEENS_9allocatorIcEEEEEEENS_6vectorIjNS6_IjEEEEEENS_19__map_value_compareIS9_SD_NS_4lessIS9_EELb1EEENS6_ISD_EEEaSERKSJ_, symObjAddr: 0x97ABC, symBinAddr: 0x1000A2098, symSize: 0x498 }
  - { offsetInCU: 0x42700, offset: 0x4CDA2, size: 0x8, addend: 0x0, symName: __ZNKSt3__16__treeINS_12__value_typeINS_7variantIJidbNS_12basic_stringIcNS_11char_traitsIcEENS_9allocatorIcEEEEEEENS_6vectorIjNS6_IjEEEEEENS_19__map_value_compareIS9_SD_NS_4lessIS9_EELb1EEENS6_ISD_EEE10value_compB7v160006Ev, symObjAddr: 0x97F54, symBinAddr: 0x1000A2530, symSize: 0xE4 }
  - { offsetInCU: 0x42725, offset: 0x4CDC7, size: 0x8, addend: 0x0, symName: __ZNSt3__16__treeINS_12__value_typeINS_7variantIJidbNS_12basic_stringIcNS_11char_traitsIcEENS_9allocatorIcEEEEEEENS_6vectorIjNS6_IjEEEEEENS_19__map_value_compareIS9_SD_NS_4lessIS9_EELb1EEENS6_ISD_EEE10value_compB7v160006Ev, symObjAddr: 0x98038, symBinAddr: 0x1000A2614, symSize: 0xE4 }
  - { offsetInCU: 0x4274A, offset: 0x4CDEC, size: 0x8, addend: 0x0, symName: __ZNSt3__16__treeINS_12__value_typeINS_7variantIJidbNS_12basic_stringIcNS_11char_traitsIcEENS_9allocatorIcEEEEEEENS_6vectorIjNS6_IjEEEEEENS_19__map_value_compareIS9_SD_NS_4lessIS9_EELb1EEENS6_ISD_EEE19__copy_assign_allocB7v160006ERKSJ_, symObjAddr: 0x9811C, symBinAddr: 0x1000A26F8, symSize: 0xBC }
  - { offsetInCU: 0x4277E, offset: 0x4CE20, size: 0x8, addend: 0x0, symName: __ZNSt3__16__treeINS_12__value_typeINS_7variantIJidbNS_12basic_stringIcNS_11char_traitsIcEENS_9allocatorIcEEEEEEENS_6vectorIjNS6_IjEEEEEENS_19__map_value_compareIS9_SD_NS_4lessIS9_EELb1EEENS6_ISD_EEE14__assign_multiINS_21__tree_const_iteratorISD_PNS_11__tree_nodeISD_PvEElEEEEvT_SR_, symObjAddr: 0x981D8, symBinAddr: 0x1000A27B4, symSize: 0x7A4 }
  - { offsetInCU: 0x427EE, offset: 0x4CE90, size: 0x8, addend: 0x0, symName: __ZNKSt3__16__treeINS_12__value_typeINS_7variantIJidbNS_12basic_stringIcNS_11char_traitsIcEENS_9allocatorIcEEEEEEENS_6vectorIjNS6_IjEEEEEENS_19__map_value_compareIS9_SD_NS_4lessIS9_EELb1EEENS6_ISD_EEE5beginB7v160006Ev, symObjAddr: 0x9897C, symBinAddr: 0x1000A2F58, symSize: 0x2C4 }
  - { offsetInCU: 0x42814, offset: 0x4CEB6, size: 0x8, addend: 0x0, symName: __ZNKSt3__16__treeINS_12__value_typeINS_7variantIJidbNS_12basic_stringIcNS_11char_traitsIcEENS_9allocatorIcEEEEEEENS_6vectorIjNS6_IjEEEEEENS_19__map_value_compareIS9_SD_NS_4lessIS9_EELb1EEENS6_ISD_EEE3endB7v160006Ev, symObjAddr: 0x98C40, symBinAddr: 0x1000A321C, symSize: 0x24C }
  - { offsetInCU: 0x4283A, offset: 0x4CEDC, size: 0x8, addend: 0x0, symName: __ZNKSt3__117__compressed_pairImNS_19__map_value_compareINS_7variantIJidbNS_12basic_stringIcNS_11char_traitsIcEENS_9allocatorIcEEEEEEENS_12__value_typeIS9_NS_6vectorIjNS6_IjEEEEEENS_4lessIS9_EELb1EEEE6secondB7v160006Ev, symObjAddr: 0x98E8C, symBinAddr: 0x1000A3468, symSize: 0x108 }
  - { offsetInCU: 0x4285F, offset: 0x4CF01, size: 0x8, addend: 0x0, symName: __ZNKSt3__122__compressed_pair_elemINS_19__map_value_compareINS_7variantIJidbNS_12basic_stringIcNS_11char_traitsIcEENS_9allocatorIcEEEEEEENS_12__value_typeIS9_NS_6vectorIjNS6_IjEEEEEENS_4lessIS9_EELb1EEELi1ELb1EE5__getB7v160006Ev, symObjAddr: 0x98F94, symBinAddr: 0x1000A3570, symSize: 0x74 }
  - { offsetInCU: 0x42884, offset: 0x4CF26, size: 0x8, addend: 0x0, symName: __ZNSt3__117__compressed_pairImNS_19__map_value_compareINS_7variantIJidbNS_12basic_stringIcNS_11char_traitsIcEENS_9allocatorIcEEEEEEENS_12__value_typeIS9_NS_6vectorIjNS6_IjEEEEEENS_4lessIS9_EELb1EEEE6secondB7v160006Ev, symObjAddr: 0x99008, symBinAddr: 0x1000A35E4, symSize: 0x108 }
  - { offsetInCU: 0x428A9, offset: 0x4CF4B, size: 0x8, addend: 0x0, symName: __ZNSt3__122__compressed_pair_elemINS_19__map_value_compareINS_7variantIJidbNS_12basic_stringIcNS_11char_traitsIcEENS_9allocatorIcEEEEEEENS_12__value_typeIS9_NS_6vectorIjNS6_IjEEEEEENS_4lessIS9_EELb1EEELi1ELb1EE5__getB7v160006Ev, symObjAddr: 0x99110, symBinAddr: 0x1000A36EC, symSize: 0x74 }
  - { offsetInCU: 0x428CE, offset: 0x4CF70, size: 0x8, addend: 0x0, symName: __ZNSt3__16__treeINS_12__value_typeINS_7variantIJidbNS_12basic_stringIcNS_11char_traitsIcEENS_9allocatorIcEEEEEEENS_6vectorIjNS6_IjEEEEEENS_19__map_value_compareIS9_SD_NS_4lessIS9_EELb1EEENS6_ISD_EEE19__copy_assign_allocB7v160006ERKSJ_NS_17integral_constantIbLb0EEE, symObjAddr: 0x99184, symBinAddr: 0x1000A3760, symSize: 0x64 }
  - { offsetInCU: 0x4290B, offset: 0x4CFAD, size: 0x8, addend: 0x0, symName: __ZNSt3__16__treeINS_12__value_typeINS_7variantIJidbNS_12basic_stringIcNS_11char_traitsIcEENS_9allocatorIcEEEEEEENS_6vectorIjNS6_IjEEEEEENS_19__map_value_compareIS9_SD_NS_4lessIS9_EELb1EEENS6_ISD_EEE4sizeB7v160006Ev, symObjAddr: 0x991E8, symBinAddr: 0x1000A37C4, symSize: 0x100 }
  - { offsetInCU: 0x4294E, offset: 0x4CFF0, size: 0x8, addend: 0x0, symName: __ZNSt3__16__treeINS_12__value_typeINS_7variantIJidbNS_12basic_stringIcNS_11char_traitsIcEENS_9allocatorIcEEEEEEENS_6vectorIjNS6_IjEEEEEENS_19__map_value_compareIS9_SD_NS_4lessIS9_EELb1EEENS6_ISD_EEE18_DetachedTreeCacheC1B7v160006EPSJ_, symObjAddr: 0x992E8, symBinAddr: 0x1000A38C4, symSize: 0x80 }
  - { offsetInCU: 0x42985, offset: 0x4D027, size: 0x8, addend: 0x0, symName: __ZNKSt3__16__treeINS_12__value_typeINS_7variantIJidbNS_12basic_stringIcNS_11char_traitsIcEENS_9allocatorIcEEEEEEENS_6vectorIjNS6_IjEEEEEENS_19__map_value_compareIS9_SD_NS_4lessIS9_EELb1EEENS6_ISD_EEE18_DetachedTreeCache5__getB7v160006Ev, symObjAddr: 0x99368, symBinAddr: 0x1000A3944, symSize: 0xB0 }
  - { offsetInCU: 0x429AA, offset: 0x4D04C, size: 0x8, addend: 0x0, symName: __ZNKSt3__121__tree_const_iteratorINS_12__value_typeINS_7variantIJidbNS_12basic_stringIcNS_11char_traitsIcEENS_9allocatorIcEEEEEEENS_6vectorIjNS6_IjEEEEEEPNS_11__tree_nodeISD_PvEElEdeB7v160006Ev, symObjAddr: 0x994DC, symBinAddr: 0x1000A3AB8, symSize: 0x100 }
  - { offsetInCU: 0x429CF, offset: 0x4D071, size: 0x8, addend: 0x0, symName: __ZNSt3__112__value_typeINS_7variantIJidbNS_12basic_stringIcNS_11char_traitsIcEENS_9allocatorIcEEEEEEENS_6vectorIjNS5_IjEEEEEaSB7v160006ERKSC_, symObjAddr: 0x995DC, symBinAddr: 0x1000A3BB8, symSize: 0x334 }
  - { offsetInCU: 0x42A05, offset: 0x4D0A7, size: 0x8, addend: 0x0, symName: __ZNSt3__16__treeINS_12__value_typeINS_7variantIJidbNS_12basic_stringIcNS_11char_traitsIcEENS_9allocatorIcEEEEEEENS_6vectorIjNS6_IjEEEEEENS_19__map_value_compareIS9_SD_NS_4lessIS9_EELb1EEENS6_ISD_EEE19__node_insert_multiEPNS_11__tree_nodeISD_PvEE, symObjAddr: 0x99910, symBinAddr: 0x1000A3EEC, symSize: 0x4B0 }
  - { offsetInCU: 0x42A60, offset: 0x4D102, size: 0x8, addend: 0x0, symName: __ZNSt3__16__treeINS_12__value_typeINS_7variantIJidbNS_12basic_stringIcNS_11char_traitsIcEENS_9allocatorIcEEEEEEENS_6vectorIjNS6_IjEEEEEENS_19__map_value_compareIS9_SD_NS_4lessIS9_EELb1EEENS6_ISD_EEE18_DetachedTreeCache9__advanceB7v160006Ev, symObjAddr: 0x99DC0, symBinAddr: 0x1000A439C, symSize: 0x1C0 }
  - { offsetInCU: 0x42A85, offset: 0x4D127, size: 0x8, addend: 0x0, symName: __ZNSt3__121__tree_const_iteratorINS_12__value_typeINS_7variantIJidbNS_12basic_stringIcNS_11char_traitsIcEENS_9allocatorIcEEEEEEENS_6vectorIjNS6_IjEEEEEEPNS_11__tree_nodeISD_PvEElEppB7v160006Ev, symObjAddr: 0x99F80, symBinAddr: 0x1000A455C, symSize: 0x17C }
  - { offsetInCU: 0x42AAA, offset: 0x4D14C, size: 0x8, addend: 0x0, symName: __ZNSt3__16__treeINS_12__value_typeINS_7variantIJidbNS_12basic_stringIcNS_11char_traitsIcEENS_9allocatorIcEEEEEEENS_6vectorIjNS6_IjEEEEEENS_19__map_value_compareIS9_SD_NS_4lessIS9_EELb1EEENS6_ISD_EEE18_DetachedTreeCacheD1B7v160006Ev, symObjAddr: 0x9A0FC, symBinAddr: 0x1000A46D8, symSize: 0x78 }
  - { offsetInCU: 0x42AD2, offset: 0x4D174, size: 0x8, addend: 0x0, symName: __ZNSt3__16__treeINS_12__value_typeINS_7variantIJidbNS_12basic_stringIcNS_11char_traitsIcEENS_9allocatorIcEEEEEEENS_6vectorIjNS6_IjEEEEEENS_19__map_value_compareIS9_SD_NS_4lessIS9_EELb1EEENS6_ISD_EEE14__insert_multiB7v160006IRKNS_4pairIKS9_SC_EEEENS_15__tree_iteratorISD_PNS_11__tree_nodeISD_PvEElEEOT_, symObjAddr: 0x9A174, symBinAddr: 0x1000A4750, symSize: 0x2CC }
  - { offsetInCU: 0x42B11, offset: 0x4D1B3, size: 0x8, addend: 0x0, symName: __ZNSt3__122__tree_key_value_typesINS_12__value_typeINS_7variantIJidbNS_12basic_stringIcNS_11char_traitsIcEENS_9allocatorIcEEEEEEENS_6vectorIjNS6_IjEEEEEEE11__get_valueB7v160006ERKSD_, symObjAddr: 0x9A440, symBinAddr: 0x1000A4A1C, symSize: 0x98 }
  - { offsetInCU: 0x42B35, offset: 0x4D1D7, size: 0x8, addend: 0x0, symName: __ZNSt3__117__compressed_pairImNS_19__map_value_compareINS_7variantIJidbNS_12basic_stringIcNS_11char_traitsIcEENS_9allocatorIcEEEEEEENS_12__value_typeIS9_NS_6vectorIjNS6_IjEEEEEENS_4lessIS9_EELb1EEEE5firstB7v160006Ev, symObjAddr: 0x9A4D8, symBinAddr: 0x1000A4AB4, symSize: 0x124 }
  - { offsetInCU: 0x42B5A, offset: 0x4D1FC, size: 0x8, addend: 0x0, symName: __ZNSt3__16__treeINS_12__value_typeINS_7variantIJidbNS_12basic_stringIcNS_11char_traitsIcEENS_9allocatorIcEEEEEEENS_6vectorIjNS6_IjEEEEEENS_19__map_value_compareIS9_SD_NS_4lessIS9_EELb1EEENS6_ISD_EEE18_DetachedTreeCacheC2B7v160006EPSJ_, symObjAddr: 0x9A5FC, symBinAddr: 0x1000A4BD8, symSize: 0x11C }
