---
triple:          'arm64-apple-darwin'
binary-path:     silly_valgrind
relocations:
  - { offsetInCU: 0x2F6D, offset: 0x2F6D, size: 0x8, addend: 0x0, symName: __ZNSt3__124__put_character_sequenceB7v160006IcNS_11char_traitsIcEEEERNS_13basic_ostreamIT_T0_EES7_PKS4_m, symObjAddr: 0x2EC0, symBinAddr: 0x100006A88, symSize: 0x1EC }
  - { offsetInCU: 0x4D39, offset: 0x4D39, size: 0x8, addend: 0x0, symName: __ZNSt3__1lsB7v160006IcNS_11char_traitsIcEENS_9allocatorIcEEEERNS_13basic_ostreamIT_T0_EES9_RKNS_12basic_stringIS6_S7_T1_EE, symObjAddr: 0x12AC, symBinAddr: 0x100004E74, symSize: 0x4C }
  - { offsetInCU: 0x4D91, offset: 0x4D91, size: 0x8, addend: 0x0, symName: __ZNSt3__119__debug_db_insert_cB7v160006INS_12basic_stringIcNS_11char_traitsIcEENS_9allocatorIcEEEEEEvPT_, symObjAddr: 0x13E8, symBinAddr: 0x100004FB0, symSize: 0x10 }
  - { offsetInCU: 0x4DC2, offset: 0x4DC2, size: 0x8, addend: 0x0, symName: __ZNSt3__118__constexpr_strlenB7v160006EPKc, symObjAddr: 0x14B4, symBinAddr: 0x10000507C, symSize: 0x24 }
  - { offsetInCU: 0x4DEE, offset: 0x4DEE, size: 0x8, addend: 0x0, symName: __ZNSt3__115__debug_db_swapB7v160006INS_12basic_stringIcNS_11char_traitsIcEENS_9allocatorIcEEEEEEvPT_S8_, symObjAddr: 0x15D4, symBinAddr: 0x10000519C, symSize: 0x14 }
  - { offsetInCU: 0x4FD5, offset: 0x4FD5, size: 0x8, addend: 0x0, symName: __ZNSt3__1ltB7v160006IcNS_11char_traitsIcEENS_9allocatorIcEEEEbRKNS_12basic_stringIT_T0_T1_EESB_, symObjAddr: 0x1730, symBinAddr: 0x1000052F8, symSize: 0x38 }
  - { offsetInCU: 0x5051, offset: 0x5051, size: 0x8, addend: 0x0, symName: __ZNSt3__13minB7v160006ImEERKT_S3_S3_, symObjAddr: 0x1A48, symBinAddr: 0x100005610, symSize: 0x2C }
  - { offsetInCU: 0x5094, offset: 0x5094, size: 0x8, addend: 0x0, symName: __ZNSt3__118__constexpr_memcmpB7v160006IcEEiPKT_S3_m, symObjAddr: 0x1AD0, symBinAddr: 0x100005698, symSize: 0x34 }
  - { offsetInCU: 0x50E5, offset: 0x50E5, size: 0x8, addend: 0x0, symName: __ZNSt3__112__to_addressB7v160006IKcEEPT_S3_, symObjAddr: 0x1B04, symBinAddr: 0x1000056CC, symSize: 0x14 }
  - { offsetInCU: 0x514D, offset: 0x514D, size: 0x8, addend: 0x0, symName: __ZNSt3__13minB7v160006ImNS_6__lessImmEEEERKT_S5_S5_T0_, symObjAddr: 0x1BD0, symBinAddr: 0x100005798, symSize: 0x54 }
  - { offsetInCU: 0x52CA, offset: 0x52CA, size: 0x8, addend: 0x0, symName: __ZNSt3__1gtB7v160006IcNS_11char_traitsIcEENS_9allocatorIcEEEEbRKNS_12basic_stringIT_T0_T1_EESB_, symObjAddr: 0x1DBC, symBinAddr: 0x100005984, symSize: 0x30 }
  - { offsetInCU: 0x540A, offset: 0x540A, size: 0x8, addend: 0x0, symName: __ZNSt3__1eqB7v160006INS_9allocatorIcEEEEbRKNS_12basic_stringIcNS_11char_traitsIcEET_EES9_, symObjAddr: 0x1EC4, symBinAddr: 0x100005A8C, symSize: 0x148 }
  - { offsetInCU: 0x5565, offset: 0x5565, size: 0x8, addend: 0x0, symName: __ZNSt3__1neB7v160006IcNS_11char_traitsIcEENS_9allocatorIcEEEEbRKNS_12basic_stringIT_T0_T1_EESB_, symObjAddr: 0x20E4, symBinAddr: 0x100005CAC, symSize: 0x34 }
  - { offsetInCU: 0x55BD, offset: 0x55BD, size: 0x8, addend: 0x0, symName: __ZNSt3__116__do_string_hashB7v160006IPKcEEmT_S3_, symObjAddr: 0x2118, symBinAddr: 0x100005CE0, symSize: 0x3C }
  - { offsetInCU: 0x5603, offset: 0x5603, size: 0x8, addend: 0x0, symName: __ZNSt3__110__loadwordB7v160006ImEET_PKv, symObjAddr: 0x2B0C, symBinAddr: 0x1000066D4, symSize: 0x20 }
  - { offsetInCU: 0x5646, offset: 0x5646, size: 0x8, addend: 0x0, symName: __ZNSt3__14swapB7v160006ImEENS_9enable_ifIXaasr21is_move_constructibleIT_EE5valuesr18is_move_assignableIS2_EE5valueEvE4typeERS2_S5_, symObjAddr: 0x2CC8, symBinAddr: 0x100006890, symSize: 0x3C }
  - { offsetInCU: 0x5697, offset: 0x5697, size: 0x8, addend: 0x0, symName: __ZNSt3__110__loadwordB7v160006IjEET_PKv, symObjAddr: 0x2D58, symBinAddr: 0x100006920, symSize: 0x20 }
  - { offsetInCU: 0x56DA, offset: 0x56DA, size: 0x8, addend: 0x0, symName: __ZNSt3__116__pad_and_outputB7v160006IcNS_11char_traitsIcEEEENS_19ostreambuf_iteratorIT_T0_EES6_PKS4_S8_S8_RNS_8ios_baseES4_, symObjAddr: 0x30C8, symBinAddr: 0x100006C90, symSize: 0x240 }
  - { offsetInCU: 0x57A9, offset: 0x57A9, size: 0x8, addend: 0x0, symName: __ZNSt3__112__to_addressB7v160006IcEEPT_S2_, symObjAddr: 0x3540, symBinAddr: 0x100007108, symSize: 0x14 }
  - { offsetInCU: 0x5811, offset: 0x5811, size: 0x8, addend: 0x0, symName: __ZNSt3__19use_facetB7v160006INS_5ctypeIcEEEERKT_RKNS_6localeE, symObjAddr: 0x3750, symBinAddr: 0x100007318, symSize: 0x2C }
  - { offsetInCU: 0x85E0, offset: 0x85E0, size: 0x8, addend: 0x0, symName: __ZN5FieldC2EPKc, symObjAddr: 0x0, symBinAddr: 0x100003BC8, symSize: 0x3C }
  - { offsetInCU: 0x861C, offset: 0x861C, size: 0x8, addend: 0x0, symName: __ZNSt3__112basic_stringIcNS_11char_traitsIcEENS_9allocatorIcEEEC1B7v160006IDnEEPKc, symObjAddr: 0x3C, symBinAddr: 0x100003C04, symSize: 0x34 }
  - { offsetInCU: 0x8658, offset: 0x8658, size: 0x8, addend: 0x0, symName: __ZN5FieldC1EPKc, symObjAddr: 0x70, symBinAddr: 0x100003C38, symSize: 0x34 }
  - { offsetInCU: 0x868F, offset: 0x868F, size: 0x8, addend: 0x0, symName: __ZN5FieldC2ERKNSt3__112basic_stringIcNS0_11char_traitsIcEENS0_9allocatorIcEEEE, symObjAddr: 0xA4, symBinAddr: 0x100003C6C, symSize: 0x3C }
  - { offsetInCU: 0x86C6, offset: 0x86C6, size: 0x8, addend: 0x0, symName: __ZN5FieldC1ERKNSt3__112basic_stringIcNS0_11char_traitsIcEENS0_9allocatorIcEEEE, symObjAddr: 0xE0, symBinAddr: 0x100003CA8, symSize: 0x34 }
  - { offsetInCU: 0x86FD, offset: 0x86FD, size: 0x8, addend: 0x0, symName: __ZN5FieldC2EONSt3__112basic_stringIcNS0_11char_traitsIcEENS0_9allocatorIcEEEE, symObjAddr: 0x114, symBinAddr: 0x100003CDC, symSize: 0x3C }
  - { offsetInCU: 0x8734, offset: 0x8734, size: 0x8, addend: 0x0, symName: __ZNSt3__112basic_stringIcNS_11char_traitsIcEENS_9allocatorIcEEEC1B7v160006EOS5_, symObjAddr: 0x150, symBinAddr: 0x100003D18, symSize: 0x34 }
  - { offsetInCU: 0x876B, offset: 0x876B, size: 0x8, addend: 0x0, symName: __ZN5FieldC1EONSt3__112basic_stringIcNS0_11char_traitsIcEENS0_9allocatorIcEEEE, symObjAddr: 0x184, symBinAddr: 0x100003D4C, symSize: 0x34 }
  - { offsetInCU: 0x87A3, offset: 0x87A3, size: 0x8, addend: 0x0, symName: __ZN5FieldC2Ed, symObjAddr: 0x1B8, symBinAddr: 0x100003D80, symSize: 0x28 }
  - { offsetInCU: 0x87D9, offset: 0x87D9, size: 0x8, addend: 0x0, symName: __ZN5FieldC1Ed, symObjAddr: 0x1E0, symBinAddr: 0x100003DA8, symSize: 0x34 }
  - { offsetInCU: 0x8811, offset: 0x8811, size: 0x8, addend: 0x0, symName: __ZN5FieldC2Ei, symObjAddr: 0x214, symBinAddr: 0x100003DDC, symSize: 0x28 }
  - { offsetInCU: 0x8847, offset: 0x8847, size: 0x8, addend: 0x0, symName: __ZN5FieldC1Ei, symObjAddr: 0x23C, symBinAddr: 0x100003E04, symSize: 0x34 }
  - { offsetInCU: 0x887F, offset: 0x887F, size: 0x8, addend: 0x0, symName: __ZN5FieldC2Eb, symObjAddr: 0x270, symBinAddr: 0x100003E38, symSize: 0x34 }
  - { offsetInCU: 0x88B5, offset: 0x88B5, size: 0x8, addend: 0x0, symName: __ZN5FieldC1Eb, symObjAddr: 0x2A4, symBinAddr: 0x100003E6C, symSize: 0x40 }
  - { offsetInCU: 0x88ED, offset: 0x88ED, size: 0x8, addend: 0x0, symName: __ZN5FieldC2ERKS_, symObjAddr: 0x2E4, symBinAddr: 0x100003EAC, symSize: 0x40 }
  - { offsetInCU: 0x8926, offset: 0x8926, size: 0x8, addend: 0x0, symName: __ZN5Field14construct_fromIRKS_EEvOT_, symObjAddr: 0x324, symBinAddr: 0x100003EEC, symSize: 0xBC }
  - { offsetInCU: 0x8962, offset: 0x8962, size: 0x8, addend: 0x0, symName: __ZN5FieldC1ERKS_, symObjAddr: 0x3F0, symBinAddr: 0x100003FB8, symSize: 0x34 }
  - { offsetInCU: 0x899B, offset: 0x899B, size: 0x8, addend: 0x0, symName: __ZN5FieldC2EOS_, symObjAddr: 0x424, symBinAddr: 0x100003FEC, symSize: 0x48 }
  - { offsetInCU: 0x89D4, offset: 0x89D4, size: 0x8, addend: 0x0, symName: __ZN5Field14construct_fromIS_EEvOT_, symObjAddr: 0x46C, symBinAddr: 0x100004034, symSize: 0xBC }
  - { offsetInCU: 0x8A10, offset: 0x8A10, size: 0x8, addend: 0x0, symName: __ZN5FieldC1EOS_, symObjAddr: 0x544, symBinAddr: 0x10000410C, symSize: 0x34 }
  - { offsetInCU: 0x8A49, offset: 0x8A49, size: 0x8, addend: 0x0, symName: __ZN5FieldD2Ev, symObjAddr: 0x578, symBinAddr: 0x100004140, symSize: 0x54 }
  - { offsetInCU: 0x8A74, offset: 0x8A74, size: 0x8, addend: 0x0, symName: __ZN5FieldD1Ev, symObjAddr: 0x5CC, symBinAddr: 0x100004194, symSize: 0x2C }
  - { offsetInCU: 0x8A9F, offset: 0x8A9F, size: 0x8, addend: 0x0, symName: __ZNK5FieldltERKS_, symObjAddr: 0x5F8, symBinAddr: 0x1000041C0, symSize: 0x30 }
  - { offsetInCU: 0x8AD4, offset: 0x8AD4, size: 0x8, addend: 0x0, symName: __ZNK5Field7compareINSt3__14lessEEEbRKS_, symObjAddr: 0x628, symBinAddr: 0x1000041F0, symSize: 0x1B0 }
  - { offsetInCU: 0x8B10, offset: 0x8B10, size: 0x8, addend: 0x0, symName: __ZNK5FieldgtERKS_, symObjAddr: 0x7E8, symBinAddr: 0x1000043B0, symSize: 0x30 }
  - { offsetInCU: 0x8B45, offset: 0x8B45, size: 0x8, addend: 0x0, symName: __ZNK5Field7compareINSt3__17greaterEEEbRKS_, symObjAddr: 0x818, symBinAddr: 0x1000043E0, symSize: 0x1B0 }
  - { offsetInCU: 0x8B81, offset: 0x8B81, size: 0x8, addend: 0x0, symName: __ZNK5FieldeqERKS_, symObjAddr: 0x9D8, symBinAddr: 0x1000045A0, symSize: 0x30 }
  - { offsetInCU: 0x8BB6, offset: 0x8BB6, size: 0x8, addend: 0x0, symName: __ZNK5Field7compareINSt3__18equal_toEEEbRKS_, symObjAddr: 0xA08, symBinAddr: 0x1000045D0, symSize: 0x1B0 }
  - { offsetInCU: 0x8BF2, offset: 0x8BF2, size: 0x8, addend: 0x0, symName: __ZNK5FieldneERKS_, symObjAddr: 0xBC8, symBinAddr: 0x100004790, symSize: 0x30 }
  - { offsetInCU: 0x8C27, offset: 0x8C27, size: 0x8, addend: 0x0, symName: __ZNK5Field7compareINSt3__112not_equal_toEEEbRKS_, symObjAddr: 0xBF8, symBinAddr: 0x1000047C0, symSize: 0x1B0 }
  - { offsetInCU: 0x8C63, offset: 0x8C63, size: 0x8, addend: 0x0, symName: __ZNK5Field2asINSt3__112basic_stringIcNS1_11char_traitsIcEENS1_9allocatorIcEEEEEENS1_11conditionalIXsr12is_fast_passINS1_5decayIT_E4typeEEE5valueESC_NS1_20add_lvalue_referenceINS1_9add_constISC_E4typeEE4typeEE4typeEv, symObjAddr: 0xDB8, symBinAddr: 0x100004980, symSize: 0x90 }
  - { offsetInCU: 0x8C95, offset: 0x8C95, size: 0x8, addend: 0x0, symName: __ZNK5Field2asIdEENSt3__111conditionalIXsr12is_fast_passINS1_5decayIT_E4typeEEE5valueES6_NS1_20add_lvalue_referenceINS1_9add_constIS6_E4typeEE4typeEE4typeEv, symObjAddr: 0xE48, symBinAddr: 0x100004A10, symSize: 0x90 }
  - { offsetInCU: 0x8CC7, offset: 0x8CC7, size: 0x8, addend: 0x0, symName: __ZNK5Field2asIiEENSt3__111conditionalIXsr12is_fast_passINS1_5decayIT_E4typeEEE5valueES6_NS1_20add_lvalue_referenceINS1_9add_constIS6_E4typeEE4typeEE4typeEv, symObjAddr: 0xED8, symBinAddr: 0x100004AA0, symSize: 0x90 }
  - { offsetInCU: 0x8CF9, offset: 0x8CF9, size: 0x8, addend: 0x0, symName: __ZNK5Field2asIbEENSt3__111conditionalIXsr12is_fast_passINS1_5decayIT_E4typeEEE5valueES6_NS1_20add_lvalue_referenceINS1_9add_constIS6_E4typeEE4typeEE4typeEv, symObjAddr: 0xF68, symBinAddr: 0x100004B30, symSize: 0x94 }
  - { offsetInCU: 0x8D35, offset: 0x8D35, size: 0x8, addend: 0x0, symName: __ZNKSt3__14hashI5FieldEclERKS1_, symObjAddr: 0xFFC, symBinAddr: 0x100004BC4, symSize: 0xCC }
  - { offsetInCU: 0x8D74, offset: 0x8D74, size: 0x8, addend: 0x0, symName: __ZNKSt3__113__string_hashIcNS_9allocatorIcEEEclERKNS_12basic_stringIcNS_11char_traitsIcEES2_EE, symObjAddr: 0x10D8, symBinAddr: 0x100004CA0, symSize: 0x64 }
  - { offsetInCU: 0x8DBC, offset: 0x8DBC, size: 0x8, addend: 0x0, symName: __ZNKSt3__14hashIdEclB7v160006Ed, symObjAddr: 0x113C, symBinAddr: 0x100004D04, symSize: 0x5C }
  - { offsetInCU: 0x8DFA, offset: 0x8DFA, size: 0x8, addend: 0x0, symName: __ZNKSt3__14hashIiEclB7v160006Ei, symObjAddr: 0x1198, symBinAddr: 0x100004D60, symSize: 0x18 }
  - { offsetInCU: 0x8E38, offset: 0x8E38, size: 0x8, addend: 0x0, symName: __ZNKSt3__14hashIbEclB7v160006Eb, symObjAddr: 0x11B0, symBinAddr: 0x100004D78, symSize: 0x20 }
  - { offsetInCU: 0x8E6B, offset: 0x8E6B, size: 0x8, addend: 0x0, symName: __ZlsRNSt3__113basic_ostreamIcNS_11char_traitsIcEEEERK5Field, symObjAddr: 0x11D0, symBinAddr: 0x100004D98, symSize: 0xCC }
  - { offsetInCU: 0x8EA6, offset: 0x8EA6, size: 0x8, addend: 0x0, symName: __ZNKSt3__113__scalar_hashIdLm1EEclB7v160006Ed, symObjAddr: 0x12F8, symBinAddr: 0x100004EC0, symSize: 0x20 }
  - { offsetInCU: 0x8F0A, offset: 0x8F0A, size: 0x8, addend: 0x0, symName: __ZNSt3__112basic_stringIcNS_11char_traitsIcEENS_9allocatorIcEEEC2B7v160006IDnEEPKc, symObjAddr: 0x1318, symBinAddr: 0x100004EE0, symSize: 0x60 }
  - { offsetInCU: 0x8F4B, offset: 0x8F4B, size: 0x8, addend: 0x0, symName: __ZNSt3__117__compressed_pairINS_12basic_stringIcNS_11char_traitsIcEENS_9allocatorIcEEE5__repES5_EC1B7v160006INS_18__default_init_tagESA_EEOT_OT0_, symObjAddr: 0x1378, symBinAddr: 0x100004F40, symSize: 0x3C }
  - { offsetInCU: 0x8FA2, offset: 0x8FA2, size: 0x8, addend: 0x0, symName: __ZNSt3__111char_traitsIcE6lengthEPKc, symObjAddr: 0x13B4, symBinAddr: 0x100004F7C, symSize: 0x34 }
  - { offsetInCU: 0x8FC4, offset: 0x8FC4, size: 0x8, addend: 0x0, symName: __ZNSt3__117__compressed_pairINS_12basic_stringIcNS_11char_traitsIcEENS_9allocatorIcEEE5__repES5_EC2B7v160006INS_18__default_init_tagESA_EEOT_OT0_, symObjAddr: 0x13F8, symBinAddr: 0x100004FC0, symSize: 0x3C }
  - { offsetInCU: 0x901B, offset: 0x901B, size: 0x8, addend: 0x0, symName: __ZNSt3__122__compressed_pair_elemINS_12basic_stringIcNS_11char_traitsIcEENS_9allocatorIcEEE5__repELi0ELb0EEC2B7v160006ENS_18__default_init_tagE, symObjAddr: 0x1434, symBinAddr: 0x100004FFC, symSize: 0x14 }
  - { offsetInCU: 0x904E, offset: 0x904E, size: 0x8, addend: 0x0, symName: __ZNSt3__122__compressed_pair_elemINS_9allocatorIcEELi1ELb1EEC2B7v160006ENS_18__default_init_tagE, symObjAddr: 0x1448, symBinAddr: 0x100005010, symSize: 0x2C }
  - { offsetInCU: 0x9081, offset: 0x9081, size: 0x8, addend: 0x0, symName: __ZNSt3__19allocatorIcEC2B7v160006Ev, symObjAddr: 0x1474, symBinAddr: 0x10000503C, symSize: 0x2C }
  - { offsetInCU: 0x90AA, offset: 0x90AA, size: 0x8, addend: 0x0, symName: __ZNSt3__116__non_trivial_ifILb1ENS_9allocatorIcEEEC2B7v160006Ev, symObjAddr: 0x14A0, symBinAddr: 0x100005068, symSize: 0x14 }
  - { offsetInCU: 0x90D2, offset: 0x90D2, size: 0x8, addend: 0x0, symName: __ZNSt3__112basic_stringIcNS_11char_traitsIcEENS_9allocatorIcEEEC2B7v160006EOS5_, symObjAddr: 0x14D8, symBinAddr: 0x1000050A0, symSize: 0x84 }
  - { offsetInCU: 0x910A, offset: 0x910A, size: 0x8, addend: 0x0, symName: __ZNSt3__112basic_stringIcNS_11char_traitsIcEENS_9allocatorIcEEE14__default_initB7v160006Ev, symObjAddr: 0x155C, symBinAddr: 0x100005124, symSize: 0x40 }
  - { offsetInCU: 0x912F, offset: 0x912F, size: 0x8, addend: 0x0, symName: __ZNKSt3__112basic_stringIcNS_11char_traitsIcEENS_9allocatorIcEEE9__is_longB7v160006Ev, symObjAddr: 0x159C, symBinAddr: 0x100005164, symSize: 0x38 }
  - { offsetInCU: 0x9154, offset: 0x9154, size: 0x8, addend: 0x0, symName: __ZNSt3__117__compressed_pairINS_12basic_stringIcNS_11char_traitsIcEENS_9allocatorIcEEE5__repES5_E5firstB7v160006Ev, symObjAddr: 0x15E8, symBinAddr: 0x1000051B0, symSize: 0x24 }
  - { offsetInCU: 0x9179, offset: 0x9179, size: 0x8, addend: 0x0, symName: __ZNSt3__122__compressed_pair_elemINS_12basic_stringIcNS_11char_traitsIcEENS_9allocatorIcEEE5__repELi0ELb0EE5__getB7v160006Ev, symObjAddr: 0x160C, symBinAddr: 0x1000051D4, symSize: 0x14 }
  - { offsetInCU: 0x919E, offset: 0x919E, size: 0x8, addend: 0x0, symName: __ZNKSt3__117__compressed_pairINS_12basic_stringIcNS_11char_traitsIcEENS_9allocatorIcEEE5__repES5_E5firstB7v160006Ev, symObjAddr: 0x1620, symBinAddr: 0x1000051E8, symSize: 0x24 }
  - { offsetInCU: 0x91C3, offset: 0x91C3, size: 0x8, addend: 0x0, symName: __ZNKSt3__122__compressed_pair_elemINS_12basic_stringIcNS_11char_traitsIcEENS_9allocatorIcEEE5__repELi0ELb0EE5__getB7v160006Ev, symObjAddr: 0x1644, symBinAddr: 0x10000520C, symSize: 0x14 }
  - { offsetInCU: 0x91F2, offset: 0x91F2, size: 0x8, addend: 0x0, symName: __ZNKSt3__14lessINS_12basic_stringIcNS_11char_traitsIcEENS_9allocatorIcEEEEEclB7v160006ERKS6_S9_, symObjAddr: 0x1658, symBinAddr: 0x100005220, symSize: 0x34 }
  - { offsetInCU: 0x9249, offset: 0x9249, size: 0x8, addend: 0x0, symName: __ZNKSt3__14lessIdEclB7v160006ERKdS3_, symObjAddr: 0x168C, symBinAddr: 0x100005254, symSize: 0x34 }
  - { offsetInCU: 0x92A0, offset: 0x92A0, size: 0x8, addend: 0x0, symName: __ZNKSt3__14lessIiEclB7v160006ERKiS3_, symObjAddr: 0x16C0, symBinAddr: 0x100005288, symSize: 0x34 }
  - { offsetInCU: 0x92F2, offset: 0x92F2, size: 0x8, addend: 0x0, symName: __ZNKSt3__14lessIbEclB7v160006ERKbS3_, symObjAddr: 0x16F4, symBinAddr: 0x1000052BC, symSize: 0x3C }
  - { offsetInCU: 0x9335, offset: 0x9335, size: 0x8, addend: 0x0, symName: __ZNKSt3__112basic_stringIcNS_11char_traitsIcEENS_9allocatorIcEEE7compareB7v160006ERKS5_, symObjAddr: 0x1768, symBinAddr: 0x100005330, symSize: 0x4C }
  - { offsetInCU: 0x936B, offset: 0x936B, size: 0x8, addend: 0x0, symName: __ZNKSt3__112basic_stringIcNS_11char_traitsIcEENS_9allocatorIcEEE7compareINS_17basic_string_viewIcS2_EEEENS_9enable_ifIXsr33__can_be_converted_to_string_viewIcS2_T_EE5valueEiE4typeERKSA_, symObjAddr: 0x17B4, symBinAddr: 0x10000537C, symSize: 0x12C }
  - { offsetInCU: 0x93E7, offset: 0x93E7, size: 0x8, addend: 0x0, symName: __ZNKSt3__112basic_stringIcNS_11char_traitsIcEENS_9allocatorIcEEEcvNS_17basic_string_viewIcS2_EEB7v160006Ev, symObjAddr: 0x18E0, symBinAddr: 0x1000054A8, symSize: 0x50 }
  - { offsetInCU: 0x940C, offset: 0x940C, size: 0x8, addend: 0x0, symName: __ZNKSt3__112basic_stringIcNS_11char_traitsIcEENS_9allocatorIcEEE4sizeB7v160006Ev, symObjAddr: 0x1930, symBinAddr: 0x1000054F8, symSize: 0x54 }
  - { offsetInCU: 0x9431, offset: 0x9431, size: 0x8, addend: 0x0, symName: __ZNKSt3__117basic_string_viewIcNS_11char_traitsIcEEE4sizeB7v160006Ev, symObjAddr: 0x1984, symBinAddr: 0x10000554C, symSize: 0x18 }
  - { offsetInCU: 0x9456, offset: 0x9456, size: 0x8, addend: 0x0, symName: __ZNSt3__111char_traitsIcE7compareEPKcS3_m, symObjAddr: 0x199C, symBinAddr: 0x100005564, symSize: 0x6C }
  - { offsetInCU: 0x9495, offset: 0x9495, size: 0x8, addend: 0x0, symName: __ZNKSt3__112basic_stringIcNS_11char_traitsIcEENS_9allocatorIcEEE4dataB7v160006Ev, symObjAddr: 0x1A08, symBinAddr: 0x1000055D0, symSize: 0x28 }
  - { offsetInCU: 0x94BA, offset: 0x94BA, size: 0x8, addend: 0x0, symName: __ZNKSt3__117basic_string_viewIcNS_11char_traitsIcEEE4dataB7v160006Ev, symObjAddr: 0x1A30, symBinAddr: 0x1000055F8, symSize: 0x18 }
  - { offsetInCU: 0x94DF, offset: 0x94DF, size: 0x8, addend: 0x0, symName: __ZNKSt3__112basic_stringIcNS_11char_traitsIcEENS_9allocatorIcEEE15__get_long_sizeB7v160006Ev, symObjAddr: 0x1A74, symBinAddr: 0x10000563C, symSize: 0x28 }
  - { offsetInCU: 0x9504, offset: 0x9504, size: 0x8, addend: 0x0, symName: __ZNKSt3__112basic_stringIcNS_11char_traitsIcEENS_9allocatorIcEEE16__get_short_sizeB7v160006Ev, symObjAddr: 0x1A9C, symBinAddr: 0x100005664, symSize: 0x34 }
  - { offsetInCU: 0x9529, offset: 0x9529, size: 0x8, addend: 0x0, symName: __ZNKSt3__112basic_stringIcNS_11char_traitsIcEENS_9allocatorIcEEE13__get_pointerB7v160006Ev, symObjAddr: 0x1B18, symBinAddr: 0x1000056E0, symSize: 0x54 }
  - { offsetInCU: 0x954E, offset: 0x954E, size: 0x8, addend: 0x0, symName: __ZNKSt3__112basic_stringIcNS_11char_traitsIcEENS_9allocatorIcEEE18__get_long_pointerB7v160006Ev, symObjAddr: 0x1B6C, symBinAddr: 0x100005734, symSize: 0x28 }
  - { offsetInCU: 0x9573, offset: 0x9573, size: 0x8, addend: 0x0, symName: __ZNKSt3__112basic_stringIcNS_11char_traitsIcEENS_9allocatorIcEEE19__get_short_pointerB7v160006Ev, symObjAddr: 0x1B94, symBinAddr: 0x10000575C, symSize: 0x28 }
  - { offsetInCU: 0x9598, offset: 0x9598, size: 0x8, addend: 0x0, symName: __ZNSt3__114pointer_traitsIPKcE10pointer_toB7v160006ERS1_, symObjAddr: 0x1BBC, symBinAddr: 0x100005784, symSize: 0x14 }
  - { offsetInCU: 0x95CA, offset: 0x95CA, size: 0x8, addend: 0x0, symName: __ZNKSt3__16__lessImmEclB7v160006ERKmS3_, symObjAddr: 0x1C24, symBinAddr: 0x1000057EC, symSize: 0x34 }
  - { offsetInCU: 0x960A, offset: 0x960A, size: 0x8, addend: 0x0, symName: __ZNSt3__117basic_string_viewIcNS_11char_traitsIcEEEC1B7v160006EPKcm, symObjAddr: 0x1C58, symBinAddr: 0x100005820, symSize: 0x3C }
  - { offsetInCU: 0x9651, offset: 0x9651, size: 0x8, addend: 0x0, symName: __ZNSt3__117basic_string_viewIcNS_11char_traitsIcEEEC2B7v160006EPKcm, symObjAddr: 0x1C94, symBinAddr: 0x10000585C, symSize: 0x50 }
  - { offsetInCU: 0x96A2, offset: 0x96A2, size: 0x8, addend: 0x0, symName: __ZNKSt3__17greaterINS_12basic_stringIcNS_11char_traitsIcEENS_9allocatorIcEEEEEclB7v160006ERKS6_S9_, symObjAddr: 0x1CE4, symBinAddr: 0x1000058AC, symSize: 0x34 }
  - { offsetInCU: 0x96EF, offset: 0x96EF, size: 0x8, addend: 0x0, symName: __ZNKSt3__17greaterIdEclB7v160006ERKdS3_, symObjAddr: 0x1D18, symBinAddr: 0x1000058E0, symSize: 0x34 }
  - { offsetInCU: 0x973C, offset: 0x973C, size: 0x8, addend: 0x0, symName: __ZNKSt3__17greaterIiEclB7v160006ERKiS3_, symObjAddr: 0x1D4C, symBinAddr: 0x100005914, symSize: 0x34 }
  - { offsetInCU: 0x9789, offset: 0x9789, size: 0x8, addend: 0x0, symName: __ZNKSt3__17greaterIbEclB7v160006ERKbS3_, symObjAddr: 0x1D80, symBinAddr: 0x100005948, symSize: 0x3C }
  - { offsetInCU: 0x97D6, offset: 0x97D6, size: 0x8, addend: 0x0, symName: __ZNKSt3__18equal_toINS_12basic_stringIcNS_11char_traitsIcEENS_9allocatorIcEEEEEclB7v160006ERKS6_S9_, symObjAddr: 0x1DEC, symBinAddr: 0x1000059B4, symSize: 0x34 }
  - { offsetInCU: 0x9823, offset: 0x9823, size: 0x8, addend: 0x0, symName: __ZNKSt3__18equal_toIdEclB7v160006ERKdS3_, symObjAddr: 0x1E20, symBinAddr: 0x1000059E8, symSize: 0x34 }
  - { offsetInCU: 0x9870, offset: 0x9870, size: 0x8, addend: 0x0, symName: __ZNKSt3__18equal_toIiEclB7v160006ERKiS3_, symObjAddr: 0x1E54, symBinAddr: 0x100005A1C, symSize: 0x34 }
  - { offsetInCU: 0x98BD, offset: 0x98BD, size: 0x8, addend: 0x0, symName: __ZNKSt3__18equal_toIbEclB7v160006ERKbS3_, symObjAddr: 0x1E88, symBinAddr: 0x100005A50, symSize: 0x3C }
  - { offsetInCU: 0x990A, offset: 0x990A, size: 0x8, addend: 0x0, symName: __ZNKSt3__112not_equal_toINS_12basic_stringIcNS_11char_traitsIcEENS_9allocatorIcEEEEEclB7v160006ERKS6_S9_, symObjAddr: 0x200C, symBinAddr: 0x100005BD4, symSize: 0x34 }
  - { offsetInCU: 0x9957, offset: 0x9957, size: 0x8, addend: 0x0, symName: __ZNKSt3__112not_equal_toIdEclB7v160006ERKdS3_, symObjAddr: 0x2040, symBinAddr: 0x100005C08, symSize: 0x34 }
  - { offsetInCU: 0x99A4, offset: 0x99A4, size: 0x8, addend: 0x0, symName: __ZNKSt3__112not_equal_toIiEclB7v160006ERKiS3_, symObjAddr: 0x2074, symBinAddr: 0x100005C3C, symSize: 0x34 }
  - { offsetInCU: 0x99F1, offset: 0x99F1, size: 0x8, addend: 0x0, symName: __ZNKSt3__112not_equal_toIbEclB7v160006ERKbS3_, symObjAddr: 0x20A8, symBinAddr: 0x100005C70, symSize: 0x3C }
  - { offsetInCU: 0x9A34, offset: 0x9A34, size: 0x8, addend: 0x0, symName: __ZNSt3__121__murmur2_or_cityhashImLm64EEclEPKvm, symObjAddr: 0x2154, symBinAddr: 0x100005D1C, symSize: 0x410 }
  - { offsetInCU: 0x9ACE, offset: 0x9ACE, size: 0x8, addend: 0x0, symName: __ZNSt3__121__murmur2_or_cityhashImLm64EE18__hash_len_0_to_16EPKcm, symObjAddr: 0x2564, symBinAddr: 0x10000612C, symSize: 0x1C0 }
  - { offsetInCU: 0x9BAA, offset: 0x9BAA, size: 0x8, addend: 0x0, symName: __ZNSt3__121__murmur2_or_cityhashImLm64EE19__hash_len_17_to_32EPKcm, symObjAddr: 0x2724, symBinAddr: 0x1000062EC, symSize: 0x130 }
  - { offsetInCU: 0x9C13, offset: 0x9C13, size: 0x8, addend: 0x0, symName: __ZNSt3__121__murmur2_or_cityhashImLm64EE19__hash_len_33_to_64EPKcm, symObjAddr: 0x2854, symBinAddr: 0x10000641C, symSize: 0x2B8 }
  - { offsetInCU: 0x9CC5, offset: 0x9CC5, size: 0x8, addend: 0x0, symName: __ZNSt3__121__murmur2_or_cityhashImLm64EE13__hash_len_16Emm, symObjAddr: 0x2B2C, symBinAddr: 0x1000066F4, symSize: 0x80 }
  - { offsetInCU: 0x9D20, offset: 0x9D20, size: 0x8, addend: 0x0, symName: __ZNSt3__121__murmur2_or_cityhashImLm64EE29__weak_hash_len_32_with_seedsEPKcmm, symObjAddr: 0x2BAC, symBinAddr: 0x100006774, symSize: 0x88 }
  - { offsetInCU: 0x9D5F, offset: 0x9D5F, size: 0x8, addend: 0x0, symName: __ZNSt3__121__murmur2_or_cityhashImLm64EE8__rotateEmi, symObjAddr: 0x2C34, symBinAddr: 0x1000067FC, symSize: 0x64 }
  - { offsetInCU: 0x9D90, offset: 0x9D90, size: 0x8, addend: 0x0, symName: __ZNSt3__14pairImmEaSB7v160006EOS1_, symObjAddr: 0x2C98, symBinAddr: 0x100006860, symSize: 0x30 }
  - { offsetInCU: 0x9DC4, offset: 0x9DC4, size: 0x8, addend: 0x0, symName: __ZNSt3__121__murmur2_or_cityhashImLm64EE11__shift_mixEm, symObjAddr: 0x2D04, symBinAddr: 0x1000068CC, symSize: 0x1C }
  - { offsetInCU: 0x9DE7, offset: 0x9DE7, size: 0x8, addend: 0x0, symName: __ZNSt3__121__murmur2_or_cityhashImLm64EE22__rotate_by_at_least_1Emi, symObjAddr: 0x2D20, symBinAddr: 0x1000068E8, symSize: 0x38 }
  - { offsetInCU: 0x9E18, offset: 0x9E18, size: 0x8, addend: 0x0, symName: __ZNSt3__121__murmur2_or_cityhashImLm64EE29__weak_hash_len_32_with_seedsEmmmmmm, symObjAddr: 0x2D78, symBinAddr: 0x100006940, symSize: 0xD8 }
  - { offsetInCU: 0x9E93, offset: 0x9E93, size: 0x8, addend: 0x0, symName: __ZNSt3__14pairImmEC1B7v160006ImmLPv0EEEOT_OT0_, symObjAddr: 0x2E50, symBinAddr: 0x100006A18, symSize: 0x3C }
  - { offsetInCU: 0x9EF0, offset: 0x9EF0, size: 0x8, addend: 0x0, symName: __ZNSt3__14pairImmEC2B7v160006ImmLPv0EEEOT_OT0_, symObjAddr: 0x2E8C, symBinAddr: 0x100006A54, symSize: 0x34 }
  - { offsetInCU: 0x9F6B, offset: 0x9F6B, size: 0x8, addend: 0x0, symName: __ZNKSt3__113basic_ostreamIcNS_11char_traitsIcEEE6sentrycvbB7v160006Ev, symObjAddr: 0x30AC, symBinAddr: 0x100006C74, symSize: 0x1C }
  - { offsetInCU: 0x9F8F, offset: 0x9F8F, size: 0x8, addend: 0x0, symName: __ZNSt3__119ostreambuf_iteratorIcNS_11char_traitsIcEEEC1B7v160006ERNS_13basic_ostreamIcS2_EE, symObjAddr: 0x3308, symBinAddr: 0x100006ED0, symSize: 0x34 }
  - { offsetInCU: 0x9FC6, offset: 0x9FC6, size: 0x8, addend: 0x0, symName: __ZNKSt3__18ios_base5flagsB7v160006Ev, symObjAddr: 0x333C, symBinAddr: 0x100006F04, symSize: 0x18 }
  - { offsetInCU: 0x9FED, offset: 0x9FED, size: 0x8, addend: 0x0, symName: __ZNKSt3__19basic_iosIcNS_11char_traitsIcEEE4fillB7v160006Ev, symObjAddr: 0x3354, symBinAddr: 0x100006F1C, symSize: 0x64 }
  - { offsetInCU: 0xA014, offset: 0xA014, size: 0x8, addend: 0x0, symName: __ZNKSt3__119ostreambuf_iteratorIcNS_11char_traitsIcEEE6failedB7v160006Ev, symObjAddr: 0x33B8, symBinAddr: 0x100006F80, symSize: 0x24 }
  - { offsetInCU: 0xA039, offset: 0xA039, size: 0x8, addend: 0x0, symName: __ZNSt3__19basic_iosIcNS_11char_traitsIcEEE8setstateB7v160006Ej, symObjAddr: 0x33DC, symBinAddr: 0x100006FA4, symSize: 0x2C }
  - { offsetInCU: 0xA06D, offset: 0xA06D, size: 0x8, addend: 0x0, symName: __ZNKSt3__18ios_base5widthB7v160006Ev, symObjAddr: 0x3408, symBinAddr: 0x100006FD0, symSize: 0x18 }
  - { offsetInCU: 0xA094, offset: 0xA094, size: 0x8, addend: 0x0, symName: __ZNSt3__115basic_streambufIcNS_11char_traitsIcEEE5sputnB7v160006EPKcl, symObjAddr: 0x3420, symBinAddr: 0x100006FE8, symSize: 0x3C }
  - { offsetInCU: 0xA0D4, offset: 0xA0D4, size: 0x8, addend: 0x0, symName: __ZNSt3__112basic_stringIcNS_11char_traitsIcEENS_9allocatorIcEEEC1B7v160006Emc, symObjAddr: 0x345C, symBinAddr: 0x100007024, symSize: 0x3C }
  - { offsetInCU: 0xA11B, offset: 0xA11B, size: 0x8, addend: 0x0, symName: __ZNSt3__112basic_stringIcNS_11char_traitsIcEENS_9allocatorIcEEE4dataB7v160006Ev, symObjAddr: 0x3498, symBinAddr: 0x100007060, symSize: 0x28 }
  - { offsetInCU: 0xA140, offset: 0xA140, size: 0x8, addend: 0x0, symName: __ZNSt3__18ios_base5widthB7v160006El, symObjAddr: 0x34C0, symBinAddr: 0x100007088, symSize: 0x2C }
  - { offsetInCU: 0xA184, offset: 0xA184, size: 0x8, addend: 0x0, symName: __ZNSt3__112basic_stringIcNS_11char_traitsIcEENS_9allocatorIcEEEC2B7v160006Emc, symObjAddr: 0x34EC, symBinAddr: 0x1000070B4, symSize: 0x54 }
  - { offsetInCU: 0xA1CB, offset: 0xA1CB, size: 0x8, addend: 0x0, symName: __ZNSt3__112basic_stringIcNS_11char_traitsIcEENS_9allocatorIcEEE13__get_pointerB7v160006Ev, symObjAddr: 0x3554, symBinAddr: 0x10000711C, symSize: 0x54 }
  - { offsetInCU: 0xA1F0, offset: 0xA1F0, size: 0x8, addend: 0x0, symName: __ZNSt3__112basic_stringIcNS_11char_traitsIcEENS_9allocatorIcEEE18__get_long_pointerB7v160006Ev, symObjAddr: 0x35A8, symBinAddr: 0x100007170, symSize: 0x28 }
  - { offsetInCU: 0xA215, offset: 0xA215, size: 0x8, addend: 0x0, symName: __ZNSt3__112basic_stringIcNS_11char_traitsIcEENS_9allocatorIcEEE19__get_short_pointerB7v160006Ev, symObjAddr: 0x35D0, symBinAddr: 0x100007198, symSize: 0x28 }
  - { offsetInCU: 0xA23A, offset: 0xA23A, size: 0x8, addend: 0x0, symName: __ZNSt3__114pointer_traitsIPcE10pointer_toB7v160006ERc, symObjAddr: 0x35F8, symBinAddr: 0x1000071C0, symSize: 0x14 }
  - { offsetInCU: 0xA25C, offset: 0xA25C, size: 0x8, addend: 0x0, symName: __ZNSt3__119ostreambuf_iteratorIcNS_11char_traitsIcEEEC2B7v160006ERNS_13basic_ostreamIcS2_EE, symObjAddr: 0x360C, symBinAddr: 0x1000071D4, symSize: 0x54 }
  - { offsetInCU: 0xA293, offset: 0xA293, size: 0x8, addend: 0x0, symName: __ZNKSt3__19basic_iosIcNS_11char_traitsIcEEE5rdbufB7v160006Ev, symObjAddr: 0x3660, symBinAddr: 0x100007228, symSize: 0x24 }
  - { offsetInCU: 0xA2BA, offset: 0xA2BA, size: 0x8, addend: 0x0, symName: __ZNKSt3__18ios_base5rdbufB7v160006Ev, symObjAddr: 0x3684, symBinAddr: 0x10000724C, symSize: 0x18 }
  - { offsetInCU: 0xA2DF, offset: 0xA2DF, size: 0x8, addend: 0x0, symName: __ZNSt3__111char_traitsIcE11eq_int_typeEii, symObjAddr: 0x369C, symBinAddr: 0x100007264, symSize: 0x28 }
  - { offsetInCU: 0xA310, offset: 0xA310, size: 0x8, addend: 0x0, symName: __ZNSt3__111char_traitsIcE3eofEv, symObjAddr: 0x36C4, symBinAddr: 0x10000728C, symSize: 0x8 }
  - { offsetInCU: 0xA324, offset: 0xA324, size: 0x8, addend: 0x0, symName: __ZNKSt3__19basic_iosIcNS_11char_traitsIcEEE5widenB7v160006Ec, symObjAddr: 0x36CC, symBinAddr: 0x100007294, symSize: 0x84 }
  - { offsetInCU: 0xA391, offset: 0xA391, size: 0x8, addend: 0x0, symName: __ZNKSt3__15ctypeIcE5widenB7v160006Ec, symObjAddr: 0x377C, symBinAddr: 0x100007344, symSize: 0x38 }
  - { offsetInCU: 0xA3C5, offset: 0xA3C5, size: 0x8, addend: 0x0, symName: __ZNSt3__18ios_base8setstateB7v160006Ej, symObjAddr: 0x37B4, symBinAddr: 0x10000737C, symSize: 0x34 }
  - { offsetInCU: 0x5C, offset: 0xA546, size: 0x8, addend: 0x0, symName: __ZNSt3__1L19piecewise_constructE, symObjAddr: 0x2FC78, symBinAddr: 0x100036379, symSize: 0x0 }
  - { offsetInCU: 0xC0, offset: 0xA5AA, size: 0x8, addend: 0x0, symName: __ZNSt3__114in_place_indexILm0EEE, symObjAddr: 0x2FC79, symBinAddr: 0x10003637A, symSize: 0x0 }
  - { offsetInCU: 0x106, offset: 0xA5F0, size: 0x8, addend: 0x0, symName: __ZNSt3__114in_place_indexILm1EEE, symObjAddr: 0x2FC7A, symBinAddr: 0x10003637B, symSize: 0x0 }
  - { offsetInCU: 0x14C, offset: 0xA636, size: 0x8, addend: 0x0, symName: __ZNSt3__114in_place_indexILm2EEE, symObjAddr: 0x2FC7B, symBinAddr: 0x10003637C, symSize: 0x0 }
  - { offsetInCU: 0x192, offset: 0xA67C, size: 0x8, addend: 0x0, symName: __ZNSt3__114in_place_indexILm3EEE, symObjAddr: 0x2FC7C, symBinAddr: 0x10003637D, symSize: 0x0 }
  - { offsetInCU: 0x1D8, offset: 0xA6C2, size: 0x8, addend: 0x0, symName: __ZNSt3__18in_placeE, symObjAddr: 0x2FC7D, symBinAddr: 0x10003637E, symSize: 0x0 }
  - { offsetInCU: 0x182F2, offset: 0x227DC, size: 0x8, addend: 0x0, symName: __ZNSt3__17advanceB7v160006IPNS_12basic_stringIcNS_11char_traitsIcEENS_9allocatorIcEEEEmmvEEvRT_T0_, symObjAddr: 0xD71C, symBinAddr: 0x100013344, symSize: 0x50 }
  - { offsetInCU: 0x184A1, offset: 0x2298B, size: 0x8, addend: 0x0, symName: __ZNSt3__17advanceB7v160006IP10ColumnTypemmvEEvRT_T0_, symObjAddr: 0xE408, symBinAddr: 0x100014030, symSize: 0x50 }
  - { offsetInCU: 0x18650, offset: 0x22B3A, size: 0x8, addend: 0x0, symName: __ZNSt3__17advanceB7v160006IPNS_6vectorINS_7variantIJidbNS_12basic_stringIcNS_11char_traitsIcEENS_9allocatorIcEEEEEEENS6_IS9_EEEEmmvEEvRT_T0_, symObjAddr: 0xF27C, symBinAddr: 0x100014EA4, symSize: 0x50 }
  - { offsetInCU: 0x186BD, offset: 0x22BA7, size: 0x8, addend: 0x0, symName: __ZNSt3__17advanceB7v160006IPNS_7variantIJidbNS_12basic_stringIcNS_11char_traitsIcEENS_9allocatorIcEEEEEEEmmvEEvRT_T0_, symObjAddr: 0xFC54, symBinAddr: 0x10001587C, symSize: 0x50 }
  - { offsetInCU: 0x18E67, offset: 0x23351, size: 0x8, addend: 0x0, symName: __ZNSt3__17advanceB7v160006IPjmmvEEvRT_T0_, symObjAddr: 0x14FF4, symBinAddr: 0x10001AC1C, symSize: 0x50 }
  - { offsetInCU: 0x1AD90, offset: 0x2527A, size: 0x8, addend: 0x0, symName: __ZNSt3__111__introsortINS_17_ClassicAlgPolicyERNS_6__lessIjjEENS_16reverse_iteratorINS_11__wrap_iterIPjEEEEEEvT1_SA_T0_NS_15iterator_traitsISA_E15difference_typeE, symObjAddr: 0x24E8C, symBinAddr: 0x10002A040, symSize: 0x9D0 }
  - { offsetInCU: 0x1AF2B, offset: 0x25415, size: 0x8, addend: 0x0, symName: __ZNSt3__118__insertion_sort_3B7v160006INS_17_ClassicAlgPolicyERNS_6__lessIjjEENS_16reverse_iteratorINS_11__wrap_iterIPjEEEEEEvT1_SA_T0_, symObjAddr: 0x25BBC, symBinAddr: 0x10002AD70, symSize: 0x1D4 }
  - { offsetInCU: 0x1B004, offset: 0x254EE, size: 0x8, addend: 0x0, symName: __ZNSt3__111__sift_downB7v160006INS_17_ClassicAlgPolicyERNS_6__lessIjjEENS_16reverse_iteratorINS_11__wrap_iterIPjEEEEEEvT1_OT0_NS_15iterator_traitsISA_E15difference_typeESA_, symObjAddr: 0x26E58, symBinAddr: 0x10002C00C, symSize: 0x2FC }
  - { offsetInCU: 0x1B0B5, offset: 0x2559F, size: 0x8, addend: 0x0, symName: __ZNSt3__117__floyd_sift_downB7v160006INS_17_ClassicAlgPolicyERNS_6__lessIjjEENS_16reverse_iteratorINS_11__wrap_iterIPjEEEEEET1_SA_OT0_NS_15iterator_traitsISA_E15difference_typeE, symObjAddr: 0x27358, symBinAddr: 0x10002C50C, symSize: 0x158 }
  - { offsetInCU: 0x1B14E, offset: 0x25638, size: 0x8, addend: 0x0, symName: __ZNSt3__127__insertion_sort_incompleteIRNS_6__lessIjjEENS_16reverse_iteratorINS_11__wrap_iterIPjEEEEEEbT0_S9_T_, symObjAddr: 0x26360, symBinAddr: 0x10002B514, symSize: 0x4C0 }
  - { offsetInCU: 0x2085B, offset: 0x2AD45, size: 0x8, addend: 0x0, symName: __ZNSt3__19boolalphaB7v160006ERNS_8ios_baseE, symObjAddr: 0x124, symBinAddr: 0x1000074D4, symSize: 0x2C }
  - { offsetInCU: 0x20889, offset: 0x2AD73, size: 0x8, addend: 0x0, symName: __ZNSt3__1lsB7v160006INS_11char_traitsIcEEEERNS_13basic_ostreamIcT_EES6_PKc, symObjAddr: 0x540, symBinAddr: 0x1000078F0, symSize: 0x48 }
  - { offsetInCU: 0x208CF, offset: 0x2ADB9, size: 0x8, addend: 0x0, symName: __ZNSt3__14endlB7v160006IcNS_11char_traitsIcEEEERNS_13basic_ostreamIT_T0_EES7_, symObjAddr: 0x5B4, symBinAddr: 0x100007964, symSize: 0x58 }
  - { offsetInCU: 0x20910, offset: 0x2ADFA, size: 0x8, addend: 0x0, symName: __ZNSt3__119__debug_db_insert_cB7v160006INS_13unordered_mapINS_12basic_stringIcNS_11char_traitsIcEENS_9allocatorIcEEEE5TableNS_4hashIS7_EENS_8equal_toIS7_EENS5_INS_4pairIKS7_S8_EEEEEEEEvPT_, symObjAddr: 0x958, symBinAddr: 0x100007B7C, symSize: 0x10 }
  - { offsetInCU: 0x20940, offset: 0x2AE2A, size: 0x8, addend: 0x0, symName: __ZNSt3__1rsB7v160006IcNS_11char_traitsIcEENS_9allocatorIcEEEERNS_13basic_istreamIT_T0_EES9_RNS_12basic_stringIS6_S7_T1_EE, symObjAddr: 0xFCC, symBinAddr: 0x1000081F0, symSize: 0x31C }
  - { offsetInCU: 0x20A0F, offset: 0x2AEF9, size: 0x8, addend: 0x0, symName: __ZNSt3__1eqB7v160006IcNS_11char_traitsIcEENS_9allocatorIcEEEEbRKNS_12basic_stringIT_T0_T1_EEPKS6_, symObjAddr: 0x12E8, symBinAddr: 0x10000850C, symSize: 0xAC }
  - { offsetInCU: 0x20A76, offset: 0x2AF60, size: 0x8, addend: 0x0, symName: __ZNSt3__17getlineB7v160006IcNS_11char_traitsIcEENS_9allocatorIcEEEERNS_13basic_istreamIT_T0_EES9_RNS_12basic_stringIS6_S7_T1_EE, symObjAddr: 0x1810, symBinAddr: 0x100008A34, symSize: 0x5C }
  - { offsetInCU: 0x20ACE, offset: 0x2AFB8, size: 0x8, addend: 0x0, symName: __ZNSt3__1neB7v160006IcNS_11char_traitsIcEENS_9allocatorIcEEEEbRKNS_12basic_stringIT_T0_T1_EEPKS6_, symObjAddr: 0x4AFC, symBinAddr: 0x10000BD20, symSize: 0x34 }
  - { offsetInCU: 0x20D1C, offset: 0x2B206, size: 0x8, addend: 0x0, symName: __ZNSt3__125__debug_db_invalidate_allB7v160006INS_12basic_stringIcNS_11char_traitsIcEENS_9allocatorIcEEEEEEvPT_, symObjAddr: 0x4FB0, symBinAddr: 0x10000C0E4, symSize: 0x10 }
  - { offsetInCU: 0x20D4C, offset: 0x2B236, size: 0x8, addend: 0x0, symName: __ZNSt3__1eqB7v160006ERKNS_19__hash_map_iteratorINS_15__hash_iteratorIPNS_11__hash_nodeINS_17__hash_value_typeINS_12basic_stringIcNS_11char_traitsIcEENS_9allocatorIcEEEE5TableEEPvEEEEEESI_, symObjAddr: 0x5520, symBinAddr: 0x10000C42C, symSize: 0x30 }
  - { offsetInCU: 0x20D89, offset: 0x2B273, size: 0x8, addend: 0x0, symName: __ZNSt3__1neB7v160006IPNS_12basic_stringIcNS_11char_traitsIcEENS_9allocatorIcEEEEEEbRKNS_11__wrap_iterIT_EESC_, symObjAddr: 0x5824, symBinAddr: 0x10000C6E4, symSize: 0x34 }
  - { offsetInCU: 0x20DCD, offset: 0x2B2B7, size: 0x8, addend: 0x0, symName: __ZNSt3__119__debug_db_insert_cB7v160006INS_6vectorINS_12basic_stringIcNS_11char_traitsIcEENS_9allocatorIcEEEENS5_IS7_EEEEEEvPT_, symObjAddr: 0x5AB4, symBinAddr: 0x10000C974, symSize: 0x10 }
  - { offsetInCU: 0x20DFE, offset: 0x2B2E8, size: 0x8, addend: 0x0, symName: __ZNSt3__119__debug_db_insert_cB7v160006INS_6vectorI10ColumnTypeNS_9allocatorIS2_EEEEEEvPT_, symObjAddr: 0x5C20, symBinAddr: 0x10000CAE0, symSize: 0x10 }
  - { offsetInCU: 0x20E2F, offset: 0x2B319, size: 0x8, addend: 0x0, symName: __ZNSt3__119__debug_db_insert_cB7v160006INS_6vectorINS1_INS_7variantIJidbNS_12basic_stringIcNS_11char_traitsIcEENS_9allocatorIcEEEEEEENS6_IS9_EEEENS6_ISB_EEEEEEvPT_, symObjAddr: 0x5D8C, symBinAddr: 0x10000CC4C, symSize: 0x10 }
  - { offsetInCU: 0x20E60, offset: 0x2B34A, size: 0x8, addend: 0x0, symName: __ZNSt3__119__debug_db_insert_cB7v160006INS_13unordered_mapINS_12basic_stringIcNS_11char_traitsIcEENS_9allocatorIcEEEENS_6vectorIjNS5_IjEEEENS_4hashIS7_EENS_8equal_toIS7_EENS5_INS_4pairIKS7_SA_EEEEEEEEvPT_, symObjAddr: 0x5ECC, symBinAddr: 0x10000CD8C, symSize: 0x10 }
  - { offsetInCU: 0x20EC4, offset: 0x2B3AE, size: 0x8, addend: 0x0, symName: __ZNSt3__112__to_addressB7v160006INS_12basic_stringIcNS_11char_traitsIcEENS_9allocatorIcEEEEEEPT_S8_, symObjAddr: 0x6E50, symBinAddr: 0x10000DD10, symSize: 0x14 }
  - { offsetInCU: 0x20EF8, offset: 0x2B3E2, size: 0x8, addend: 0x0, symName: __ZNSt3__13maxB7v160006ImEERKT_S3_S3_, symObjAddr: 0x7018, symBinAddr: 0x10000DED8, symSize: 0x2C }
  - { offsetInCU: 0x20F3C, offset: 0x2B426, size: 0x8, addend: 0x0, symName: __ZNSt3__120__throw_length_errorB7v160006EPKc, symObjAddr: 0x7194, symBinAddr: 0x10000DFA0, symSize: 0x64 }
  - { offsetInCU: 0x20F64, offset: 0x2B44E, size: 0x8, addend: 0x0, symName: __ZNSt3__13maxB7v160006ImNS_6__lessImmEEEERKT_S5_S5_T0_, symObjAddr: 0x72D8, symBinAddr: 0x10000E0E4, symSize: 0x54 }
  - { offsetInCU: 0x20FBE, offset: 0x2B4A8, size: 0x8, addend: 0x0, symName: __ZNSt3__119__allocate_at_leastB7v160006INS_9allocatorINS_12basic_stringIcNS_11char_traitsIcEENS1_IcEEEEEEEENS_19__allocation_resultINS_16allocator_traitsIT_E7pointerEEERSA_m, symObjAddr: 0x7448, symBinAddr: 0x10000E254, symSize: 0x40 }
  - { offsetInCU: 0x21001, offset: 0x2B4EB, size: 0x8, addend: 0x0, symName: __ZNSt3__117__libcpp_allocateB7v160006Emm, symObjAddr: 0x75D0, symBinAddr: 0x10000E3DC, symSize: 0x60 }
  - { offsetInCU: 0x2105D, offset: 0x2B547, size: 0x8, addend: 0x0, symName: __ZNSt3__124__is_overaligned_for_newB7v160006Em, symObjAddr: 0x7630, symBinAddr: 0x10000E43C, symSize: 0x20 }
  - { offsetInCU: 0x2108B, offset: 0x2B575, size: 0x8, addend: 0x0, symName: __ZNSt3__121__libcpp_operator_newB7v160006IJmSt11align_val_tEEEPvDpT_, symObjAddr: 0x7650, symBinAddr: 0x10000E45C, symSize: 0x2C }
  - { offsetInCU: 0x210D9, offset: 0x2B5C3, size: 0x8, addend: 0x0, symName: __ZNSt3__121__libcpp_operator_newB7v160006IJmEEEPvDpT_, symObjAddr: 0x767C, symBinAddr: 0x10000E488, symSize: 0x24 }
  - { offsetInCU: 0x21113, offset: 0x2B5FD, size: 0x8, addend: 0x0, symName: __ZNSt3__142__uninitialized_allocator_move_if_noexceptB7v160006INS_9allocatorINS_12basic_stringIcNS_11char_traitsIcEENS1_IcEEEEEENS_16reverse_iteratorIPS6_EESA_SA_EET2_RT_T0_T1_SB_, symObjAddr: 0x78AC, symBinAddr: 0x10000E6B8, symSize: 0x12C }
  - { offsetInCU: 0x211B4, offset: 0x2B69E, size: 0x8, addend: 0x0, symName: __ZNSt3__14swapB7v160006IPNS_12basic_stringIcNS_11char_traitsIcEENS_9allocatorIcEEEEEENS_9enable_ifIXaasr21is_move_constructibleIT_EE5valuesr18is_move_assignableIS9_EE5valueEvE4typeERS9_SC_, symObjAddr: 0x7A24, symBinAddr: 0x10000E830, symSize: 0x3C }
  - { offsetInCU: 0x21205, offset: 0x2B6EF, size: 0x8, addend: 0x0, symName: __ZNSt3__125__debug_db_invalidate_allB7v160006INS_6vectorINS_12basic_stringIcNS_11char_traitsIcEENS_9allocatorIcEEEENS5_IS7_EEEEEEvPT_, symObjAddr: 0x7B28, symBinAddr: 0x10000E934, symSize: 0x10 }
  - { offsetInCU: 0x21235, offset: 0x2B71F, size: 0x8, addend: 0x0, symName: __ZNSt3__122__make_exception_guardB7v160006INS_29_AllocatorDestroyRangeReverseINS_9allocatorINS_12basic_stringIcNS_11char_traitsIcEENS2_IcEEEEEENS_16reverse_iteratorIPS7_EEEEEENS_28__exception_guard_exceptionsIT_EESE_, symObjAddr: 0x7B80, symBinAddr: 0x10000E98C, symSize: 0x4C }
  - { offsetInCU: 0x2126B, offset: 0x2B755, size: 0x8, addend: 0x0, symName: __ZNSt3__1neB7v160006IPNS_12basic_stringIcNS_11char_traitsIcEENS_9allocatorIcEEEES7_EEbRKNS_16reverse_iteratorIT_EERKNS8_IT0_EE, symObjAddr: 0x7C10, symBinAddr: 0x10000EA1C, symSize: 0x48 }
  - { offsetInCU: 0x212B7, offset: 0x2B7A1, size: 0x8, addend: 0x0, symName: __ZNSt3__112__to_addressB7v160006INS_16reverse_iteratorIPNS_12basic_stringIcNS_11char_traitsIcEENS_9allocatorIcEEEEEEvEENS_5decayIDTclsr19__to_address_helperIT_EE6__callclsr3stdE7declvalIRKSB_EEEEE4typeESD_, symObjAddr: 0x7C8C, symBinAddr: 0x10000EA98, symSize: 0x24 }
  - { offsetInCU: 0x21318, offset: 0x2B802, size: 0x8, addend: 0x0, symName: __ZNSt3__119__allocator_destroyB7v160006INS_9allocatorINS_12basic_stringIcNS_11char_traitsIcEENS1_IcEEEEEENS_16reverse_iteratorINS8_IPS6_EEEESB_EEvRT_T0_T1_, symObjAddr: 0x8034, symBinAddr: 0x10000ED78, symSize: 0x70 }
  - { offsetInCU: 0x2137E, offset: 0x2B868, size: 0x8, addend: 0x0, symName: __ZNSt3__1neB7v160006INS_16reverse_iteratorIPNS_12basic_stringIcNS_11char_traitsIcEENS_9allocatorIcEEEEEES9_EEbRKNS1_IT_EERKNS1_IT0_EE, symObjAddr: 0x80E0, symBinAddr: 0x10000EE24, symSize: 0x60 }
  - { offsetInCU: 0x213CA, offset: 0x2B8B4, size: 0x8, addend: 0x0, symName: __ZNSt3__112__to_addressB7v160006INS_16reverse_iteratorINS1_IPNS_12basic_stringIcNS_11char_traitsIcEENS_9allocatorIcEEEEEEEEvEENS_5decayIDTclsr19__to_address_helperIT_EE6__callclsr3stdE7declvalIRKSC_EEEEE4typeESE_, symObjAddr: 0x816C, symBinAddr: 0x10000EEB0, symSize: 0x24 }
  - { offsetInCU: 0x2142B, offset: 0x2B915, size: 0x8, addend: 0x0, symName: __ZNSt3__119__libcpp_deallocateB7v160006EPvmm, symObjAddr: 0x8528, symBinAddr: 0x10000F26C, symSize: 0x60 }
  - { offsetInCU: 0x21492, offset: 0x2B97C, size: 0x8, addend: 0x0, symName: __ZNSt3__127__do_deallocate_handle_sizeB7v160006IJSt11align_val_tEEEvPvmDpT_, symObjAddr: 0x8588, symBinAddr: 0x10000F2CC, symSize: 0x30 }
  - { offsetInCU: 0x214E7, offset: 0x2B9D1, size: 0x8, addend: 0x0, symName: __ZNSt3__127__do_deallocate_handle_sizeB7v160006IJEEEvPvmDpT_, symObjAddr: 0x85B8, symBinAddr: 0x10000F2FC, symSize: 0x28 }
  - { offsetInCU: 0x21527, offset: 0x2BA11, size: 0x8, addend: 0x0, symName: __ZNSt3__124__libcpp_operator_deleteB7v160006IJPvSt11align_val_tEEEvDpT_, symObjAddr: 0x85E0, symBinAddr: 0x10000F324, symSize: 0x2C }
  - { offsetInCU: 0x21572, offset: 0x2BA5C, size: 0x8, addend: 0x0, symName: __ZNSt3__124__libcpp_operator_deleteB7v160006IJPvEEEvDpT_, symObjAddr: 0x860C, symBinAddr: 0x10000F350, symSize: 0x24 }
  - { offsetInCU: 0x215AA, offset: 0x2BA94, size: 0x8, addend: 0x0, symName: __ZNSt3__112__to_addressB7v160006I10ColumnTypeEEPT_S3_, symObjAddr: 0x8E14, symBinAddr: 0x10000FB58, symSize: 0x14 }
  - { offsetInCU: 0x215DE, offset: 0x2BAC8, size: 0x8, addend: 0x0, symName: __ZNSt3__119__allocate_at_leastB7v160006INS_9allocatorI10ColumnTypeEEEENS_19__allocation_resultINS_16allocator_traitsIT_E7pointerEEERS6_m, symObjAddr: 0x91C8, symBinAddr: 0x10000FF0C, symSize: 0x40 }
  - { offsetInCU: 0x21621, offset: 0x2BB0B, size: 0x8, addend: 0x0, symName: __ZNSt3__142__uninitialized_allocator_move_if_noexceptB7v160006INS_9allocatorI10ColumnTypeEENS_16reverse_iteratorIPS2_EES6_S2_vEET1_RT_T0_SA_S7_, symObjAddr: 0x9500, symBinAddr: 0x100010244, symSize: 0x78 }
  - { offsetInCU: 0x216A1, offset: 0x2BB8B, size: 0x8, addend: 0x0, symName: __ZNSt3__14swapB7v160006IP10ColumnTypeEENS_9enable_ifIXaasr21is_move_constructibleIT_EE5valuesr18is_move_assignableIS4_EE5valueEvE4typeERS4_S7_, symObjAddr: 0x95C4, symBinAddr: 0x100010308, symSize: 0x3C }
  - { offsetInCU: 0x216F2, offset: 0x2BBDC, size: 0x8, addend: 0x0, symName: __ZNSt3__125__debug_db_invalidate_allB7v160006INS_6vectorI10ColumnTypeNS_9allocatorIS2_EEEEEEvPT_, symObjAddr: 0x96AC, symBinAddr: 0x1000103F0, symSize: 0x10 }
  - { offsetInCU: 0x21722, offset: 0x2BC0C, size: 0x8, addend: 0x0, symName: __ZNSt3__14moveB7v160006INS_16reverse_iteratorIP10ColumnTypeEES4_EET0_T_S6_S5_, symObjAddr: 0x9704, symBinAddr: 0x100010448, symSize: 0x78 }
  - { offsetInCU: 0x2177C, offset: 0x2BC66, size: 0x8, addend: 0x0, symName: __ZNSt3__16__moveB7v160006INS_17_ClassicAlgPolicyENS_16reverse_iteratorIP10ColumnTypeEES5_S5_EENS_4pairIT0_T2_EES7_T1_S8_, symObjAddr: 0x977C, symBinAddr: 0x1000104C0, symSize: 0x64 }
  - { offsetInCU: 0x217E8, offset: 0x2BCD2, size: 0x8, addend: 0x0, symName: __ZNSt3__123__dispatch_copy_or_moveB7v160006INS_17_ClassicAlgPolicyENS_11__move_loopIS1_EENS_14__move_trivialENS_16reverse_iteratorIP10ColumnTypeEES8_S8_EENS_4pairIT2_T4_EESA_T3_SB_, symObjAddr: 0x97E0, symBinAddr: 0x100010524, symSize: 0x64 }
  - { offsetInCU: 0x21866, offset: 0x2BD50, size: 0x8, addend: 0x0, symName: __ZNSt3__121__unwrap_and_dispatchB7v160006INS_10__overloadINS_11__move_loopINS_17_ClassicAlgPolicyEEENS_14__move_trivialEEENS_16reverse_iteratorIP10ColumnTypeEESA_SA_Li0EEENS_4pairIT0_T2_EESC_T1_SD_, symObjAddr: 0x9844, symBinAddr: 0x100010588, symSize: 0x12C }
  - { offsetInCU: 0x218F7, offset: 0x2BDE1, size: 0x8, addend: 0x0, symName: __ZNSt3__114__unwrap_rangeB7v160006INS_16reverse_iteratorIP10ColumnTypeEES4_EENS_4pairIT0_S6_EET_S8_, symObjAddr: 0x9970, symBinAddr: 0x1000106B4, symSize: 0x84 }
  - { offsetInCU: 0x21AF0, offset: 0x2BFDA, size: 0x8, addend: 0x0, symName: __ZNSt3__113__unwrap_iterB7v160006INS_16reverse_iteratorIP10ColumnTypeEENS_18__unwrap_iter_implIS4_Lb0EEELi0EEEDTclsrT0_8__unwrapclsr3stdE7declvalIT_EEEES8_, symObjAddr: 0x9A94, symBinAddr: 0x1000107D8, symSize: 0x44 }
  - { offsetInCU: 0x21B35, offset: 0x2C01F, size: 0x8, addend: 0x0, symName: __ZNSt3__19make_pairB7v160006INS_16reverse_iteratorIP10ColumnTypeEES4_EENS_4pairINS_18__unwrap_ref_decayIT_E4typeENS6_IT0_E4typeEEEOS7_OSA_, symObjAddr: 0x9AD8, symBinAddr: 0x10001081C, symSize: 0x38 }
  - { offsetInCU: 0x21B84, offset: 0x2C06E, size: 0x8, addend: 0x0, symName: __ZNSt3__114__rewrap_rangeB7v160006INS_16reverse_iteratorIP10ColumnTypeEES4_EET_S5_T0_, symObjAddr: 0x9B10, symBinAddr: 0x100010854, symSize: 0x5C }
  - { offsetInCU: 0x21BD0, offset: 0x2C0BA, size: 0x8, addend: 0x0, symName: __ZNSt3__113__rewrap_iterB7v160006INS_16reverse_iteratorIP10ColumnTypeEES4_NS_18__unwrap_iter_implIS4_Lb0EEEEET_S7_T0_, symObjAddr: 0x9B6C, symBinAddr: 0x1000108B0, symSize: 0x74 }
  - { offsetInCU: 0x21C25, offset: 0x2C10F, size: 0x8, addend: 0x0, symName: __ZNSt3__1neB7v160006IP10ColumnTypeS2_EEbRKNS_16reverse_iteratorIT_EERKNS3_IT0_EE, symObjAddr: 0x9BE0, symBinAddr: 0x100010924, symSize: 0x48 }
  - { offsetInCU: 0x21E08, offset: 0x2C2F2, size: 0x8, addend: 0x0, symName: __ZNSt3__1eqB7v160006ERKNS_15__hash_iteratorIPNS_11__hash_nodeINS_17__hash_value_typeINS_12basic_stringIcNS_11char_traitsIcEENS_9allocatorIcEEEE5TableEEPvEEEESG_, symObjAddr: 0xA170, symBinAddr: 0x100010EB4, symSize: 0x30 }
  - { offsetInCU: 0x21E46, offset: 0x2C330, size: 0x8, addend: 0x0, symName: __ZNSt3__116__constrain_hashB7v160006Emm, symObjAddr: 0xA404, symBinAddr: 0x100011148, symSize: 0x98 }
  - { offsetInCU: 0x21E7F, offset: 0x2C369, size: 0x8, addend: 0x0, symName: __ZNSt3__17launderB7v160006IKNS_4pairIKNS_12basic_stringIcNS_11char_traitsIcEENS_9allocatorIcEEEE5TableEEEEPT_SD_, symObjAddr: 0xB890, symBinAddr: 0x1000114B8, symSize: 0x24 }
  - { offsetInCU: 0x21EB7, offset: 0x2C3A1, size: 0x8, addend: 0x0, symName: __ZNSt3__19__launderB7v160006IKNS_4pairIKNS_12basic_stringIcNS_11char_traitsIcEENS_9allocatorIcEEEE5TableEEEEPT_SD_, symObjAddr: 0xB8B4, symBinAddr: 0x1000114DC, symSize: 0x14 }
  - { offsetInCU: 0x21F59, offset: 0x2C443, size: 0x8, addend: 0x0, symName: __ZNSt3__116forward_as_tupleB7v160006IJRKNS_12basic_stringIcNS_11char_traitsIcEENS_9allocatorIcEEEEEEENS_5tupleIJDpOT_EEESC_, symObjAddr: 0xBDC0, symBinAddr: 0x1000119E8, symSize: 0x2C }
  - { offsetInCU: 0x21F94, offset: 0x2C47E, size: 0x8, addend: 0x0, symName: __ZNSt3__116forward_as_tupleB7v160006IJEEENS_5tupleIJDpOT_EEES4_, symObjAddr: 0xBDEC, symBinAddr: 0x100011A14, symSize: 0x4 }
  - { offsetInCU: 0x21FBA, offset: 0x2C4A4, size: 0x8, addend: 0x0, symName: __ZNSt3__116__is_hash_power2B7v160006Em, symObjAddr: 0xC010, symBinAddr: 0x100011C38, symSize: 0x50 }
  - { offsetInCU: 0x2200F, offset: 0x2C4F9, size: 0x8, addend: 0x0, symName: __ZNSt3__13getB7v160006ILm0EJRKNS_12basic_stringIcNS_11char_traitsIcEENS_9allocatorIcEEEEEEERNS_13tuple_elementIXT_ENS_5tupleIJDpT0_EEEE4typeERSD_, symObjAddr: 0xC664, symBinAddr: 0x10001228C, symSize: 0x24 }
  - { offsetInCU: 0x22053, offset: 0x2C53D, size: 0x8, addend: 0x0, symName: __ZNSt3__116__next_hash_pow2B7v160006Em, symObjAddr: 0xCB84, symBinAddr: 0x1000127AC, symSize: 0x6C }
  - { offsetInCU: 0x22080, offset: 0x2C56A, size: 0x8, addend: 0x0, symName: __ZNSt3__125__debug_db_invalidate_allB7v160006INS_12__hash_tableINS_17__hash_value_typeINS_12basic_stringIcNS_11char_traitsIcEENS_9allocatorIcEEEE5TableEENS_22__unordered_map_hasherIS8_SA_NS_4hashIS8_EENS_8equal_toIS8_EELb1EEENS_21__unordered_map_equalIS8_SA_SF_SD_Lb1EEENS6_ISA_EEEEEEvPT_, symObjAddr: 0xCBF0, symBinAddr: 0x100012818, symSize: 0x10 }
  - { offsetInCU: 0x220B1, offset: 0x2C59B, size: 0x8, addend: 0x0, symName: __ZNSt3__112__libcpp_clzB7v160006Em, symObjAddr: 0xCF3C, symBinAddr: 0x100012B64, symSize: 0x1C }
  - { offsetInCU: 0x22135, offset: 0x2C61F, size: 0x8, addend: 0x0, symName: __ZNSt3__17launderB7v160006INS_4pairIKNS_12basic_stringIcNS_11char_traitsIcEENS_9allocatorIcEEEE5TableEEEEPT_SC_, symObjAddr: 0xD35C, symBinAddr: 0x100012F84, symSize: 0x24 }
  - { offsetInCU: 0x2216D, offset: 0x2C657, size: 0x8, addend: 0x0, symName: __ZNSt3__19__launderB7v160006INS_4pairIKNS_12basic_stringIcNS_11char_traitsIcEENS_9allocatorIcEEEE5TableEEEEPT_SC_, symObjAddr: 0xD380, symBinAddr: 0x100012FA8, symSize: 0x14 }
  - { offsetInCU: 0x221A4, offset: 0x2C68E, size: 0x8, addend: 0x0, symName: __ZNSt3__18distanceB7v160006IPNS_12basic_stringIcNS_11char_traitsIcEENS_9allocatorIcEEEEEENS_15iterator_traitsIT_E15difference_typeES9_S9_, symObjAddr: 0xD6F0, symBinAddr: 0x100013318, symSize: 0x2C }
  - { offsetInCU: 0x221E7, offset: 0x2C6D1, size: 0x8, addend: 0x0, symName: __ZNSt3__14copyB7v160006IPNS_12basic_stringIcNS_11char_traitsIcEENS_9allocatorIcEEEES7_EET0_T_S9_S8_, symObjAddr: 0xD76C, symBinAddr: 0x100013394, symSize: 0x40 }
  - { offsetInCU: 0x22242, offset: 0x2C72C, size: 0x8, addend: 0x0, symName: __ZNSt3__110__distanceB7v160006IPNS_12basic_stringIcNS_11char_traitsIcEENS_9allocatorIcEEEEEENS_15iterator_traitsIT_E15difference_typeES9_S9_NS_26random_access_iterator_tagE, symObjAddr: 0xD978, symBinAddr: 0x1000135A0, symSize: 0x28 }
  - { offsetInCU: 0x22290, offset: 0x2C77A, size: 0x8, addend: 0x0, symName: __ZNSt3__121__convert_to_integralB7v160006Em, symObjAddr: 0xD9A0, symBinAddr: 0x1000135C8, symSize: 0x14 }
  - { offsetInCU: 0x222BC, offset: 0x2C7A6, size: 0x8, addend: 0x0, symName: __ZNSt3__19__advanceB7v160006IPNS_12basic_stringIcNS_11char_traitsIcEENS_9allocatorIcEEEEEEvRT_NS_15iterator_traitsIS8_E15difference_typeENS_26random_access_iterator_tagE, symObjAddr: 0xD9B4, symBinAddr: 0x1000135DC, symSize: 0x30 }
  - { offsetInCU: 0x22305, offset: 0x2C7EF, size: 0x8, addend: 0x0, symName: __ZNSt3__16__copyB7v160006INS_17_ClassicAlgPolicyEPNS_12basic_stringIcNS_11char_traitsIcEENS_9allocatorIcEEEES8_S8_EENS_4pairIT0_T2_EESA_T1_SB_, symObjAddr: 0xD9E4, symBinAddr: 0x10001360C, symSize: 0x44 }
  - { offsetInCU: 0x22371, offset: 0x2C85B, size: 0x8, addend: 0x0, symName: __ZNSt3__123__dispatch_copy_or_moveB7v160006INS_17_ClassicAlgPolicyENS_11__copy_loopIS1_EENS_14__copy_trivialEPNS_12basic_stringIcNS_11char_traitsIcEENS_9allocatorIcEEEESB_SB_EENS_4pairIT2_T4_EESD_T3_SE_, symObjAddr: 0xDA28, symBinAddr: 0x100013650, symSize: 0x44 }
  - { offsetInCU: 0x223EF, offset: 0x2C8D9, size: 0x8, addend: 0x0, symName: __ZNSt3__121__unwrap_and_dispatchB7v160006INS_10__overloadINS_11__copy_loopINS_17_ClassicAlgPolicyEEENS_14__copy_trivialEEEPNS_12basic_stringIcNS_11char_traitsIcEENS_9allocatorIcEEEESD_SD_Li0EEENS_4pairIT0_T2_EESF_T1_SG_, symObjAddr: 0xDA6C, symBinAddr: 0x100013694, symSize: 0xB4 }
  - { offsetInCU: 0x2247E, offset: 0x2C968, size: 0x8, addend: 0x0, symName: __ZNSt3__114__unwrap_rangeB7v160006IPNS_12basic_stringIcNS_11char_traitsIcEENS_9allocatorIcEEEES7_EENS_4pairIT0_S9_EET_SB_, symObjAddr: 0xDB20, symBinAddr: 0x100013748, symSize: 0x60 }
  - { offsetInCU: 0x2266E, offset: 0x2CB58, size: 0x8, addend: 0x0, symName: __ZNSt3__113__unwrap_iterB7v160006IPNS_12basic_stringIcNS_11char_traitsIcEENS_9allocatorIcEEEENS_18__unwrap_iter_implIS7_Lb1EEELi0EEEDTclsrT0_8__unwrapclsr3stdE7declvalIT_EEEESB_, symObjAddr: 0xDC08, symBinAddr: 0x100013830, symSize: 0x24 }
  - { offsetInCU: 0x226B3, offset: 0x2CB9D, size: 0x8, addend: 0x0, symName: __ZNSt3__19make_pairB7v160006IPNS_12basic_stringIcNS_11char_traitsIcEENS_9allocatorIcEEEES7_EENS_4pairINS_18__unwrap_ref_decayIT_E4typeENS9_IT0_E4typeEEEOSA_OSD_, symObjAddr: 0xDC2C, symBinAddr: 0x100013854, symSize: 0x38 }
  - { offsetInCU: 0x22702, offset: 0x2CBEC, size: 0x8, addend: 0x0, symName: __ZNSt3__114__rewrap_rangeB7v160006IPNS_12basic_stringIcNS_11char_traitsIcEENS_9allocatorIcEEEES7_EET_S8_T0_, symObjAddr: 0xDC64, symBinAddr: 0x10001388C, symSize: 0x2C }
  - { offsetInCU: 0x2274E, offset: 0x2CC38, size: 0x8, addend: 0x0, symName: __ZNSt3__113__rewrap_iterB7v160006IPNS_12basic_stringIcNS_11char_traitsIcEENS_9allocatorIcEEEES7_NS_18__unwrap_iter_implIS7_Lb1EEEEET_SA_T0_, symObjAddr: 0xDC90, symBinAddr: 0x1000138B8, symSize: 0x3C }
  - { offsetInCU: 0x227F6, offset: 0x2CCE0, size: 0x8, addend: 0x0, symName: __ZNSt3__130__uninitialized_allocator_copyB7v160006INS_9allocatorINS_12basic_stringIcNS_11char_traitsIcEENS1_IcEEEEEEPS6_S8_S8_EET2_RT_T0_T1_S9_, symObjAddr: 0xDDB8, symBinAddr: 0x1000139E0, symSize: 0xF4 }
  - { offsetInCU: 0x22894, offset: 0x2CD7E, size: 0x8, addend: 0x0, symName: __ZNSt3__122__make_exception_guardB7v160006INS_29_AllocatorDestroyRangeReverseINS_9allocatorINS_12basic_stringIcNS_11char_traitsIcEENS2_IcEEEEEEPS7_EEEENS_28__exception_guard_exceptionsIT_EESC_, symObjAddr: 0xDEAC, symBinAddr: 0x100013AD4, symSize: 0x4C }
  - { offsetInCU: 0x228CA, offset: 0x2CDB4, size: 0x8, addend: 0x0, symName: __ZNSt3__119__allocator_destroyB7v160006INS_9allocatorINS_12basic_stringIcNS_11char_traitsIcEENS1_IcEEEEEENS_16reverse_iteratorIPS6_EESA_EEvRT_T0_T1_, symObjAddr: 0xE13C, symBinAddr: 0x100013D64, symSize: 0x70 }
  - { offsetInCU: 0x2292E, offset: 0x2CE18, size: 0x8, addend: 0x0, symName: __ZNSt3__18distanceB7v160006IP10ColumnTypeEENS_15iterator_traitsIT_E15difference_typeES4_S4_, symObjAddr: 0xE3DC, symBinAddr: 0x100014004, symSize: 0x2C }
  - { offsetInCU: 0x22971, offset: 0x2CE5B, size: 0x8, addend: 0x0, symName: __ZNSt3__14copyB7v160006IP10ColumnTypeS2_EET0_T_S4_S3_, symObjAddr: 0xE458, symBinAddr: 0x100014080, symSize: 0x40 }
  - { offsetInCU: 0x229CC, offset: 0x2CEB6, size: 0x8, addend: 0x0, symName: __ZNSt3__110__distanceB7v160006IP10ColumnTypeEENS_15iterator_traitsIT_E15difference_typeES4_S4_NS_26random_access_iterator_tagE, symObjAddr: 0xE65C, symBinAddr: 0x100014284, symSize: 0x20 }
  - { offsetInCU: 0x22A1A, offset: 0x2CF04, size: 0x8, addend: 0x0, symName: __ZNSt3__19__advanceB7v160006IP10ColumnTypeEEvRT_NS_15iterator_traitsIS3_E15difference_typeENS_26random_access_iterator_tagE, symObjAddr: 0xE67C, symBinAddr: 0x1000142A4, symSize: 0x28 }
  - { offsetInCU: 0x22A63, offset: 0x2CF4D, size: 0x8, addend: 0x0, symName: __ZNSt3__16__copyB7v160006INS_17_ClassicAlgPolicyEP10ColumnTypeS3_S3_EENS_4pairIT0_T2_EES5_T1_S6_, symObjAddr: 0xE6A4, symBinAddr: 0x1000142CC, symSize: 0x44 }
  - { offsetInCU: 0x22ACF, offset: 0x2CFB9, size: 0x8, addend: 0x0, symName: __ZNSt3__123__dispatch_copy_or_moveB7v160006INS_17_ClassicAlgPolicyENS_11__copy_loopIS1_EENS_14__copy_trivialEP10ColumnTypeS6_S6_EENS_4pairIT2_T4_EES8_T3_S9_, symObjAddr: 0xE6E8, symBinAddr: 0x100014310, symSize: 0x44 }
  - { offsetInCU: 0x22B4D, offset: 0x2D037, size: 0x8, addend: 0x0, symName: __ZNSt3__121__unwrap_and_dispatchB7v160006INS_10__overloadINS_11__copy_loopINS_17_ClassicAlgPolicyEEENS_14__copy_trivialEEEP10ColumnTypeS8_S8_Li0EEENS_4pairIT0_T2_EESA_T1_SB_, symObjAddr: 0xE72C, symBinAddr: 0x100014354, symSize: 0xB4 }
  - { offsetInCU: 0x22BDC, offset: 0x2D0C6, size: 0x8, addend: 0x0, symName: __ZNSt3__114__unwrap_rangeB7v160006IP10ColumnTypeS2_EENS_4pairIT0_S4_EET_S6_, symObjAddr: 0xE7E0, symBinAddr: 0x100014408, symSize: 0x60 }
  - { offsetInCU: 0x22DAF, offset: 0x2D299, size: 0x8, addend: 0x0, symName: __ZNSt3__113__unwrap_iterB7v160006IP10ColumnTypeNS_18__unwrap_iter_implIS2_Lb1EEELi0EEEDTclsrT0_8__unwrapclsr3stdE7declvalIT_EEEES6_, symObjAddr: 0xE888, symBinAddr: 0x1000144B0, symSize: 0x24 }
  - { offsetInCU: 0x22DF4, offset: 0x2D2DE, size: 0x8, addend: 0x0, symName: __ZNSt3__19make_pairB7v160006IP10ColumnTypeS2_EENS_4pairINS_18__unwrap_ref_decayIT_E4typeENS4_IT0_E4typeEEEOS5_OS8_, symObjAddr: 0xE8AC, symBinAddr: 0x1000144D4, symSize: 0x38 }
  - { offsetInCU: 0x22E43, offset: 0x2D32D, size: 0x8, addend: 0x0, symName: __ZNSt3__114__rewrap_rangeB7v160006IP10ColumnTypeS2_EET_S3_T0_, symObjAddr: 0xE8E4, symBinAddr: 0x10001450C, symSize: 0x2C }
  - { offsetInCU: 0x22E8F, offset: 0x2D379, size: 0x8, addend: 0x0, symName: __ZNSt3__113__rewrap_iterB7v160006IP10ColumnTypeS2_NS_18__unwrap_iter_implIS2_Lb1EEEEET_S5_T0_, symObjAddr: 0xE910, symBinAddr: 0x100014538, symSize: 0x3C }
  - { offsetInCU: 0x22EE4, offset: 0x2D3CE, size: 0x8, addend: 0x0, symName: __ZNSt3__119__copy_trivial_implB7v160006I10ColumnTypeS1_EENS_4pairIPT_PT0_EES4_S4_S6_, symObjAddr: 0xE94C, symBinAddr: 0x100014574, symSize: 0x7C }
  - { offsetInCU: 0x22F4C, offset: 0x2D436, size: 0x8, addend: 0x0, symName: __ZNSt3__19make_pairB7v160006IRP10ColumnTypeS2_EENS_4pairINS_18__unwrap_ref_decayIT_E4typeENS5_IT0_E4typeEEEOS6_OS9_, symObjAddr: 0xE9C8, symBinAddr: 0x1000145F0, symSize: 0x38 }
  - { offsetInCU: 0x22FEE, offset: 0x2D4D8, size: 0x8, addend: 0x0, symName: __ZNSt3__130__uninitialized_allocator_copyB7v160006INS_9allocatorI10ColumnTypeEEPS2_S4_S4_EET2_RT_T0_T1_S5_, symObjAddr: 0xEB4C, symBinAddr: 0x100014774, symSize: 0xF4 }
  - { offsetInCU: 0x2308C, offset: 0x2D576, size: 0x8, addend: 0x0, symName: __ZNSt3__122__make_exception_guardB7v160006INS_29_AllocatorDestroyRangeReverseINS_9allocatorI10ColumnTypeEEPS3_EEEENS_28__exception_guard_exceptionsIT_EES8_, symObjAddr: 0xEC40, symBinAddr: 0x100014868, symSize: 0x4C }
  - { offsetInCU: 0x230C2, offset: 0x2D5AC, size: 0x8, addend: 0x0, symName: __ZNSt3__119__allocator_destroyB7v160006INS_9allocatorI10ColumnTypeEENS_16reverse_iteratorIPS2_EES6_EEvRT_T0_T1_, symObjAddr: 0xEEC8, symBinAddr: 0x100014AF0, symSize: 0x70 }
  - { offsetInCU: 0x23126, offset: 0x2D610, size: 0x8, addend: 0x0, symName: __ZNSt3__112__to_addressB7v160006INS_16reverse_iteratorIP10ColumnTypeEEvEENS_5decayIDTclsr19__to_address_helperIT_EE6__callclsr3stdE7declvalIRKS6_EEEEE4typeES8_, symObjAddr: 0xEF38, symBinAddr: 0x100014B60, symSize: 0x24 }
  - { offsetInCU: 0x23187, offset: 0x2D671, size: 0x8, addend: 0x0, symName: __ZNSt3__18distanceB7v160006IPNS_6vectorINS_7variantIJidbNS_12basic_stringIcNS_11char_traitsIcEENS_9allocatorIcEEEEEEENS6_IS9_EEEEEENS_15iterator_traitsIT_E15difference_typeESE_SE_, symObjAddr: 0xF1E8, symBinAddr: 0x100014E10, symSize: 0x2C }
  - { offsetInCU: 0x231CA, offset: 0x2D6B4, size: 0x8, addend: 0x0, symName: __ZNSt3__14copyB7v160006IPNS_6vectorINS_7variantIJidbNS_12basic_stringIcNS_11char_traitsIcEENS_9allocatorIcEEEEEEENS6_IS9_EEEESC_EET0_T_SE_SD_, symObjAddr: 0xF2CC, symBinAddr: 0x100014EF4, symSize: 0x40 }
  - { offsetInCU: 0x23225, offset: 0x2D70F, size: 0x8, addend: 0x0, symName: __ZNSt3__125__debug_db_invalidate_allB7v160006INS_6vectorINS1_INS_7variantIJidbNS_12basic_stringIcNS_11char_traitsIcEENS_9allocatorIcEEEEEEENS6_IS9_EEEENS6_ISB_EEEEEEvPT_, symObjAddr: 0xF5EC, symBinAddr: 0x100015214, symSize: 0x10 }
  - { offsetInCU: 0x23256, offset: 0x2D740, size: 0x8, addend: 0x0, symName: __ZNSt3__110__distanceB7v160006IPNS_6vectorINS_7variantIJidbNS_12basic_stringIcNS_11char_traitsIcEENS_9allocatorIcEEEEEEENS6_IS9_EEEEEENS_15iterator_traitsIT_E15difference_typeESE_SE_NS_26random_access_iterator_tagE, symObjAddr: 0xF5FC, symBinAddr: 0x100015224, symSize: 0x28 }
  - { offsetInCU: 0x232A4, offset: 0x2D78E, size: 0x8, addend: 0x0, symName: __ZNSt3__19__advanceB7v160006IPNS_6vectorINS_7variantIJidbNS_12basic_stringIcNS_11char_traitsIcEENS_9allocatorIcEEEEEEENS6_IS9_EEEEEEvRT_NS_15iterator_traitsISD_E15difference_typeENS_26random_access_iterator_tagE, symObjAddr: 0xF684, symBinAddr: 0x1000152AC, symSize: 0x30 }
  - { offsetInCU: 0x232ED, offset: 0x2D7D7, size: 0x8, addend: 0x0, symName: __ZNSt3__16__copyB7v160006INS_17_ClassicAlgPolicyEPNS_6vectorINS_7variantIJidbNS_12basic_stringIcNS_11char_traitsIcEENS_9allocatorIcEEEEEEENS7_ISA_EEEESD_SD_EENS_4pairIT0_T2_EESF_T1_SG_, symObjAddr: 0xF6B4, symBinAddr: 0x1000152DC, symSize: 0x44 }
  - { offsetInCU: 0x23359, offset: 0x2D843, size: 0x8, addend: 0x0, symName: __ZNSt3__123__dispatch_copy_or_moveB7v160006INS_17_ClassicAlgPolicyENS_11__copy_loopIS1_EENS_14__copy_trivialEPNS_6vectorINS_7variantIJidbNS_12basic_stringIcNS_11char_traitsIcEENS_9allocatorIcEEEEEEENSA_ISD_EEEESG_SG_EENS_4pairIT2_T4_EESI_T3_SJ_, symObjAddr: 0xF6F8, symBinAddr: 0x100015320, symSize: 0x44 }
  - { offsetInCU: 0x233D7, offset: 0x2D8C1, size: 0x8, addend: 0x0, symName: __ZNSt3__121__unwrap_and_dispatchB7v160006INS_10__overloadINS_11__copy_loopINS_17_ClassicAlgPolicyEEENS_14__copy_trivialEEEPNS_6vectorINS_7variantIJidbNS_12basic_stringIcNS_11char_traitsIcEENS_9allocatorIcEEEEEEENSC_ISF_EEEESI_SI_Li0EEENS_4pairIT0_T2_EESK_T1_SL_, symObjAddr: 0xF73C, symBinAddr: 0x100015364, symSize: 0xB4 }
  - { offsetInCU: 0x23466, offset: 0x2D950, size: 0x8, addend: 0x0, symName: __ZNSt3__114__unwrap_rangeB7v160006IPNS_6vectorINS_7variantIJidbNS_12basic_stringIcNS_11char_traitsIcEENS_9allocatorIcEEEEEEENS6_IS9_EEEESC_EENS_4pairIT0_SE_EET_SG_, symObjAddr: 0xF7F0, symBinAddr: 0x100015418, symSize: 0x60 }
  - { offsetInCU: 0x23586, offset: 0x2DA70, size: 0x8, addend: 0x0, symName: __ZNSt3__113__unwrap_iterB7v160006IPNS_6vectorINS_7variantIJidbNS_12basic_stringIcNS_11char_traitsIcEENS_9allocatorIcEEEEEEENS6_IS9_EEEENS_18__unwrap_iter_implISC_Lb1EEELi0EEEDTclsrT0_8__unwrapclsr3stdE7declvalIT_EEEESG_, symObjAddr: 0xF8D8, symBinAddr: 0x100015500, symSize: 0x24 }
  - { offsetInCU: 0x235CB, offset: 0x2DAB5, size: 0x8, addend: 0x0, symName: __ZNSt3__19make_pairB7v160006IPNS_6vectorINS_7variantIJidbNS_12basic_stringIcNS_11char_traitsIcEENS_9allocatorIcEEEEEEENS6_IS9_EEEESC_EENS_4pairINS_18__unwrap_ref_decayIT_E4typeENSE_IT0_E4typeEEEOSF_OSI_, symObjAddr: 0xF8FC, symBinAddr: 0x100015524, symSize: 0x38 }
  - { offsetInCU: 0x2361A, offset: 0x2DB04, size: 0x8, addend: 0x0, symName: __ZNSt3__114__rewrap_rangeB7v160006IPNS_6vectorINS_7variantIJidbNS_12basic_stringIcNS_11char_traitsIcEENS_9allocatorIcEEEEEEENS6_IS9_EEEESC_EET_SD_T0_, symObjAddr: 0xF934, symBinAddr: 0x10001555C, symSize: 0x2C }
  - { offsetInCU: 0x23666, offset: 0x2DB50, size: 0x8, addend: 0x0, symName: __ZNSt3__113__rewrap_iterB7v160006IPNS_6vectorINS_7variantIJidbNS_12basic_stringIcNS_11char_traitsIcEENS_9allocatorIcEEEEEEENS6_IS9_EEEESC_NS_18__unwrap_iter_implISC_Lb1EEEEET_SF_T0_, symObjAddr: 0xF960, symBinAddr: 0x100015588, symSize: 0x3C }
  - { offsetInCU: 0x236BB, offset: 0x2DBA5, size: 0x8, addend: 0x0, symName: __ZNSt3__18distanceB7v160006IPNS_7variantIJidbNS_12basic_stringIcNS_11char_traitsIcEENS_9allocatorIcEEEEEEEEENS_15iterator_traitsIT_E15difference_typeESB_SB_, symObjAddr: 0xFBC0, symBinAddr: 0x1000157E8, symSize: 0x2C }
  - { offsetInCU: 0x236FE, offset: 0x2DBE8, size: 0x8, addend: 0x0, symName: __ZNSt3__14copyB7v160006IPNS_7variantIJidbNS_12basic_stringIcNS_11char_traitsIcEENS_9allocatorIcEEEEEEES9_EET0_T_SB_SA_, symObjAddr: 0xFCA4, symBinAddr: 0x1000158CC, symSize: 0x40 }
  - { offsetInCU: 0x23759, offset: 0x2DC43, size: 0x8, addend: 0x0, symName: __ZNSt3__125__debug_db_invalidate_allB7v160006INS_6vectorINS_7variantIJidbNS_12basic_stringIcNS_11char_traitsIcEENS_9allocatorIcEEEEEEENS6_IS9_EEEEEEvPT_, symObjAddr: 0xFFBC, symBinAddr: 0x100015BE4, symSize: 0x10 }
  - { offsetInCU: 0x2378A, offset: 0x2DC74, size: 0x8, addend: 0x0, symName: __ZNSt3__110__distanceB7v160006IPNS_7variantIJidbNS_12basic_stringIcNS_11char_traitsIcEENS_9allocatorIcEEEEEEEEENS_15iterator_traitsIT_E15difference_typeESB_SB_NS_26random_access_iterator_tagE, symObjAddr: 0xFFCC, symBinAddr: 0x100015BF4, symSize: 0x28 }
  - { offsetInCU: 0x237D8, offset: 0x2DCC2, size: 0x8, addend: 0x0, symName: __ZNSt3__19__advanceB7v160006IPNS_7variantIJidbNS_12basic_stringIcNS_11char_traitsIcEENS_9allocatorIcEEEEEEEEEvRT_NS_15iterator_traitsISA_E15difference_typeENS_26random_access_iterator_tagE, symObjAddr: 0x10054, symBinAddr: 0x100015C7C, symSize: 0x28 }
  - { offsetInCU: 0x23821, offset: 0x2DD0B, size: 0x8, addend: 0x0, symName: __ZNSt3__16__copyB7v160006INS_17_ClassicAlgPolicyEPNS_7variantIJidbNS_12basic_stringIcNS_11char_traitsIcEENS_9allocatorIcEEEEEEESA_SA_EENS_4pairIT0_T2_EESC_T1_SD_, symObjAddr: 0x1007C, symBinAddr: 0x100015CA4, symSize: 0x44 }
  - { offsetInCU: 0x2388D, offset: 0x2DD77, size: 0x8, addend: 0x0, symName: __ZNSt3__123__dispatch_copy_or_moveB7v160006INS_17_ClassicAlgPolicyENS_11__copy_loopIS1_EENS_14__copy_trivialEPNS_7variantIJidbNS_12basic_stringIcNS_11char_traitsIcEENS_9allocatorIcEEEEEEESD_SD_EENS_4pairIT2_T4_EESF_T3_SG_, symObjAddr: 0x100C0, symBinAddr: 0x100015CE8, symSize: 0x44 }
  - { offsetInCU: 0x2390B, offset: 0x2DDF5, size: 0x8, addend: 0x0, symName: __ZNSt3__121__unwrap_and_dispatchB7v160006INS_10__overloadINS_11__copy_loopINS_17_ClassicAlgPolicyEEENS_14__copy_trivialEEEPNS_7variantIJidbNS_12basic_stringIcNS_11char_traitsIcEENS_9allocatorIcEEEEEEESF_SF_Li0EEENS_4pairIT0_T2_EESH_T1_SI_, symObjAddr: 0x10104, symBinAddr: 0x100015D2C, symSize: 0xB4 }
  - { offsetInCU: 0x2399A, offset: 0x2DE84, size: 0x8, addend: 0x0, symName: __ZNSt3__114__unwrap_rangeB7v160006IPNS_7variantIJidbNS_12basic_stringIcNS_11char_traitsIcEENS_9allocatorIcEEEEEEES9_EENS_4pairIT0_SB_EET_SD_, symObjAddr: 0x101B8, symBinAddr: 0x100015DE0, symSize: 0x60 }
  - { offsetInCU: 0x23ABA, offset: 0x2DFA4, size: 0x8, addend: 0x0, symName: __ZNSt3__113__unwrap_iterB7v160006IPNS_7variantIJidbNS_12basic_stringIcNS_11char_traitsIcEENS_9allocatorIcEEEEEEENS_18__unwrap_iter_implIS9_Lb1EEELi0EEEDTclsrT0_8__unwrapclsr3stdE7declvalIT_EEEESD_, symObjAddr: 0x102A0, symBinAddr: 0x100015EC8, symSize: 0x24 }
  - { offsetInCU: 0x23AFF, offset: 0x2DFE9, size: 0x8, addend: 0x0, symName: __ZNSt3__19make_pairB7v160006IPNS_7variantIJidbNS_12basic_stringIcNS_11char_traitsIcEENS_9allocatorIcEEEEEEES9_EENS_4pairINS_18__unwrap_ref_decayIT_E4typeENSB_IT0_E4typeEEEOSC_OSF_, symObjAddr: 0x102C4, symBinAddr: 0x100015EEC, symSize: 0x38 }
  - { offsetInCU: 0x23B4E, offset: 0x2E038, size: 0x8, addend: 0x0, symName: __ZNSt3__114__rewrap_rangeB7v160006IPNS_7variantIJidbNS_12basic_stringIcNS_11char_traitsIcEENS_9allocatorIcEEEEEEES9_EET_SA_T0_, symObjAddr: 0x102FC, symBinAddr: 0x100015F24, symSize: 0x2C }
  - { offsetInCU: 0x23B9A, offset: 0x2E084, size: 0x8, addend: 0x0, symName: __ZNSt3__113__rewrap_iterB7v160006IPNS_7variantIJidbNS_12basic_stringIcNS_11char_traitsIcEENS_9allocatorIcEEEEEEES9_NS_18__unwrap_iter_implIS9_Lb1EEEEET_SC_T0_, symObjAddr: 0x10328, symBinAddr: 0x100015F50, symSize: 0x3C }
  - { offsetInCU: 0x23C35, offset: 0x2E11F, size: 0x8, addend: 0x0, symName: __ZNSt3__18__invokeB7v160006IZNS_16__variant_detail6__dtorINS1_8__traitsIJidbNS_12basic_stringIcNS_11char_traitsIcEENS_9allocatorIcEEEEEEELNS1_6_TraitE1EE9__destroyB7v160006EvEUlRT_E_JRNS1_5__altILm0EiEEEEEDTclclsr3stdE7declvalISD_EEspclsr3stdE7declvalIT0_EEEEOSD_DpOSJ_, symObjAddr: 0x1078C, symBinAddr: 0x1000163B4, symSize: 0x2C }
  - { offsetInCU: 0x23C84, offset: 0x2E16E, size: 0x8, addend: 0x0, symName: __ZNSt3__18__invokeB7v160006IZNS_16__variant_detail6__dtorINS1_8__traitsIJidbNS_12basic_stringIcNS_11char_traitsIcEENS_9allocatorIcEEEEEEELNS1_6_TraitE1EE9__destroyB7v160006EvEUlRT_E_JRNS1_5__altILm1EdEEEEEDTclclsr3stdE7declvalISD_EEspclsr3stdE7declvalIT0_EEEEOSD_DpOSJ_, symObjAddr: 0x10804, symBinAddr: 0x10001642C, symSize: 0x2C }
  - { offsetInCU: 0x23CD3, offset: 0x2E1BD, size: 0x8, addend: 0x0, symName: __ZNSt3__18__invokeB7v160006IZNS_16__variant_detail6__dtorINS1_8__traitsIJidbNS_12basic_stringIcNS_11char_traitsIcEENS_9allocatorIcEEEEEEELNS1_6_TraitE1EE9__destroyB7v160006EvEUlRT_E_JRNS1_5__altILm2EbEEEEEDTclclsr3stdE7declvalISD_EEspclsr3stdE7declvalIT0_EEEEOSD_DpOSJ_, symObjAddr: 0x108A0, symBinAddr: 0x1000164C8, symSize: 0x2C }
  - { offsetInCU: 0x23D22, offset: 0x2E20C, size: 0x8, addend: 0x0, symName: __ZNSt3__18__invokeB7v160006IZNS_16__variant_detail6__dtorINS1_8__traitsIJidbNS_12basic_stringIcNS_11char_traitsIcEENS_9allocatorIcEEEEEEELNS1_6_TraitE1EE9__destroyB7v160006EvEUlRT_E_JRNS1_5__altILm3ES9_EEEEEDTclclsr3stdE7declvalISD_EEspclsr3stdE7declvalIT0_EEEEOSD_DpOSJ_, symObjAddr: 0x10960, symBinAddr: 0x100016588, symSize: 0x2C }
  - { offsetInCU: 0x23DB7, offset: 0x2E2A1, size: 0x8, addend: 0x0, symName: __ZNSt3__18__invokeB7v160006IZNS_16__variant_detail12__assignmentINS1_8__traitsIJidbNS_12basic_stringIcNS_11char_traitsIcEENS_9allocatorIcEEEEEEEE16__generic_assignB7v160006IRKNS1_17__copy_assignmentISA_LNS1_6_TraitE1EEEEEvOT_EUlRSI_OT0_E_JRNS1_5__altILm0EiEERKSP_EEEDTclclsr3stdE7declvalISI_EEspclsr3stdE7declvalIT0_EEEESJ_DpOST_, symObjAddr: 0x10C58, symBinAddr: 0x100016880, symSize: 0x34 }
  - { offsetInCU: 0x23E1A, offset: 0x2E304, size: 0x8, addend: 0x0, symName: __ZNSt3__18__invokeB7v160006IZNS_16__variant_detail12__assignmentINS1_8__traitsIJidbNS_12basic_stringIcNS_11char_traitsIcEENS_9allocatorIcEEEEEEEE16__generic_assignB7v160006IRKNS1_17__copy_assignmentISA_LNS1_6_TraitE1EEEEEvOT_EUlRSI_OT0_E_JRNS1_5__altILm1EdEERKSP_EEEDTclclsr3stdE7declvalISI_EEspclsr3stdE7declvalIT0_EEEESJ_DpOST_, symObjAddr: 0x10E90, symBinAddr: 0x100016AB8, symSize: 0x34 }
  - { offsetInCU: 0x23E7D, offset: 0x2E367, size: 0x8, addend: 0x0, symName: __ZNSt3__18__invokeB7v160006IZNS_16__variant_detail12__assignmentINS1_8__traitsIJidbNS_12basic_stringIcNS_11char_traitsIcEENS_9allocatorIcEEEEEEEE16__generic_assignB7v160006IRKNS1_17__copy_assignmentISA_LNS1_6_TraitE1EEEEEvOT_EUlRSI_OT0_E_JRNS1_5__altILm2EbEERKSP_EEEDTclclsr3stdE7declvalISI_EEspclsr3stdE7declvalIT0_EEEESJ_DpOST_, symObjAddr: 0x110F0, symBinAddr: 0x100016D18, symSize: 0x34 }
  - { offsetInCU: 0x23EE0, offset: 0x2E3CA, size: 0x8, addend: 0x0, symName: __ZNSt3__18__invokeB7v160006IZNS_16__variant_detail12__assignmentINS1_8__traitsIJidbNS_12basic_stringIcNS_11char_traitsIcEENS_9allocatorIcEEEEEEEE16__generic_assignB7v160006IRKNS1_17__copy_assignmentISA_LNS1_6_TraitE1EEEEEvOT_EUlRSI_OT0_E_JRNS1_5__altILm3ES9_EERKSP_EEEDTclclsr3stdE7declvalISI_EEspclsr3stdE7declvalIT0_EEEESJ_DpOST_, symObjAddr: 0x1137C, symBinAddr: 0x100016FA4, symSize: 0x34 }
  - { offsetInCU: 0x23F97, offset: 0x2E481, size: 0x8, addend: 0x0, symName: __ZNSt3__112__to_addressB7v160006INS_7variantIJidbNS_12basic_stringIcNS_11char_traitsIcEENS_9allocatorIcEEEEEEEEEPT_SA_, symObjAddr: 0x11698, symBinAddr: 0x1000172C0, symSize: 0x14 }
  - { offsetInCU: 0x23FCB, offset: 0x2E4B5, size: 0x8, addend: 0x0, symName: __ZNSt3__130__uninitialized_allocator_copyB7v160006INS_9allocatorINS_7variantIJidbNS_12basic_stringIcNS_11char_traitsIcEENS1_IcEEEEEEEEEPS8_SA_SA_EET2_RT_T0_T1_SB_, symObjAddr: 0x117A8, symBinAddr: 0x1000173D0, symSize: 0xF4 }
  - { offsetInCU: 0x24069, offset: 0x2E553, size: 0x8, addend: 0x0, symName: __ZNSt3__122__make_exception_guardB7v160006INS_29_AllocatorDestroyRangeReverseINS_9allocatorINS_7variantIJidbNS_12basic_stringIcNS_11char_traitsIcEENS2_IcEEEEEEEEEPS9_EEEENS_28__exception_guard_exceptionsIT_EESE_, symObjAddr: 0x11934, symBinAddr: 0x10001755C, symSize: 0x4C }
  - { offsetInCU: 0x240E5, offset: 0x2E5CF, size: 0x8, addend: 0x0, symName: __ZNSt3__18__invokeB7v160006IZNS_16__variant_detail6__ctorINS1_8__traitsIJidbNS_12basic_stringIcNS_11char_traitsIcEENS_9allocatorIcEEEEEEEE19__generic_constructB7v160006IRKNS1_18__copy_constructorISA_LNS1_6_TraitE1EEEEEvRSB_OT_EUlRSJ_OT0_E_JRNS1_5__altILm0EiEERKSQ_EEEDTclclsr3stdE7declvalISJ_EEspclsr3stdE7declvalIT0_EEEESK_DpOSU_, symObjAddr: 0x1207C, symBinAddr: 0x100017CA4, symSize: 0x34 }
  - { offsetInCU: 0x24148, offset: 0x2E632, size: 0x8, addend: 0x0, symName: __ZNSt3__18__invokeB7v160006IZNS_16__variant_detail6__ctorINS1_8__traitsIJidbNS_12basic_stringIcNS_11char_traitsIcEENS_9allocatorIcEEEEEEEE19__generic_constructB7v160006IRKNS1_18__copy_constructorISA_LNS1_6_TraitE1EEEEEvRSB_OT_EUlRSJ_OT0_E_JRNS1_5__altILm1EdEERKSQ_EEEDTclclsr3stdE7declvalISJ_EEspclsr3stdE7declvalIT0_EEEESK_DpOSU_, symObjAddr: 0x120E0, symBinAddr: 0x100017D08, symSize: 0x34 }
  - { offsetInCU: 0x241AB, offset: 0x2E695, size: 0x8, addend: 0x0, symName: __ZNSt3__18__invokeB7v160006IZNS_16__variant_detail6__ctorINS1_8__traitsIJidbNS_12basic_stringIcNS_11char_traitsIcEENS_9allocatorIcEEEEEEEE19__generic_constructB7v160006IRKNS1_18__copy_constructorISA_LNS1_6_TraitE1EEEEEvRSB_OT_EUlRSJ_OT0_E_JRNS1_5__altILm2EbEERKSQ_EEEDTclclsr3stdE7declvalISJ_EEspclsr3stdE7declvalIT0_EEEESK_DpOSU_, symObjAddr: 0x12144, symBinAddr: 0x100017D6C, symSize: 0x34 }
  - { offsetInCU: 0x2420E, offset: 0x2E6F8, size: 0x8, addend: 0x0, symName: __ZNSt3__18__invokeB7v160006IZNS_16__variant_detail6__ctorINS1_8__traitsIJidbNS_12basic_stringIcNS_11char_traitsIcEENS_9allocatorIcEEEEEEEE19__generic_constructB7v160006IRKNS1_18__copy_constructorISA_LNS1_6_TraitE1EEEEEvRSB_OT_EUlRSJ_OT0_E_JRNS1_5__altILm3ES9_EERKSQ_EEEDTclclsr3stdE7declvalISJ_EEspclsr3stdE7declvalIT0_EEEESK_DpOSU_, symObjAddr: 0x121A8, symBinAddr: 0x100017DD0, symSize: 0x34 }
  - { offsetInCU: 0x24271, offset: 0x2E75B, size: 0x8, addend: 0x0, symName: __ZNSt3__119__allocator_destroyB7v160006INS_9allocatorINS_7variantIJidbNS_12basic_stringIcNS_11char_traitsIcEENS1_IcEEEEEEEEENS_16reverse_iteratorIPS8_EESC_EEvRT_T0_T1_, symObjAddr: 0x12454, symBinAddr: 0x10001807C, symSize: 0x70 }
  - { offsetInCU: 0x242D5, offset: 0x2E7BF, size: 0x8, addend: 0x0, symName: __ZNSt3__1neB7v160006IPNS_7variantIJidbNS_12basic_stringIcNS_11char_traitsIcEENS_9allocatorIcEEEEEEES9_EEbRKNS_16reverse_iteratorIT_EERKNSA_IT0_EE, symObjAddr: 0x124F8, symBinAddr: 0x100018120, symSize: 0x48 }
  - { offsetInCU: 0x24321, offset: 0x2E80B, size: 0x8, addend: 0x0, symName: __ZNSt3__112__to_addressB7v160006INS_16reverse_iteratorIPNS_7variantIJidbNS_12basic_stringIcNS_11char_traitsIcEENS_9allocatorIcEEEEEEEEEvEENS_5decayIDTclsr19__to_address_helperIT_EE6__callclsr3stdE7declvalIRKSD_EEEEE4typeESF_, symObjAddr: 0x1256C, symBinAddr: 0x100018194, symSize: 0x24 }
  - { offsetInCU: 0x24382, offset: 0x2E86C, size: 0x8, addend: 0x0, symName: __ZNSt3__119__allocate_at_leastB7v160006INS_9allocatorINS_7variantIJidbNS_12basic_stringIcNS_11char_traitsIcEENS1_IcEEEEEEEEEEENS_19__allocation_resultINS_16allocator_traitsIT_E7pointerEEERSC_m, symObjAddr: 0x12B90, symBinAddr: 0x1000187B8, symSize: 0x40 }
  - { offsetInCU: 0x24419, offset: 0x2E903, size: 0x8, addend: 0x0, symName: __ZNSt3__112__to_addressB7v160006INS_6vectorINS_7variantIJidbNS_12basic_stringIcNS_11char_traitsIcEENS_9allocatorIcEEEEEEENS6_IS9_EEEEEEPT_SD_, symObjAddr: 0x12D90, symBinAddr: 0x1000189B8, symSize: 0x14 }
  - { offsetInCU: 0x2444D, offset: 0x2E937, size: 0x8, addend: 0x0, symName: __ZNSt3__130__uninitialized_allocator_copyB7v160006INS_9allocatorINS_6vectorINS_7variantIJidbNS_12basic_stringIcNS_11char_traitsIcEENS1_IcEEEEEEENS1_IS9_EEEEEEPSB_SD_SD_EET2_RT_T0_T1_SE_, symObjAddr: 0x12EA8, symBinAddr: 0x100018AD0, symSize: 0xF4 }
  - { offsetInCU: 0x244EB, offset: 0x2E9D5, size: 0x8, addend: 0x0, symName: __ZNSt3__122__make_exception_guardB7v160006INS_29_AllocatorDestroyRangeReverseINS_9allocatorINS_6vectorINS_7variantIJidbNS_12basic_stringIcNS_11char_traitsIcEENS2_IcEEEEEEENS2_ISA_EEEEEEPSC_EEEENS_28__exception_guard_exceptionsIT_EESH_, symObjAddr: 0x1303C, symBinAddr: 0x100018C64, symSize: 0x4C }
  - { offsetInCU: 0x24521, offset: 0x2EA0B, size: 0x8, addend: 0x0, symName: __ZNSt3__122__make_exception_guardB7v160006INS_6vectorINS_7variantIJidbNS_12basic_stringIcNS_11char_traitsIcEENS_9allocatorIcEEEEEEENS6_IS9_EEE16__destroy_vectorEEENS_28__exception_guard_exceptionsIT_EESE_, symObjAddr: 0x133A8, symBinAddr: 0x100018FD0, symSize: 0x40 }
  - { offsetInCU: 0x24557, offset: 0x2EA41, size: 0x8, addend: 0x0, symName: __ZNSt3__119__debug_db_insert_cB7v160006INS_6vectorINS_7variantIJidbNS_12basic_stringIcNS_11char_traitsIcEENS_9allocatorIcEEEEEEENS6_IS9_EEEEEEvPT_, symObjAddr: 0x1341C, symBinAddr: 0x100019044, symSize: 0x10 }
  - { offsetInCU: 0x24588, offset: 0x2EA72, size: 0x8, addend: 0x0, symName: __ZNSt3__118__debug_db_erase_cB7v160006INS_6vectorINS_7variantIJidbNS_12basic_stringIcNS_11char_traitsIcEENS_9allocatorIcEEEEEEENS6_IS9_EEEEEEvPT_, symObjAddr: 0x13708, symBinAddr: 0x100019330, symSize: 0x10 }
  - { offsetInCU: 0x245B8, offset: 0x2EAA2, size: 0x8, addend: 0x0, symName: __ZNSt3__119__allocator_destroyB7v160006INS_9allocatorINS_6vectorINS_7variantIJidbNS_12basic_stringIcNS_11char_traitsIcEENS1_IcEEEEEEENS1_IS9_EEEEEENS_16reverse_iteratorIPSB_EESF_EEvRT_T0_T1_, symObjAddr: 0x137D0, symBinAddr: 0x1000193F8, symSize: 0x70 }
  - { offsetInCU: 0x2461C, offset: 0x2EB06, size: 0x8, addend: 0x0, symName: __ZNSt3__1neB7v160006IPNS_6vectorINS_7variantIJidbNS_12basic_stringIcNS_11char_traitsIcEENS_9allocatorIcEEEEEEENS6_IS9_EEEESC_EEbRKNS_16reverse_iteratorIT_EERKNSD_IT0_EE, symObjAddr: 0x13874, symBinAddr: 0x10001949C, symSize: 0x48 }
  - { offsetInCU: 0x24668, offset: 0x2EB52, size: 0x8, addend: 0x0, symName: __ZNSt3__112__to_addressB7v160006INS_16reverse_iteratorIPNS_6vectorINS_7variantIJidbNS_12basic_stringIcNS_11char_traitsIcEENS_9allocatorIcEEEEEEENS7_ISA_EEEEEEvEENS_5decayIDTclsr19__to_address_helperIT_EE6__callclsr3stdE7declvalIRKSG_EEEEE4typeESI_, symObjAddr: 0x138E8, symBinAddr: 0x100019510, symSize: 0x24 }
  - { offsetInCU: 0x246C9, offset: 0x2EBB3, size: 0x8, addend: 0x0, symName: __ZNSt3__119__allocate_at_leastB7v160006INS_9allocatorINS_6vectorINS_7variantIJidbNS_12basic_stringIcNS_11char_traitsIcEENS1_IcEEEEEEENS1_IS9_EEEEEEEENS_19__allocation_resultINS_16allocator_traitsIT_E7pointerEEERSF_m, symObjAddr: 0x13E68, symBinAddr: 0x100019A90, symSize: 0x40 }
  - { offsetInCU: 0x2470C, offset: 0x2EBF6, size: 0x8, addend: 0x0, symName: __ZNSt3__1neB7v160006ERKNS_21__hash_const_iteratorIPNS_11__hash_nodeINS_17__hash_value_typeINS_12basic_stringIcNS_11char_traitsIcEENS_9allocatorIcEEEENS_6vectorIjNS6_IjEEEEEEPvEEEESI_, symObjAddr: 0x14694, symBinAddr: 0x10001A2BC, symSize: 0x34 }
  - { offsetInCU: 0x2476E, offset: 0x2EC58, size: 0x8, addend: 0x0, symName: __ZNSt3__1eqB7v160006ERKNS_21__hash_const_iteratorIPNS_11__hash_nodeINS_17__hash_value_typeINS_12basic_stringIcNS_11char_traitsIcEENS_9allocatorIcEEEENS_6vectorIjNS6_IjEEEEEEPvEEEESI_, symObjAddr: 0x14AC4, symBinAddr: 0x10001A6EC, symSize: 0x30 }
  - { offsetInCU: 0x247DE, offset: 0x2ECC8, size: 0x8, addend: 0x0, symName: __ZNSt3__17launderB7v160006IKNS_4pairIKNS_12basic_stringIcNS_11char_traitsIcEENS_9allocatorIcEEEENS_6vectorIjNS5_IjEEEEEEEEPT_SF_, symObjAddr: 0x14BCC, symBinAddr: 0x10001A7F4, symSize: 0x24 }
  - { offsetInCU: 0x24816, offset: 0x2ED00, size: 0x8, addend: 0x0, symName: __ZNSt3__19__launderB7v160006IKNS_4pairIKNS_12basic_stringIcNS_11char_traitsIcEENS_9allocatorIcEEEENS_6vectorIjNS5_IjEEEEEEEEPT_SF_, symObjAddr: 0x14BF0, symBinAddr: 0x10001A818, symSize: 0x14 }
  - { offsetInCU: 0x2484D, offset: 0x2ED37, size: 0x8, addend: 0x0, symName: __ZNSt3__17launderB7v160006INS_4pairIKNS_12basic_stringIcNS_11char_traitsIcEENS_9allocatorIcEEEENS_6vectorIjNS5_IjEEEEEEEEPT_SE_, symObjAddr: 0x14C64, symBinAddr: 0x10001A88C, symSize: 0x24 }
  - { offsetInCU: 0x24885, offset: 0x2ED6F, size: 0x8, addend: 0x0, symName: __ZNSt3__19__launderB7v160006INS_4pairIKNS_12basic_stringIcNS_11char_traitsIcEENS_9allocatorIcEEEENS_6vectorIjNS5_IjEEEEEEEEPT_SE_, symObjAddr: 0x14C88, symBinAddr: 0x10001A8B0, symSize: 0x14 }
  - { offsetInCU: 0x248BC, offset: 0x2EDA6, size: 0x8, addend: 0x0, symName: __ZNSt3__13getB7v160006ILm0EKNS_12basic_stringIcNS_11char_traitsIcEENS_9allocatorIcEEEENS_6vectorIjNS4_IjEEEEEERKNS_13tuple_elementIXT_ENS_4pairIT0_T1_EEE4typeERKSF_, symObjAddr: 0x14CC8, symBinAddr: 0x10001A8F0, symSize: 0x24 }
  - { offsetInCU: 0x24905, offset: 0x2EDEF, size: 0x8, addend: 0x0, symName: __ZNSt3__13getB7v160006ILm1EKNS_12basic_stringIcNS_11char_traitsIcEENS_9allocatorIcEEEENS_6vectorIjNS4_IjEEEEEERKNS_13tuple_elementIXT_ENS_4pairIT0_T1_EEE4typeERKSF_, symObjAddr: 0x14CEC, symBinAddr: 0x10001A914, symSize: 0x24 }
  - { offsetInCU: 0x24A68, offset: 0x2EF52, size: 0x8, addend: 0x0, symName: __ZNSt3__18distanceB7v160006IPjEENS_15iterator_traitsIT_E15difference_typeES3_S3_, symObjAddr: 0x14F60, symBinAddr: 0x10001AB88, symSize: 0x2C }
  - { offsetInCU: 0x24AAB, offset: 0x2EF95, size: 0x8, addend: 0x0, symName: __ZNSt3__14copyB7v160006IPjS1_EET0_T_S3_S2_, symObjAddr: 0x15044, symBinAddr: 0x10001AC6C, symSize: 0x40 }
  - { offsetInCU: 0x24B06, offset: 0x2EFF0, size: 0x8, addend: 0x0, symName: __ZNSt3__125__debug_db_invalidate_allB7v160006INS_6vectorIjNS_9allocatorIjEEEEEEvPT_, symObjAddr: 0x1535C, symBinAddr: 0x10001AF84, symSize: 0x10 }
  - { offsetInCU: 0x24B37, offset: 0x2F021, size: 0x8, addend: 0x0, symName: __ZNSt3__110__distanceB7v160006IPjEENS_15iterator_traitsIT_E15difference_typeES3_S3_NS_26random_access_iterator_tagE, symObjAddr: 0x1536C, symBinAddr: 0x10001AF94, symSize: 0x28 }
  - { offsetInCU: 0x24B85, offset: 0x2F06F, size: 0x8, addend: 0x0, symName: __ZNSt3__19__advanceB7v160006IPjEEvRT_NS_15iterator_traitsIS2_E15difference_typeENS_26random_access_iterator_tagE, symObjAddr: 0x153F4, symBinAddr: 0x10001B01C, symSize: 0x28 }
  - { offsetInCU: 0x24BCE, offset: 0x2F0B8, size: 0x8, addend: 0x0, symName: __ZNSt3__16__copyB7v160006INS_17_ClassicAlgPolicyEPjS2_S2_EENS_4pairIT0_T2_EES4_T1_S5_, symObjAddr: 0x1541C, symBinAddr: 0x10001B044, symSize: 0x44 }
  - { offsetInCU: 0x24C3A, offset: 0x2F124, size: 0x8, addend: 0x0, symName: __ZNSt3__123__dispatch_copy_or_moveB7v160006INS_17_ClassicAlgPolicyENS_11__copy_loopIS1_EENS_14__copy_trivialEPjS5_S5_EENS_4pairIT2_T4_EES7_T3_S8_, symObjAddr: 0x15460, symBinAddr: 0x10001B088, symSize: 0x44 }
  - { offsetInCU: 0x24CB8, offset: 0x2F1A2, size: 0x8, addend: 0x0, symName: __ZNSt3__121__unwrap_and_dispatchB7v160006INS_10__overloadINS_11__copy_loopINS_17_ClassicAlgPolicyEEENS_14__copy_trivialEEEPjS7_S7_Li0EEENS_4pairIT0_T2_EES9_T1_SA_, symObjAddr: 0x154A4, symBinAddr: 0x10001B0CC, symSize: 0xB4 }
  - { offsetInCU: 0x24D47, offset: 0x2F231, size: 0x8, addend: 0x0, symName: __ZNSt3__114__unwrap_rangeB7v160006IPjS1_EENS_4pairIT0_S3_EET_S5_, symObjAddr: 0x15558, symBinAddr: 0x10001B180, symSize: 0x60 }
  - { offsetInCU: 0x24E96, offset: 0x2F380, size: 0x8, addend: 0x0, symName: __ZNSt3__113__unwrap_iterB7v160006IPjNS_18__unwrap_iter_implIS1_Lb1EEELi0EEEDTclsrT0_8__unwrapclsr3stdE7declvalIT_EEEES5_, symObjAddr: 0x15600, symBinAddr: 0x10001B228, symSize: 0x24 }
  - { offsetInCU: 0x24EDB, offset: 0x2F3C5, size: 0x8, addend: 0x0, symName: __ZNSt3__19make_pairB7v160006IPjS1_EENS_4pairINS_18__unwrap_ref_decayIT_E4typeENS3_IT0_E4typeEEEOS4_OS7_, symObjAddr: 0x15624, symBinAddr: 0x10001B24C, symSize: 0x38 }
  - { offsetInCU: 0x24F2A, offset: 0x2F414, size: 0x8, addend: 0x0, symName: __ZNSt3__114__rewrap_rangeB7v160006IPjS1_EET_S2_T0_, symObjAddr: 0x1565C, symBinAddr: 0x10001B284, symSize: 0x2C }
  - { offsetInCU: 0x24F76, offset: 0x2F460, size: 0x8, addend: 0x0, symName: __ZNSt3__113__rewrap_iterB7v160006IPjS1_NS_18__unwrap_iter_implIS1_Lb1EEEEET_S4_T0_, symObjAddr: 0x15688, symBinAddr: 0x10001B2B0, symSize: 0x3C }
  - { offsetInCU: 0x24FCB, offset: 0x2F4B5, size: 0x8, addend: 0x0, symName: __ZNSt3__119__copy_trivial_implB7v160006IjjEENS_4pairIPT_PT0_EES3_S3_S5_, symObjAddr: 0x156C4, symBinAddr: 0x10001B2EC, symSize: 0x84 }
  - { offsetInCU: 0x25033, offset: 0x2F51D, size: 0x8, addend: 0x0, symName: __ZNSt3__19make_pairB7v160006IRPjS1_EENS_4pairINS_18__unwrap_ref_decayIT_E4typeENS4_IT0_E4typeEEEOS5_OS8_, symObjAddr: 0x15748, symBinAddr: 0x10001B370, symSize: 0x38 }
  - { offsetInCU: 0x250D6, offset: 0x2F5C0, size: 0x8, addend: 0x0, symName: __ZNSt3__112__to_addressB7v160006IjEEPT_S2_, symObjAddr: 0x15814, symBinAddr: 0x10001B43C, symSize: 0x14 }
  - { offsetInCU: 0x2510A, offset: 0x2F5F4, size: 0x8, addend: 0x0, symName: __ZNSt3__130__uninitialized_allocator_copyB7v160006INS_9allocatorIjEEPjS3_S3_EET2_RT_T0_T1_S4_, symObjAddr: 0x15924, symBinAddr: 0x10001B54C, symSize: 0xF4 }
  - { offsetInCU: 0x251A8, offset: 0x2F692, size: 0x8, addend: 0x0, symName: __ZNSt3__122__make_exception_guardB7v160006INS_29_AllocatorDestroyRangeReverseINS_9allocatorIjEEPjEEEENS_28__exception_guard_exceptionsIT_EES7_, symObjAddr: 0x15AB0, symBinAddr: 0x10001B6D8, symSize: 0x4C }
  - { offsetInCU: 0x251DE, offset: 0x2F6C8, size: 0x8, addend: 0x0, symName: __ZNSt3__119__allocator_destroyB7v160006INS_9allocatorIjEENS_16reverse_iteratorIPjEES5_EEvRT_T0_T1_, symObjAddr: 0x15D38, symBinAddr: 0x10001B960, symSize: 0x70 }
  - { offsetInCU: 0x25242, offset: 0x2F72C, size: 0x8, addend: 0x0, symName: __ZNSt3__1neB7v160006IPjS1_EEbRKNS_16reverse_iteratorIT_EERKNS2_IT0_EE, symObjAddr: 0x15DDC, symBinAddr: 0x10001BA04, symSize: 0x48 }
  - { offsetInCU: 0x2528E, offset: 0x2F778, size: 0x8, addend: 0x0, symName: __ZNSt3__112__to_addressB7v160006INS_16reverse_iteratorIPjEEvEENS_5decayIDTclsr19__to_address_helperIT_EE6__callclsr3stdE7declvalIRKS5_EEEEE4typeES7_, symObjAddr: 0x15E50, symBinAddr: 0x10001BA78, symSize: 0x24 }
  - { offsetInCU: 0x252EF, offset: 0x2F7D9, size: 0x8, addend: 0x0, symName: __ZNSt3__119__allocate_at_leastB7v160006INS_9allocatorIjEEEENS_19__allocation_resultINS_16allocator_traitsIT_E7pointerEEERS5_m, symObjAddr: 0x1632C, symBinAddr: 0x10001BF54, symSize: 0x40 }
  - { offsetInCU: 0x25333, offset: 0x2F81D, size: 0x8, addend: 0x0, symName: __ZNSt3__125__debug_db_invalidate_allB7v160006INS_12__hash_tableINS_17__hash_value_typeINS_12basic_stringIcNS_11char_traitsIcEENS_9allocatorIcEEEENS_6vectorIjNS6_IjEEEEEENS_22__unordered_map_hasherIS8_SC_NS_4hashIS8_EENS_8equal_toIS8_EELb1EEENS_21__unordered_map_equalIS8_SC_SH_SF_Lb1EEENS6_ISC_EEEEEEvPT_, symObjAddr: 0x16F50, symBinAddr: 0x10001CB78, symSize: 0x10 }
  - { offsetInCU: 0x25364, offset: 0x2F84E, size: 0x8, addend: 0x0, symName: __ZNSt3__118__debug_db_erase_cB7v160006INS_6vectorIjNS_9allocatorIjEEEEEEvPT_, symObjAddr: 0x1761C, symBinAddr: 0x10001D244, symSize: 0x10 }
  - { offsetInCU: 0x253B2, offset: 0x2F89C, size: 0x8, addend: 0x0, symName: __ZNSt3__122__make_exception_guardB7v160006INS_6vectorIjNS_9allocatorIjEEE16__destroy_vectorEEENS_28__exception_guard_exceptionsIT_EES7_, symObjAddr: 0x17E6C, symBinAddr: 0x10001DA94, symSize: 0x40 }
  - { offsetInCU: 0x253E8, offset: 0x2F8D2, size: 0x8, addend: 0x0, symName: __ZNSt3__119__debug_db_insert_cB7v160006INS_6vectorIjNS_9allocatorIjEEEEEEvPT_, symObjAddr: 0x17EAC, symBinAddr: 0x10001DAD4, symSize: 0x10 }
  - { offsetInCU: 0x25418, offset: 0x2F902, size: 0x8, addend: 0x0, symName: __ZNSt3__1neB7v160006ERKNS_21__tree_const_iteratorINS_12__value_typeINS_7variantIJidbNS_12basic_stringIcNS_11char_traitsIcEENS_9allocatorIcEEEEEEENS_6vectorIjNS6_IjEEEEEEPNS_11__tree_nodeISD_PvEElEESK_, symObjAddr: 0x18678, symBinAddr: 0x10001E2A0, symSize: 0x34 }
  - { offsetInCU: 0x25456, offset: 0x2F940, size: 0x8, addend: 0x0, symName: __ZNSt3__1eqB7v160006ERKNS_21__tree_const_iteratorINS_12__value_typeINS_7variantIJidbNS_12basic_stringIcNS_11char_traitsIcEENS_9allocatorIcEEEEEEENS_6vectorIjNS6_IjEEEEEEPNS_11__tree_nodeISD_PvEElEESK_, symObjAddr: 0x189C8, symBinAddr: 0x10001E5F0, symSize: 0x30 }
  - { offsetInCU: 0x25493, offset: 0x2F97D, size: 0x8, addend: 0x0, symName: __ZNSt3__17launderB7v160006IKNS_4pairIKNS_7variantIJidbNS_12basic_stringIcNS_11char_traitsIcEENS_9allocatorIcEEEEEEENS_6vectorIjNS6_IjEEEEEEEEPT_SH_, symObjAddr: 0x18AD4, symBinAddr: 0x10001E6FC, symSize: 0x24 }
  - { offsetInCU: 0x254CB, offset: 0x2F9B5, size: 0x8, addend: 0x0, symName: __ZNSt3__19__launderB7v160006IKNS_4pairIKNS_7variantIJidbNS_12basic_stringIcNS_11char_traitsIcEENS_9allocatorIcEEEEEEENS_6vectorIjNS6_IjEEEEEEEEPT_SH_, symObjAddr: 0x18AF8, symBinAddr: 0x10001E720, symSize: 0x14 }
  - { offsetInCU: 0x25502, offset: 0x2F9EC, size: 0x8, addend: 0x0, symName: __ZNSt3__17launderB7v160006INS_4pairIKNS_7variantIJidbNS_12basic_stringIcNS_11char_traitsIcEENS_9allocatorIcEEEEEEENS_6vectorIjNS6_IjEEEEEEEEPT_SG_, symObjAddr: 0x18B6C, symBinAddr: 0x10001E794, symSize: 0x24 }
  - { offsetInCU: 0x2553A, offset: 0x2FA24, size: 0x8, addend: 0x0, symName: __ZNSt3__19__launderB7v160006INS_4pairIKNS_7variantIJidbNS_12basic_stringIcNS_11char_traitsIcEENS_9allocatorIcEEEEEEENS_6vectorIjNS6_IjEEEEEEEEPT_SG_, symObjAddr: 0x18B90, symBinAddr: 0x10001E7B8, symSize: 0x14 }
  - { offsetInCU: 0x25571, offset: 0x2FA5B, size: 0x8, addend: 0x0, symName: __ZNSt3__13getB7v160006ILm0EKNS_7variantIJidbNS_12basic_stringIcNS_11char_traitsIcEENS_9allocatorIcEEEEEEENS_6vectorIjNS5_IjEEEEEERKNS_13tuple_elementIXT_ENS_4pairIT0_T1_EEE4typeERKSH_, symObjAddr: 0x18BD0, symBinAddr: 0x10001E7F8, symSize: 0x24 }
  - { offsetInCU: 0x255BA, offset: 0x2FAA4, size: 0x8, addend: 0x0, symName: __ZNSt3__13getB7v160006ILm1EKNS_7variantIJidbNS_12basic_stringIcNS_11char_traitsIcEENS_9allocatorIcEEEEEEENS_6vectorIjNS5_IjEEEEEERKNS_13tuple_elementIXT_ENS_4pairIT0_T1_EEE4typeERKSH_, symObjAddr: 0x18BF4, symBinAddr: 0x10001E81C, symSize: 0x24 }
  - { offsetInCU: 0x25603, offset: 0x2FAED, size: 0x8, addend: 0x0, symName: __ZNSt3__1ltB7v160006IJidbNS_12basic_stringIcNS_11char_traitsIcEENS_9allocatorIcEEEEEEEbRKNS_7variantIJDpT_EEESC_, symObjAddr: 0x18F9C, symBinAddr: 0x10001EBC4, symSize: 0x118 }
  - { offsetInCU: 0x256A9, offset: 0x2FB93, size: 0x8, addend: 0x0, symName: __ZNSt3__18__invokeB7v160006INS_16__variant_detail12__visitation9__variant15__value_visitorINS_17__convert_to_boolINS_4lessIvEEEEEEJRKNS1_5__altILm0EiEESD_EEEDTclclsr3stdE7declvalIT_EEspclsr3stdE7declvalIT0_EEEEOSE_DpOSF_, symObjAddr: 0x193AC, symBinAddr: 0x10001EFD4, symSize: 0x38 }
  - { offsetInCU: 0x2570F, offset: 0x2FBF9, size: 0x8, addend: 0x0, symName: __ZNSt3__18__invokeB7v160006INS_17__convert_to_boolINS_4lessIvEEEEJRKiS6_EEEDTclclsr3stdE7declvalIT_EEspclsr3stdE7declvalIT0_EEEEOS7_DpOS8_, symObjAddr: 0x19430, symBinAddr: 0x10001F058, symSize: 0x38 }
  - { offsetInCU: 0x25775, offset: 0x2FC5F, size: 0x8, addend: 0x0, symName: __ZNSt3__18__invokeB7v160006INS_16__variant_detail12__visitation9__variant15__value_visitorINS_17__convert_to_boolINS_4lessIvEEEEEEJRKNS1_5__altILm1EdEESD_EEEDTclclsr3stdE7declvalIT_EEspclsr3stdE7declvalIT0_EEEEOSE_DpOSF_, symObjAddr: 0x194D4, symBinAddr: 0x10001F0FC, symSize: 0x38 }
  - { offsetInCU: 0x257DB, offset: 0x2FCC5, size: 0x8, addend: 0x0, symName: __ZNSt3__18__invokeB7v160006INS_17__convert_to_boolINS_4lessIvEEEEJRKdS6_EEEDTclclsr3stdE7declvalIT_EEspclsr3stdE7declvalIT0_EEEEOS7_DpOS8_, symObjAddr: 0x19558, symBinAddr: 0x10001F180, symSize: 0x38 }
  - { offsetInCU: 0x25841, offset: 0x2FD2B, size: 0x8, addend: 0x0, symName: __ZNSt3__18__invokeB7v160006INS_16__variant_detail12__visitation9__variant15__value_visitorINS_17__convert_to_boolINS_4lessIvEEEEEEJRKNS1_5__altILm2EbEESD_EEEDTclclsr3stdE7declvalIT_EEspclsr3stdE7declvalIT0_EEEEOSE_DpOSF_, symObjAddr: 0x195FC, symBinAddr: 0x10001F224, symSize: 0x38 }
  - { offsetInCU: 0x258A7, offset: 0x2FD91, size: 0x8, addend: 0x0, symName: __ZNSt3__18__invokeB7v160006INS_17__convert_to_boolINS_4lessIvEEEEJRKbS6_EEEDTclclsr3stdE7declvalIT_EEspclsr3stdE7declvalIT0_EEEEOS7_DpOS8_, symObjAddr: 0x19680, symBinAddr: 0x10001F2A8, symSize: 0x38 }
  - { offsetInCU: 0x2590D, offset: 0x2FDF7, size: 0x8, addend: 0x0, symName: __ZNSt3__18__invokeB7v160006INS_16__variant_detail12__visitation9__variant15__value_visitorINS_17__convert_to_boolINS_4lessIvEEEEEEJRKNS1_5__altILm3ENS_12basic_stringIcNS_11char_traitsIcEENS_9allocatorIcEEEEEESJ_EEEDTclclsr3stdE7declvalIT_EEspclsr3stdE7declvalIT0_EEEEOSK_DpOSL_, symObjAddr: 0x1972C, symBinAddr: 0x10001F354, symSize: 0x38 }
  - { offsetInCU: 0x25973, offset: 0x2FE5D, size: 0x8, addend: 0x0, symName: __ZNSt3__18__invokeB7v160006INS_17__convert_to_boolINS_4lessIvEEEEJRKNS_12basic_stringIcNS_11char_traitsIcEENS_9allocatorIcEEEESC_EEEDTclclsr3stdE7declvalIT_EEspclsr3stdE7declvalIT0_EEEEOSD_DpOSE_, symObjAddr: 0x197B0, symBinAddr: 0x10001F3D8, symSize: 0x38 }
  - { offsetInCU: 0x259D9, offset: 0x2FEC3, size: 0x8, addend: 0x0, symName: __ZNSt3__127__tree_balance_after_insertB7v160006IPNS_16__tree_node_baseIPvEEEEvT_S5_, symObjAddr: 0x19B10, symBinAddr: 0x10001F47C, symSize: 0x32C }
  - { offsetInCU: 0x25A59, offset: 0x2FF43, size: 0x8, addend: 0x0, symName: __ZNSt3__120__tree_is_left_childB7v160006IPNS_16__tree_node_baseIPvEEEEbT_, symObjAddr: 0x19E54, symBinAddr: 0x10001F7C0, symSize: 0x2C }
  - { offsetInCU: 0x25A8D, offset: 0x2FF77, size: 0x8, addend: 0x0, symName: __ZNSt3__118__tree_left_rotateB7v160006IPNS_16__tree_node_baseIPvEEEEvT_, symObjAddr: 0x19E80, symBinAddr: 0x10001F7EC, symSize: 0xD8 }
  - { offsetInCU: 0x25AD0, offset: 0x2FFBA, size: 0x8, addend: 0x0, symName: __ZNSt3__119__tree_right_rotateB7v160006IPNS_16__tree_node_baseIPvEEEEvT_, symObjAddr: 0x19F58, symBinAddr: 0x10001F8C4, symSize: 0xCC }
  - { offsetInCU: 0x25B14, offset: 0x2FFFE, size: 0x8, addend: 0x0, symName: __ZNSt3__111__tree_leafB7v160006IPNS_16__tree_node_baseIPvEEEET_S5_, symObjAddr: 0x1A154, symBinAddr: 0x10001FAC0, symSize: 0x70 }
  - { offsetInCU: 0x25B48, offset: 0x30032, size: 0x8, addend: 0x0, symName: __ZNSt3__116__tree_next_iterB7v160006IPNS_15__tree_end_nodeIPNS_16__tree_node_baseIPvEEEES5_EET_T0_, symObjAddr: 0x1A1C4, symBinAddr: 0x10001FB30, symSize: 0x80 }
  - { offsetInCU: 0x25B87, offset: 0x30071, size: 0x8, addend: 0x0, symName: __ZNSt3__110__tree_minB7v160006IPNS_16__tree_node_baseIPvEEEET_S5_, symObjAddr: 0x1A244, symBinAddr: 0x10001FBB0, symSize: 0x40 }
  - { offsetInCU: 0x25BD9, offset: 0x300C3, size: 0x8, addend: 0x0, symName: __ZNSt3__1eqB7v160006IPNS_12basic_stringIcNS_11char_traitsIcEENS_9allocatorIcEEEEEEbRKNS_11__wrap_iterIT_EESC_, symObjAddr: 0x1B61C, symBinAddr: 0x100020800, symSize: 0x48 }
  - { offsetInCU: 0x25C1D, offset: 0x30107, size: 0x8, addend: 0x0, symName: __ZNSt3__118__debug_db_erase_cB7v160006INS_12__hash_tableINS_17__hash_value_typeINS_12basic_stringIcNS_11char_traitsIcEENS_9allocatorIcEEEENS_6vectorIjNS6_IjEEEEEENS_22__unordered_map_hasherIS8_SC_NS_4hashIS8_EENS_8equal_toIS8_EELb1EEENS_21__unordered_map_equalIS8_SC_SH_SF_Lb1EEENS6_ISC_EEEEEEvPT_, symObjAddr: 0x1B91C, symBinAddr: 0x100020B00, symSize: 0x10 }
  - { offsetInCU: 0x25C4E, offset: 0x30138, size: 0x8, addend: 0x0, symName: __ZNSt3__118__debug_db_erase_cB7v160006INS_6vectorINS1_INS_7variantIJidbNS_12basic_stringIcNS_11char_traitsIcEENS_9allocatorIcEEEEEEENS6_IS9_EEEENS6_ISB_EEEEEEvPT_, symObjAddr: 0x1BBFC, symBinAddr: 0x100020DE0, symSize: 0x10 }
  - { offsetInCU: 0x25C7F, offset: 0x30169, size: 0x8, addend: 0x0, symName: __ZNSt3__118__debug_db_erase_cB7v160006INS_6vectorI10ColumnTypeNS_9allocatorIS2_EEEEEEvPT_, symObjAddr: 0x1BD40, symBinAddr: 0x100020F24, symSize: 0x10 }
  - { offsetInCU: 0x25CB0, offset: 0x3019A, size: 0x8, addend: 0x0, symName: __ZNSt3__118__debug_db_erase_cB7v160006INS_6vectorINS_12basic_stringIcNS_11char_traitsIcEENS_9allocatorIcEEEENS5_IS7_EEEEEEvPT_, symObjAddr: 0x1BE84, symBinAddr: 0x100021068, symSize: 0x10 }
  - { offsetInCU: 0x25CE0, offset: 0x301CA, size: 0x8, addend: 0x0, symName: __ZNSt3__17getlineB7v160006IcNS_11char_traitsIcEENS_9allocatorIcEEEERNS_13basic_istreamIT_T0_EES9_RNS_12basic_stringIS6_S7_T1_EES6_, symObjAddr: 0x1BE94, symBinAddr: 0x100021078, symSize: 0x234 }
  - { offsetInCU: 0x25D9E, offset: 0x30288, size: 0x8, addend: 0x0, symName: __ZNSt3__1neB7v160006ERKNS_19__hash_map_iteratorINS_15__hash_iteratorIPNS_11__hash_nodeINS_17__hash_value_typeINS_12basic_stringIcNS_11char_traitsIcEENS_9allocatorIcEEEE5TableEEPvEEEEEESI_, symObjAddr: 0x1C0F0, symBinAddr: 0x1000212D4, symSize: 0x30 }
  - { offsetInCU: 0x25DDB, offset: 0x302C5, size: 0x8, addend: 0x0, symName: __ZNSt3__1neB7v160006ERKNS_15__hash_iteratorIPNS_11__hash_nodeINS_17__hash_value_typeINS_12basic_stringIcNS_11char_traitsIcEENS_9allocatorIcEEEE5TableEEPvEEEESG_, symObjAddr: 0x1C14C, symBinAddr: 0x100021330, symSize: 0x34 }
  - { offsetInCU: 0x25E18, offset: 0x30302, size: 0x8, addend: 0x0, symName: __ZNSt3__142__uninitialized_allocator_move_if_noexceptB7v160006INS_9allocatorINS_6vectorINS_7variantIJidbNS_12basic_stringIcNS_11char_traitsIcEENS1_IcEEEEEEENS1_IS9_EEEEEENS_16reverse_iteratorIPSB_EESF_SF_EET2_RT_T0_T1_SG_, symObjAddr: 0x1CC30, symBinAddr: 0x100021E14, symSize: 0x11C }
  - { offsetInCU: 0x25EB9, offset: 0x303A3, size: 0x8, addend: 0x0, symName: __ZNSt3__14swapB7v160006IPNS_6vectorINS_7variantIJidbNS_12basic_stringIcNS_11char_traitsIcEENS_9allocatorIcEEEEEEENS6_IS9_EEEEEENS_9enable_ifIXaasr21is_move_constructibleIT_EE5valuesr18is_move_assignableISE_EE5valueEvE4typeERSE_SH_, symObjAddr: 0x1CD4C, symBinAddr: 0x100021F30, symSize: 0x3C }
  - { offsetInCU: 0x25F09, offset: 0x303F3, size: 0x8, addend: 0x0, symName: __ZNSt3__122__make_exception_guardB7v160006INS_29_AllocatorDestroyRangeReverseINS_9allocatorINS_6vectorINS_7variantIJidbNS_12basic_stringIcNS_11char_traitsIcEENS2_IcEEEEEEENS2_ISA_EEEEEENS_16reverse_iteratorIPSC_EEEEEENS_28__exception_guard_exceptionsIT_EESJ_, symObjAddr: 0x1CD88, symBinAddr: 0x100021F6C, symSize: 0x4C }
  - { offsetInCU: 0x25F40, offset: 0x3042A, size: 0x8, addend: 0x0, symName: __ZNSt3__115__debug_db_swapB7v160006INS_6vectorINS_7variantIJidbNS_12basic_stringIcNS_11char_traitsIcEENS_9allocatorIcEEEEEEENS6_IS9_EEEEEEvPT_SD_, symObjAddr: 0x1D070, symBinAddr: 0x100022254, symSize: 0x14 }
  - { offsetInCU: 0x25F7E, offset: 0x30468, size: 0x8, addend: 0x0, symName: __ZNSt3__119__allocator_destroyB7v160006INS_9allocatorINS_6vectorINS_7variantIJidbNS_12basic_stringIcNS_11char_traitsIcEENS1_IcEEEEEEENS1_IS9_EEEEEENS_16reverse_iteratorINSD_IPSB_EEEESG_EEvRT_T0_T1_, symObjAddr: 0x1D188, symBinAddr: 0x10002236C, symSize: 0x70 }
  - { offsetInCU: 0x25FE4, offset: 0x304CE, size: 0x8, addend: 0x0, symName: __ZNSt3__1neB7v160006INS_16reverse_iteratorIPNS_6vectorINS_7variantIJidbNS_12basic_stringIcNS_11char_traitsIcEENS_9allocatorIcEEEEEEENS7_ISA_EEEEEESE_EEbRKNS1_IT_EERKNS1_IT0_EE, symObjAddr: 0x1D234, symBinAddr: 0x100022418, symSize: 0x60 }
  - { offsetInCU: 0x26030, offset: 0x3051A, size: 0x8, addend: 0x0, symName: __ZNSt3__112__to_addressB7v160006INS_16reverse_iteratorINS1_IPNS_6vectorINS_7variantIJidbNS_12basic_stringIcNS_11char_traitsIcEENS_9allocatorIcEEEEEEENS7_ISA_EEEEEEEEvEENS_5decayIDTclsr19__to_address_helperIT_EE6__callclsr3stdE7declvalIRKSH_EEEEE4typeESJ_, symObjAddr: 0x1D294, symBinAddr: 0x100022478, symSize: 0x24 }
  - { offsetInCU: 0x26091, offset: 0x3057B, size: 0x8, addend: 0x0, symName: __ZNSt3__142__uninitialized_allocator_move_if_noexceptB7v160006INS_9allocatorINS_7variantIJidbNS_12basic_stringIcNS_11char_traitsIcEENS1_IcEEEEEEEEENS_16reverse_iteratorIPS8_EESC_SC_EET2_RT_T0_T1_SD_, symObjAddr: 0x1E12C, symBinAddr: 0x100023310, symSize: 0x11C }
  - { offsetInCU: 0x26132, offset: 0x3061C, size: 0x8, addend: 0x0, symName: __ZNSt3__14swapB7v160006IPNS_7variantIJidbNS_12basic_stringIcNS_11char_traitsIcEENS_9allocatorIcEEEEEEEEENS_9enable_ifIXaasr21is_move_constructibleIT_EE5valuesr18is_move_assignableISB_EE5valueEvE4typeERSB_SE_, symObjAddr: 0x1E248, symBinAddr: 0x10002342C, symSize: 0x3C }
  - { offsetInCU: 0x26182, offset: 0x3066C, size: 0x8, addend: 0x0, symName: __ZNSt3__122__make_exception_guardB7v160006INS_29_AllocatorDestroyRangeReverseINS_9allocatorINS_7variantIJidbNS_12basic_stringIcNS_11char_traitsIcEENS2_IcEEEEEEEEENS_16reverse_iteratorIPS9_EEEEEENS_28__exception_guard_exceptionsIT_EESG_, symObjAddr: 0x1E284, symBinAddr: 0x100023468, symSize: 0x4C }
  - { offsetInCU: 0x26209, offset: 0x306F3, size: 0x8, addend: 0x0, symName: __ZNSt3__18__invokeB7v160006IZNS_16__variant_detail6__ctorINS1_8__traitsIJidbNS_12basic_stringIcNS_11char_traitsIcEENS_9allocatorIcEEEEEEEE19__generic_constructB7v160006INS1_18__move_constructorISA_LNS1_6_TraitE1EEEEEvRSB_OT_EUlRSH_OT0_E_JRNS1_5__altILm0EiEESO_EEEDTclclsr3stdE7declvalISH_EEspclsr3stdE7declvalIT0_EEEESI_DpOSQ_, symObjAddr: 0x1E8A0, symBinAddr: 0x100023A84, symSize: 0x34 }
  - { offsetInCU: 0x2626C, offset: 0x30756, size: 0x8, addend: 0x0, symName: __ZNSt3__18__invokeB7v160006IZNS_16__variant_detail6__ctorINS1_8__traitsIJidbNS_12basic_stringIcNS_11char_traitsIcEENS_9allocatorIcEEEEEEEE19__generic_constructB7v160006INS1_18__move_constructorISA_LNS1_6_TraitE1EEEEEvRSB_OT_EUlRSH_OT0_E_JRNS1_5__altILm1EdEESO_EEEDTclclsr3stdE7declvalISH_EEspclsr3stdE7declvalIT0_EEEESI_DpOSQ_, symObjAddr: 0x1E9C4, symBinAddr: 0x100023BA8, symSize: 0x34 }
  - { offsetInCU: 0x262CF, offset: 0x307B9, size: 0x8, addend: 0x0, symName: __ZNSt3__18__invokeB7v160006IZNS_16__variant_detail6__ctorINS1_8__traitsIJidbNS_12basic_stringIcNS_11char_traitsIcEENS_9allocatorIcEEEEEEEE19__generic_constructB7v160006INS1_18__move_constructorISA_LNS1_6_TraitE1EEEEEvRSB_OT_EUlRSH_OT0_E_JRNS1_5__altILm2EbEESO_EEEDTclclsr3stdE7declvalISH_EEspclsr3stdE7declvalIT0_EEEESI_DpOSQ_, symObjAddr: 0x1EB0C, symBinAddr: 0x100023CF0, symSize: 0x34 }
  - { offsetInCU: 0x26332, offset: 0x3081C, size: 0x8, addend: 0x0, symName: __ZNSt3__18__invokeB7v160006IZNS_16__variant_detail6__ctorINS1_8__traitsIJidbNS_12basic_stringIcNS_11char_traitsIcEENS_9allocatorIcEEEEEEEE19__generic_constructB7v160006INS1_18__move_constructorISA_LNS1_6_TraitE1EEEEEvRSB_OT_EUlRSH_OT0_E_JRNS1_5__altILm3ES9_EESO_EEEDTclclsr3stdE7declvalISH_EEspclsr3stdE7declvalIT0_EEEESI_DpOSQ_, symObjAddr: 0x1EC7C, symBinAddr: 0x100023E60, symSize: 0x34 }
  - { offsetInCU: 0x26395, offset: 0x3087F, size: 0x8, addend: 0x0, symName: __ZNSt3__119__allocator_destroyB7v160006INS_9allocatorINS_7variantIJidbNS_12basic_stringIcNS_11char_traitsIcEENS1_IcEEEEEEEEENS_16reverse_iteratorINSA_IPS8_EEEESD_EEvRT_T0_T1_, symObjAddr: 0x1EE88, symBinAddr: 0x10002406C, symSize: 0x70 }
  - { offsetInCU: 0x263FB, offset: 0x308E5, size: 0x8, addend: 0x0, symName: __ZNSt3__1neB7v160006INS_16reverse_iteratorIPNS_7variantIJidbNS_12basic_stringIcNS_11char_traitsIcEENS_9allocatorIcEEEEEEEEESB_EEbRKNS1_IT_EERKNS1_IT0_EE, symObjAddr: 0x1EF34, symBinAddr: 0x100024118, symSize: 0x60 }
  - { offsetInCU: 0x26447, offset: 0x30931, size: 0x8, addend: 0x0, symName: __ZNSt3__112__to_addressB7v160006INS_16reverse_iteratorINS1_IPNS_7variantIJidbNS_12basic_stringIcNS_11char_traitsIcEENS_9allocatorIcEEEEEEEEEEEvEENS_5decayIDTclsr19__to_address_helperIT_EE6__callclsr3stdE7declvalIRKSE_EEEEE4typeESG_, symObjAddr: 0x1EF94, symBinAddr: 0x100024178, symSize: 0x24 }
  - { offsetInCU: 0x264A8, offset: 0x30992, size: 0x8, addend: 0x0, symName: __ZNSt3__14findB7v160006INS_11__wrap_iterIPNS_12basic_stringIcNS_11char_traitsIcEENS_9allocatorIcEEEEEES7_EET_SA_SA_RKT0_, symObjAddr: 0x20528, symBinAddr: 0x10002570C, symSize: 0x74 }
  - { offsetInCU: 0x26502, offset: 0x309EC, size: 0x8, addend: 0x0, symName: __ZNSt3__18distanceB7v160006INS_11__wrap_iterIPNS_12basic_stringIcNS_11char_traitsIcEENS_9allocatorIcEEEEEEEENS_15iterator_traitsIT_E15difference_typeESB_SB_, symObjAddr: 0x2059C, symBinAddr: 0x100025780, symSize: 0x3C }
  - { offsetInCU: 0x26545, offset: 0x30A2F, size: 0x8, addend: 0x0, symName: __ZNSt3__13getB7v160006INS_12basic_stringIcNS_11char_traitsIcEENS_9allocatorIcEEEEJidbS6_EEERT_RNS_7variantIJDpT0_EEE, symObjAddr: 0x20830, symBinAddr: 0x100025A14, symSize: 0x24 }
  - { offsetInCU: 0x26597, offset: 0x30A81, size: 0x8, addend: 0x0, symName: __ZNSt3__1neB7v160006ERKNS_19__hash_map_iteratorINS_15__hash_iteratorIPNS_11__hash_nodeINS_17__hash_value_typeINS_12basic_stringIcNS_11char_traitsIcEENS_9allocatorIcEEEENS_6vectorIjNS7_IjEEEEEEPvEEEEEESK_, symObjAddr: 0x20854, symBinAddr: 0x100025A38, symSize: 0x30 }
  - { offsetInCU: 0x265D4, offset: 0x30ABE, size: 0x8, addend: 0x0, symName: __ZNSt3__1neB7v160006ERKNS_14__map_iteratorINS_15__tree_iteratorINS_12__value_typeINS_7variantIJidbNS_12basic_stringIcNS_11char_traitsIcEENS_9allocatorIcEEEEEEENS_6vectorIjNS7_IjEEEEEEPNS_11__tree_nodeISE_PvEElEEEESM_, symObjAddr: 0x20928, symBinAddr: 0x100025B0C, symSize: 0x30 }
  - { offsetInCU: 0x26611, offset: 0x30AFB, size: 0x8, addend: 0x0, symName: __ZNSt3__1eqB7v160006IJidbNS_12basic_stringIcNS_11char_traitsIcEENS_9allocatorIcEEEEEEEbRKNS_7variantIJDpT_EEESC_, symObjAddr: 0x20A0C, symBinAddr: 0x100025BF0, symSize: 0xB4 }
  - { offsetInCU: 0x26671, offset: 0x30B5B, size: 0x8, addend: 0x0, symName: __ZNSt3__1gtB7v160006IJidbNS_12basic_stringIcNS_11char_traitsIcEENS_9allocatorIcEEEEEEEbRKNS_7variantIJDpT_EEESC_, symObjAddr: 0x20AC0, symBinAddr: 0x100025CA4, symSize: 0x118 }
  - { offsetInCU: 0x266D1, offset: 0x30BBB, size: 0x8, addend: 0x0, symName: __ZNSt3__1neB7v160006IPjEEbRKNS_11__wrap_iterIT_EES6_, symObjAddr: 0x20CA4, symBinAddr: 0x100025E88, symSize: 0x34 }
  - { offsetInCU: 0x26714, offset: 0x30BFE, size: 0x8, addend: 0x0, symName: __ZNSt3__15visitB7v160006IZN5Silly5printEvEUlRKT_E_JRNS_7variantIJidbNS_12basic_stringIcNS_11char_traitsIcEENS_9allocatorIcEEEEEEEEvEEDcOS2_DpOT0_, symObjAddr: 0x20CF0, symBinAddr: 0x100025ED4, symSize: 0x34 }
  - { offsetInCU: 0x2676D, offset: 0x30C57, size: 0x8, addend: 0x0, symName: __ZNSt3__110__distanceB7v160006INS_11__wrap_iterIPNS_12basic_stringIcNS_11char_traitsIcEENS_9allocatorIcEEEEEEEENS_15iterator_traitsIT_E15difference_typeESB_SB_NS_26random_access_iterator_tagE, symObjAddr: 0x20DA8, symBinAddr: 0x100025F8C, symSize: 0x30 }
  - { offsetInCU: 0x267BB, offset: 0x30CA5, size: 0x8, addend: 0x0, symName: __ZNSt3__1miB7v160006IPNS_12basic_stringIcNS_11char_traitsIcEENS_9allocatorIcEEEES7_EEDTmicldtfp_4baseEcldtfp0_4baseEERKNS_11__wrap_iterIT_EERKNS9_IT0_EE, symObjAddr: 0x20DD8, symBinAddr: 0x100025FBC, symSize: 0x48 }
  - { offsetInCU: 0x26807, offset: 0x30CF1, size: 0x8, addend: 0x0, symName: __ZNSt3__13getB7v160006ILm3EJidbNS_12basic_stringIcNS_11char_traitsIcEENS_9allocatorIcEEEEEEERNS_19variant_alternativeIXT_ENS_7variantIJDpT0_EEEE4typeERSB_, symObjAddr: 0x21D44, symBinAddr: 0x100026F28, symSize: 0x24 }
  - { offsetInCU: 0x2685A, offset: 0x30D44, size: 0x8, addend: 0x0, symName: __ZNSt3__113__generic_getB7v160006ILm3ERNS_7variantIJidbNS_12basic_stringIcNS_11char_traitsIcEENS_9allocatorIcEEEEEEEEEODaOT0_, symObjAddr: 0x21D68, symBinAddr: 0x100026F4C, symSize: 0x38 }
  - { offsetInCU: 0x268A3, offset: 0x30D8D, size: 0x8, addend: 0x0, symName: __ZNSt3__119__holds_alternativeB7v160006ILm3EJidbNS_12basic_stringIcNS_11char_traitsIcEENS_9allocatorIcEEEEEEEbRKNS_7variantIJDpT0_EEE, symObjAddr: 0x21DA0, symBinAddr: 0x100026F84, symSize: 0x30 }
  - { offsetInCU: 0x268F7, offset: 0x30DE1, size: 0x8, addend: 0x0, symName: __ZNSt3__126__throw_bad_variant_accessB7v160006Ev, symObjAddr: 0x21DD0, symBinAddr: 0x100026FB4, symSize: 0x38 }
  - { offsetInCU: 0x26911, offset: 0x30DFB, size: 0x8, addend: 0x0, symName: __ZNSt3__1neB7v160006ERKNS_15__hash_iteratorIPNS_11__hash_nodeINS_17__hash_value_typeINS_12basic_stringIcNS_11char_traitsIcEENS_9allocatorIcEEEENS_6vectorIjNS6_IjEEEEEEPvEEEESI_, symObjAddr: 0x21F18, symBinAddr: 0x1000270FC, symSize: 0x34 }
  - { offsetInCU: 0x2694F, offset: 0x30E39, size: 0x8, addend: 0x0, symName: __ZNSt3__1eqB7v160006ERKNS_15__hash_iteratorIPNS_11__hash_nodeINS_17__hash_value_typeINS_12basic_stringIcNS_11char_traitsIcEENS_9allocatorIcEEEENS_6vectorIjNS6_IjEEEEEEPvEEEESI_, symObjAddr: 0x21F4C, symBinAddr: 0x100027130, symSize: 0x30 }
  - { offsetInCU: 0x269F2, offset: 0x30EDC, size: 0x8, addend: 0x0, symName: __ZNSt3__1neB7v160006ERKNS_15__tree_iteratorINS_12__value_typeINS_7variantIJidbNS_12basic_stringIcNS_11char_traitsIcEENS_9allocatorIcEEEEEEENS_6vectorIjNS6_IjEEEEEEPNS_11__tree_nodeISD_PvEElEESK_, symObjAddr: 0x221A4, symBinAddr: 0x100027388, symSize: 0x34 }
  - { offsetInCU: 0x26A30, offset: 0x30F1A, size: 0x8, addend: 0x0, symName: __ZNSt3__1eqB7v160006ERKNS_15__tree_iteratorINS_12__value_typeINS_7variantIJidbNS_12basic_stringIcNS_11char_traitsIcEENS_9allocatorIcEEEEEEENS_6vectorIjNS6_IjEEEEEEPNS_11__tree_nodeISD_PvEElEESK_, symObjAddr: 0x222D0, symBinAddr: 0x1000274B4, symSize: 0x30 }
  - { offsetInCU: 0x26B19, offset: 0x31003, size: 0x8, addend: 0x0, symName: __ZNSt3__18__invokeB7v160006INS_16__variant_detail12__visitation9__variant15__value_visitorINS_17__convert_to_boolINS_8equal_toIvEEEEEEJRKNS1_5__altILm0EiEESD_EEEDTclclsr3stdE7declvalIT_EEspclsr3stdE7declvalIT0_EEEEOSE_DpOSF_, symObjAddr: 0x22638, symBinAddr: 0x10002781C, symSize: 0x38 }
  - { offsetInCU: 0x26B7F, offset: 0x31069, size: 0x8, addend: 0x0, symName: __ZNSt3__18__invokeB7v160006INS_17__convert_to_boolINS_8equal_toIvEEEEJRKiS6_EEEDTclclsr3stdE7declvalIT_EEspclsr3stdE7declvalIT0_EEEEOS7_DpOS8_, symObjAddr: 0x226BC, symBinAddr: 0x1000278A0, symSize: 0x38 }
  - { offsetInCU: 0x26BE5, offset: 0x310CF, size: 0x8, addend: 0x0, symName: __ZNSt3__18__invokeB7v160006INS_16__variant_detail12__visitation9__variant15__value_visitorINS_17__convert_to_boolINS_8equal_toIvEEEEEEJRKNS1_5__altILm1EdEESD_EEEDTclclsr3stdE7declvalIT_EEspclsr3stdE7declvalIT0_EEEEOSE_DpOSF_, symObjAddr: 0x22760, symBinAddr: 0x100027944, symSize: 0x38 }
  - { offsetInCU: 0x26C4B, offset: 0x31135, size: 0x8, addend: 0x0, symName: __ZNSt3__18__invokeB7v160006INS_17__convert_to_boolINS_8equal_toIvEEEEJRKdS6_EEEDTclclsr3stdE7declvalIT_EEspclsr3stdE7declvalIT0_EEEEOS7_DpOS8_, symObjAddr: 0x227E4, symBinAddr: 0x1000279C8, symSize: 0x38 }
  - { offsetInCU: 0x26CB1, offset: 0x3119B, size: 0x8, addend: 0x0, symName: __ZNSt3__18__invokeB7v160006INS_16__variant_detail12__visitation9__variant15__value_visitorINS_17__convert_to_boolINS_8equal_toIvEEEEEEJRKNS1_5__altILm2EbEESD_EEEDTclclsr3stdE7declvalIT_EEspclsr3stdE7declvalIT0_EEEEOSE_DpOSF_, symObjAddr: 0x22888, symBinAddr: 0x100027A6C, symSize: 0x38 }
  - { offsetInCU: 0x26D17, offset: 0x31201, size: 0x8, addend: 0x0, symName: __ZNSt3__18__invokeB7v160006INS_17__convert_to_boolINS_8equal_toIvEEEEJRKbS6_EEEDTclclsr3stdE7declvalIT_EEspclsr3stdE7declvalIT0_EEEEOS7_DpOS8_, symObjAddr: 0x2290C, symBinAddr: 0x100027AF0, symSize: 0x38 }
  - { offsetInCU: 0x26D7D, offset: 0x31267, size: 0x8, addend: 0x0, symName: __ZNSt3__18__invokeB7v160006INS_16__variant_detail12__visitation9__variant15__value_visitorINS_17__convert_to_boolINS_8equal_toIvEEEEEEJRKNS1_5__altILm3ENS_12basic_stringIcNS_11char_traitsIcEENS_9allocatorIcEEEEEESJ_EEEDTclclsr3stdE7declvalIT_EEspclsr3stdE7declvalIT0_EEEEOSK_DpOSL_, symObjAddr: 0x229B8, symBinAddr: 0x100027B9C, symSize: 0x38 }
  - { offsetInCU: 0x26DE3, offset: 0x312CD, size: 0x8, addend: 0x0, symName: __ZNSt3__18__invokeB7v160006INS_17__convert_to_boolINS_8equal_toIvEEEEJRKNS_12basic_stringIcNS_11char_traitsIcEENS_9allocatorIcEEEESC_EEEDTclclsr3stdE7declvalIT_EEspclsr3stdE7declvalIT0_EEEEOSD_DpOSE_, symObjAddr: 0x22A3C, symBinAddr: 0x100027C20, symSize: 0x38 }
  - { offsetInCU: 0x26E8F, offset: 0x31379, size: 0x8, addend: 0x0, symName: __ZNSt3__18__invokeB7v160006INS_16__variant_detail12__visitation9__variant15__value_visitorINS_17__convert_to_boolINS_7greaterIvEEEEEEJRKNS1_5__altILm0EiEESD_EEEDTclclsr3stdE7declvalIT_EEspclsr3stdE7declvalIT0_EEEEOSE_DpOSF_, symObjAddr: 0x22D8C, symBinAddr: 0x100027F70, symSize: 0x38 }
  - { offsetInCU: 0x26EF5, offset: 0x313DF, size: 0x8, addend: 0x0, symName: __ZNSt3__18__invokeB7v160006INS_17__convert_to_boolINS_7greaterIvEEEEJRKiS6_EEEDTclclsr3stdE7declvalIT_EEspclsr3stdE7declvalIT0_EEEEOS7_DpOS8_, symObjAddr: 0x22E10, symBinAddr: 0x100027FF4, symSize: 0x38 }
  - { offsetInCU: 0x26F5B, offset: 0x31445, size: 0x8, addend: 0x0, symName: __ZNSt3__18__invokeB7v160006INS_16__variant_detail12__visitation9__variant15__value_visitorINS_17__convert_to_boolINS_7greaterIvEEEEEEJRKNS1_5__altILm1EdEESD_EEEDTclclsr3stdE7declvalIT_EEspclsr3stdE7declvalIT0_EEEEOSE_DpOSF_, symObjAddr: 0x22EB4, symBinAddr: 0x100028098, symSize: 0x38 }
  - { offsetInCU: 0x26FC1, offset: 0x314AB, size: 0x8, addend: 0x0, symName: __ZNSt3__18__invokeB7v160006INS_17__convert_to_boolINS_7greaterIvEEEEJRKdS6_EEEDTclclsr3stdE7declvalIT_EEspclsr3stdE7declvalIT0_EEEEOS7_DpOS8_, symObjAddr: 0x22F38, symBinAddr: 0x10002811C, symSize: 0x38 }
  - { offsetInCU: 0x27027, offset: 0x31511, size: 0x8, addend: 0x0, symName: __ZNSt3__18__invokeB7v160006INS_16__variant_detail12__visitation9__variant15__value_visitorINS_17__convert_to_boolINS_7greaterIvEEEEEEJRKNS1_5__altILm2EbEESD_EEEDTclclsr3stdE7declvalIT_EEspclsr3stdE7declvalIT0_EEEEOSE_DpOSF_, symObjAddr: 0x22FDC, symBinAddr: 0x1000281C0, symSize: 0x38 }
  - { offsetInCU: 0x2708D, offset: 0x31577, size: 0x8, addend: 0x0, symName: __ZNSt3__18__invokeB7v160006INS_17__convert_to_boolINS_7greaterIvEEEEJRKbS6_EEEDTclclsr3stdE7declvalIT_EEspclsr3stdE7declvalIT0_EEEEOS7_DpOS8_, symObjAddr: 0x23060, symBinAddr: 0x100028244, symSize: 0x38 }
  - { offsetInCU: 0x270F3, offset: 0x315DD, size: 0x8, addend: 0x0, symName: __ZNSt3__18__invokeB7v160006INS_16__variant_detail12__visitation9__variant15__value_visitorINS_17__convert_to_boolINS_7greaterIvEEEEEEJRKNS1_5__altILm3ENS_12basic_stringIcNS_11char_traitsIcEENS_9allocatorIcEEEEEESJ_EEEDTclclsr3stdE7declvalIT_EEspclsr3stdE7declvalIT0_EEEEOSK_DpOSL_, symObjAddr: 0x2310C, symBinAddr: 0x1000282F0, symSize: 0x38 }
  - { offsetInCU: 0x27159, offset: 0x31643, size: 0x8, addend: 0x0, symName: __ZNSt3__18__invokeB7v160006INS_17__convert_to_boolINS_7greaterIvEEEEJRKNS_12basic_stringIcNS_11char_traitsIcEENS_9allocatorIcEEEESC_EEEDTclclsr3stdE7declvalIT_EEspclsr3stdE7declvalIT0_EEEEOSD_DpOSE_, symObjAddr: 0x23190, symBinAddr: 0x100028374, symSize: 0x38 }
  - { offsetInCU: 0x271BF, offset: 0x316A9, size: 0x8, addend: 0x0, symName: __ZNSt3__142__uninitialized_allocator_move_if_noexceptB7v160006INS_9allocatorIjEENS_16reverse_iteratorIPjEES5_jvEET1_RT_T0_S9_S6_, symObjAddr: 0x237DC, symBinAddr: 0x100028990, symSize: 0x78 }
  - { offsetInCU: 0x2723F, offset: 0x31729, size: 0x8, addend: 0x0, symName: __ZNSt3__14swapB7v160006IPjEENS_9enable_ifIXaasr21is_move_constructibleIT_EE5valuesr18is_move_assignableIS3_EE5valueEvE4typeERS3_S6_, symObjAddr: 0x23854, symBinAddr: 0x100028A08, symSize: 0x3C }
  - { offsetInCU: 0x2728F, offset: 0x31779, size: 0x8, addend: 0x0, symName: __ZNSt3__14moveB7v160006INS_16reverse_iteratorIPjEES3_EET0_T_S5_S4_, symObjAddr: 0x23890, symBinAddr: 0x100028A44, symSize: 0x78 }
  - { offsetInCU: 0x272E9, offset: 0x317D3, size: 0x8, addend: 0x0, symName: __ZNSt3__16__moveB7v160006INS_17_ClassicAlgPolicyENS_16reverse_iteratorIPjEES4_S4_EENS_4pairIT0_T2_EES6_T1_S7_, symObjAddr: 0x23908, symBinAddr: 0x100028ABC, symSize: 0x64 }
  - { offsetInCU: 0x27355, offset: 0x3183F, size: 0x8, addend: 0x0, symName: __ZNSt3__123__dispatch_copy_or_moveB7v160006INS_17_ClassicAlgPolicyENS_11__move_loopIS1_EENS_14__move_trivialENS_16reverse_iteratorIPjEES7_S7_EENS_4pairIT2_T4_EES9_T3_SA_, symObjAddr: 0x2396C, symBinAddr: 0x100028B20, symSize: 0x64 }
  - { offsetInCU: 0x273D3, offset: 0x318BD, size: 0x8, addend: 0x0, symName: __ZNSt3__121__unwrap_and_dispatchB7v160006INS_10__overloadINS_11__move_loopINS_17_ClassicAlgPolicyEEENS_14__move_trivialEEENS_16reverse_iteratorIPjEES9_S9_Li0EEENS_4pairIT0_T2_EESB_T1_SC_, symObjAddr: 0x239D0, symBinAddr: 0x100028B84, symSize: 0x12C }
  - { offsetInCU: 0x27464, offset: 0x3194E, size: 0x8, addend: 0x0, symName: __ZNSt3__114__unwrap_rangeB7v160006INS_16reverse_iteratorIPjEES3_EENS_4pairIT0_S5_EET_S7_, symObjAddr: 0x23AFC, symBinAddr: 0x100028CB0, symSize: 0x84 }
  - { offsetInCU: 0x27584, offset: 0x31A6E, size: 0x8, addend: 0x0, symName: __ZNSt3__113__unwrap_iterB7v160006INS_16reverse_iteratorIPjEENS_18__unwrap_iter_implIS3_Lb0EEELi0EEEDTclsrT0_8__unwrapclsr3stdE7declvalIT_EEEES7_, symObjAddr: 0x23C20, symBinAddr: 0x100028DD4, symSize: 0x44 }
  - { offsetInCU: 0x275C9, offset: 0x31AB3, size: 0x8, addend: 0x0, symName: __ZNSt3__19make_pairB7v160006INS_16reverse_iteratorIPjEES3_EENS_4pairINS_18__unwrap_ref_decayIT_E4typeENS5_IT0_E4typeEEEOS6_OS9_, symObjAddr: 0x23C64, symBinAddr: 0x100028E18, symSize: 0x38 }
  - { offsetInCU: 0x27618, offset: 0x31B02, size: 0x8, addend: 0x0, symName: __ZNSt3__114__rewrap_rangeB7v160006INS_16reverse_iteratorIPjEES3_EET_S4_T0_, symObjAddr: 0x23C9C, symBinAddr: 0x100028E50, symSize: 0x5C }
  - { offsetInCU: 0x27664, offset: 0x31B4E, size: 0x8, addend: 0x0, symName: __ZNSt3__113__rewrap_iterB7v160006INS_16reverse_iteratorIPjEES3_NS_18__unwrap_iter_implIS3_Lb0EEEEET_S6_T0_, symObjAddr: 0x23CF8, symBinAddr: 0x100028EAC, symSize: 0x74 }
  - { offsetInCU: 0x27725, offset: 0x31C0F, size: 0x8, addend: 0x0, symName: __ZNSt3__1eqB7v160006IPjEEbRKNS_11__wrap_iterIT_EES6_, symObjAddr: 0x240D8, symBinAddr: 0x10002928C, symSize: 0x48 }
  - { offsetInCU: 0x27768, offset: 0x31C52, size: 0x8, addend: 0x0, symName: __ZNSt3__120__throw_if_valuelessB7v160006IJRNS_7variantIJidbNS_12basic_stringIcNS_11char_traitsIcEENS_9allocatorIcEEEEEEEEEEvDpOT_, symObjAddr: 0x24138, symBinAddr: 0x1000292EC, symSize: 0x44 }
  - { offsetInCU: 0x277AF, offset: 0x31C99, size: 0x8, addend: 0x0, symName: __ZNSt3__112__as_variantB7v160006IJidbNS_12basic_stringIcNS_11char_traitsIcEENS_9allocatorIcEEEEEEERNS_7variantIJDpT_EEESB_, symObjAddr: 0x241B8, symBinAddr: 0x10002936C, symSize: 0x14 }
  - { offsetInCU: 0x2783E, offset: 0x31D28, size: 0x8, addend: 0x0, symName: __ZNSt3__18__invokeB7v160006INS_16__variant_detail12__visitation9__variant15__value_visitorIZN5Silly5printEvEUlRKT_E_EEJRNS1_5__altILm0EiEEEEEDTclclsr3stdE7declvalIS6_EEspclsr3stdE7declvalIT0_EEEEOS6_DpOSE_, symObjAddr: 0x243C0, symBinAddr: 0x100029574, symSize: 0x2C }
  - { offsetInCU: 0x2788D, offset: 0x31D77, size: 0x8, addend: 0x0, symName: __ZNSt3__18__invokeB7v160006IZN5Silly5printEvEUlRKT_E_JRiEEEDTclclsr3stdE7declvalIS2_EEspclsr3stdE7declvalIT0_EEEEOS2_DpOS7_, symObjAddr: 0x2442C, symBinAddr: 0x1000295E0, symSize: 0x2C }
  - { offsetInCU: 0x278DC, offset: 0x31DC6, size: 0x8, addend: 0x0, symName: __ZNSt3__18__invokeB7v160006INS_16__variant_detail12__visitation9__variant15__value_visitorIZN5Silly5printEvEUlRKT_E_EEJRNS1_5__altILm1EdEEEEEDTclclsr3stdE7declvalIS6_EEspclsr3stdE7declvalIT0_EEEEOS6_DpOSE_, symObjAddr: 0x2448C, symBinAddr: 0x100029640, symSize: 0x2C }
  - { offsetInCU: 0x2792B, offset: 0x31E15, size: 0x8, addend: 0x0, symName: __ZNSt3__18__invokeB7v160006IZN5Silly5printEvEUlRKT_E_JRdEEEDTclclsr3stdE7declvalIS2_EEspclsr3stdE7declvalIT0_EEEEOS2_DpOS7_, symObjAddr: 0x244F8, symBinAddr: 0x1000296AC, symSize: 0x2C }
  - { offsetInCU: 0x2797A, offset: 0x31E64, size: 0x8, addend: 0x0, symName: __ZNSt3__18__invokeB7v160006INS_16__variant_detail12__visitation9__variant15__value_visitorIZN5Silly5printEvEUlRKT_E_EEJRNS1_5__altILm2EbEEEEEDTclclsr3stdE7declvalIS6_EEspclsr3stdE7declvalIT0_EEEEOS6_DpOSE_, symObjAddr: 0x24558, symBinAddr: 0x10002970C, symSize: 0x2C }
  - { offsetInCU: 0x279C9, offset: 0x31EB3, size: 0x8, addend: 0x0, symName: __ZNSt3__18__invokeB7v160006IZN5Silly5printEvEUlRKT_E_JRbEEEDTclclsr3stdE7declvalIS2_EEspclsr3stdE7declvalIT0_EEEEOS2_DpOS7_, symObjAddr: 0x245C4, symBinAddr: 0x100029778, symSize: 0x2C }
  - { offsetInCU: 0x27A18, offset: 0x31F02, size: 0x8, addend: 0x0, symName: __ZNSt3__18__invokeB7v160006INS_16__variant_detail12__visitation9__variant15__value_visitorIZN5Silly5printEvEUlRKT_E_EEJRNS1_5__altILm3ENS_12basic_stringIcNS_11char_traitsIcEENS_9allocatorIcEEEEEEEEEDTclclsr3stdE7declvalIS6_EEspclsr3stdE7declvalIT0_EEEEOS6_DpOSK_, symObjAddr: 0x24628, symBinAddr: 0x1000297DC, symSize: 0x2C }
  - { offsetInCU: 0x27A67, offset: 0x31F51, size: 0x8, addend: 0x0, symName: __ZNSt3__18__invokeB7v160006IZN5Silly5printEvEUlRKT_E_JRNS_12basic_stringIcNS_11char_traitsIcEENS_9allocatorIcEEEEEEEDTclclsr3stdE7declvalIS2_EEspclsr3stdE7declvalIT0_EEEEOS2_DpOSD_, symObjAddr: 0x24694, symBinAddr: 0x100029848, symSize: 0x2C }
  - { offsetInCU: 0x27AB6, offset: 0x31FA0, size: 0x8, addend: 0x0, symName: __ZNSt3__14sortB7v160006INS_16reverse_iteratorINS_11__wrap_iterIPjEEEEEEvT_S6_, symObjAddr: 0x2475C, symBinAddr: 0x100029910, symSize: 0x4C }
  - { offsetInCU: 0x27AF9, offset: 0x31FE3, size: 0x8, addend: 0x0, symName: __ZNSt3__14sortB7v160006INS_16reverse_iteratorINS_11__wrap_iterIPjEEEENS_6__lessIjjEEEEvT_S8_T0_, symObjAddr: 0x24BF0, symBinAddr: 0x100029DA4, symSize: 0x50 }
  - { offsetInCU: 0x27B54, offset: 0x3203E, size: 0x8, addend: 0x0, symName: __ZNSt3__111__sort_implB7v160006INS_17_ClassicAlgPolicyENS_16reverse_iteratorINS_11__wrap_iterIPjEEEENS_6__lessIjjEEEEvT0_S9_RT1_, symObjAddr: 0x24C40, symBinAddr: 0x100029DF4, symSize: 0xB0 }
  - { offsetInCU: 0x27C00, offset: 0x320EA, size: 0x8, addend: 0x0, symName: __ZNSt3__123__debug_randomize_rangeB7v160006INS_17_ClassicAlgPolicyENS_16reverse_iteratorINS_11__wrap_iterIPjEEEES6_EEvT0_T1_, symObjAddr: 0x24CF0, symBinAddr: 0x100029EA4, symSize: 0x1C }
  - { offsetInCU: 0x27C50, offset: 0x3213A, size: 0x8, addend: 0x0, symName: __ZNSt3__16__sortIRNS_6__lessIjjEENS_16reverse_iteratorINS_11__wrap_iterIPjEEEEEEvT0_S9_T_, symObjAddr: 0x24D0C, symBinAddr: 0x100029EC0, symSize: 0x84 }
  - { offsetInCU: 0x27CE1, offset: 0x321CB, size: 0x8, addend: 0x0, symName: __ZNSt3__113__unwrap_iterB7v160006INS_16reverse_iteratorINS_11__wrap_iterIPjEEEENS_18__unwrap_iter_implIS5_Lb0EEELi0EEEDTclsrT0_8__unwrapclsr3stdE7declvalIT_EEEES9_, symObjAddr: 0x24D90, symBinAddr: 0x100029F44, symSize: 0x44 }
  - { offsetInCU: 0x27D26, offset: 0x32210, size: 0x8, addend: 0x0, symName: __ZNSt3__17__log2iB7v160006IlEET_S1_, symObjAddr: 0x24DD4, symBinAddr: 0x100029F88, symSize: 0x54 }
  - { offsetInCU: 0x27D5D, offset: 0x32247, size: 0x8, addend: 0x0, symName: __ZNSt3__1miB7v160006INS_11__wrap_iterIPjEES3_EEDTmicldtfp0_4baseEcldtfp_4baseEERKNS_16reverse_iteratorIT_EERKNS5_IT0_EE, symObjAddr: 0x24E28, symBinAddr: 0x100029FDC, symSize: 0x50 }
  - { offsetInCU: 0x27E1A, offset: 0x32304, size: 0x8, addend: 0x0, symName: __ZNSt3__1miB7v160006IPjS1_EEDTmicldtfp_4baseEcldtfp0_4baseEERKNS_11__wrap_iterIT_EERKNS3_IT0_EE, symObjAddr: 0x25874, symBinAddr: 0x10002AA28, symSize: 0x48 }
  - { offsetInCU: 0x27E66, offset: 0x32350, size: 0x8, addend: 0x0, symName: __ZNSt3__124__sort3_maybe_branchlessB7v160006INS_17_ClassicAlgPolicyERNS_6__lessIjjEENS_16reverse_iteratorINS_11__wrap_iterIPjEEEEEENS_9enable_ifIXntsr21__use_branchless_sortIT0_T1_EE5valueEvE4typeESC_SC_SC_SB_, symObjAddr: 0x259C0, symBinAddr: 0x10002AB74, symSize: 0x6C }
  - { offsetInCU: 0x27ED7, offset: 0x323C1, size: 0x8, addend: 0x0, symName: __ZNSt3__124__sort4_maybe_branchlessB7v160006INS_17_ClassicAlgPolicyERNS_6__lessIjjEENS_16reverse_iteratorINS_11__wrap_iterIPjEEEEEENS_9enable_ifIXntsr21__use_branchless_sortIT0_T1_EE5valueEvE4typeESC_SC_SC_SC_SB_, symObjAddr: 0x25A74, symBinAddr: 0x10002AC28, symSize: 0x90 }
  - { offsetInCU: 0x27F5D, offset: 0x32447, size: 0x8, addend: 0x0, symName: __ZNSt3__124__sort5_maybe_branchlessB7v160006INS_17_ClassicAlgPolicyERNS_6__lessIjjEENS_16reverse_iteratorINS_11__wrap_iterIPjEEEEEENS_9enable_ifIXntsr21__use_branchless_sortIT0_T1_EE5valueEvE4typeESC_SC_SC_SC_SC_SB_, symObjAddr: 0x25B04, symBinAddr: 0x10002ACB8, symSize: 0xB8 }
  - { offsetInCU: 0x27FF3, offset: 0x324DD, size: 0x8, addend: 0x0, symName: __ZNSt3__114__partial_sortB7v160006INS_17_ClassicAlgPolicyERNS_6__lessIjjEENS_16reverse_iteratorINS_11__wrap_iterIPjEEEES9_EET1_SA_SA_T2_RT0_, symObjAddr: 0x25D90, symBinAddr: 0x10002AF44, symSize: 0x110 }
  - { offsetInCU: 0x2807C, offset: 0x32566, size: 0x8, addend: 0x0, symName: __ZNSt3__119__sort5_wrap_policyB7v160006INS_17_ClassicAlgPolicyERNS_6__lessIjjEENS_16reverse_iteratorINS_11__wrap_iterIPjEEEEEEjT1_SA_SA_SA_SA_T0_, symObjAddr: 0x25ED8, symBinAddr: 0x10002B08C, symSize: 0xC0 }
  - { offsetInCU: 0x28125, offset: 0x3260F, size: 0x8, addend: 0x0, symName: __ZNSt3__17__sort3B7v160006INS_17_ClassicAlgPolicyERNS_6__lessIjjEENS_16reverse_iteratorINS_11__wrap_iterIPjEEEEEEjT1_SA_SA_T0_, symObjAddr: 0x25F98, symBinAddr: 0x10002B14C, symSize: 0x1F4 }
  - { offsetInCU: 0x281A5, offset: 0x3268F, size: 0x8, addend: 0x0, symName: __ZNSt3__1eqB7v160006INS_11__wrap_iterIPjEES3_EEbRKNS_16reverse_iteratorIT_EERKNS4_IT0_EE, symObjAddr: 0x2618C, symBinAddr: 0x10002B340, symSize: 0x54 }
  - { offsetInCU: 0x281F1, offset: 0x326DB, size: 0x8, addend: 0x0, symName: __ZNSt3__1geB7v160006INS_11__wrap_iterIPjEES3_EEbRKNS_16reverse_iteratorIT_EERKNS4_IT0_EE, symObjAddr: 0x26210, symBinAddr: 0x10002B3C4, symSize: 0x54 }
  - { offsetInCU: 0x28240, offset: 0x3272A, size: 0x8, addend: 0x0, symName: __ZNSt3__1ltB7v160006INS_11__wrap_iterIPjEES3_EEbRKNS_16reverse_iteratorIT_EERKNS4_IT0_EE, symObjAddr: 0x26264, symBinAddr: 0x10002B418, symSize: 0x54 }
  - { offsetInCU: 0x2828C, offset: 0x32776, size: 0x8, addend: 0x0, symName: __ZNSt3__1gtB7v160006INS_11__wrap_iterIPjEES3_EEbRKNS_16reverse_iteratorIT_EERKNS4_IT0_EE, symObjAddr: 0x262B8, symBinAddr: 0x10002B46C, symSize: 0x54 }
  - { offsetInCU: 0x282D8, offset: 0x327C2, size: 0x8, addend: 0x0, symName: __ZNSt3__1neB7v160006INS_11__wrap_iterIPjEES3_EEbRKNS_16reverse_iteratorIT_EERKNS4_IT0_EE, symObjAddr: 0x2630C, symBinAddr: 0x10002B4C0, symSize: 0x54 }
  - { offsetInCU: 0x28324, offset: 0x3280E, size: 0x8, addend: 0x0, symName: __ZNSt3__19iter_swapB7v160006INS_16reverse_iteratorINS_11__wrap_iterIPjEEEES5_EEvT_T0_, symObjAddr: 0x26858, symBinAddr: 0x10002BA0C, symSize: 0x58 }
  - { offsetInCU: 0x2836E, offset: 0x32858, size: 0x8, addend: 0x0, symName: __ZNSt3__14swapB7v160006IjEENS_9enable_ifIXaasr21is_move_constructibleIT_EE5valuesr18is_move_assignableIS2_EE5valueEvE4typeERS2_S5_, symObjAddr: 0x268B0, symBinAddr: 0x10002BA64, symSize: 0x3C }
  - { offsetInCU: 0x283BE, offset: 0x328A8, size: 0x8, addend: 0x0, symName: __ZNSt3__17__sort4B7v160006INS_17_ClassicAlgPolicyERNS_6__lessIjjEENS_16reverse_iteratorINS_11__wrap_iterIPjEEEEEEjT1_SA_SA_SA_T0_, symObjAddr: 0x269E8, symBinAddr: 0x10002BB9C, symSize: 0x190 }
  - { offsetInCU: 0x2844D, offset: 0x32937, size: 0x8, addend: 0x0, symName: __ZNSt3__119__partial_sort_implB7v160006INS_17_ClassicAlgPolicyERNS_6__lessIjjEENS_16reverse_iteratorINS_11__wrap_iterIPjEEEES9_EET1_SA_SA_T2_OT0_, symObjAddr: 0x26BD0, symBinAddr: 0x10002BD84, symSize: 0x1A0 }
  - { offsetInCU: 0x284E6, offset: 0x329D0, size: 0x8, addend: 0x0, symName: __ZNSt3__111__make_heapB7v160006INS_17_ClassicAlgPolicyERNS_6__lessIjjEENS_16reverse_iteratorINS_11__wrap_iterIPjEEEEEEvT1_SA_OT0_, symObjAddr: 0x26D70, symBinAddr: 0x10002BF24, symSize: 0xE8 }
  - { offsetInCU: 0x2858A, offset: 0x32A74, size: 0x8, addend: 0x0, symName: __ZNSt3__111__sort_heapB7v160006INS_17_ClassicAlgPolicyERNS_6__lessIjjEENS_16reverse_iteratorINS_11__wrap_iterIPjEEEEEEvT1_SA_OT0_, symObjAddr: 0x27154, symBinAddr: 0x10002C308, symSize: 0xA8 }
  - { offsetInCU: 0x28620, offset: 0x32B0A, size: 0x8, addend: 0x0, symName: __ZNSt3__110__pop_heapB7v160006INS_17_ClassicAlgPolicyENS_6__lessIjjEENS_16reverse_iteratorINS_11__wrap_iterIPjEEEEEEvT1_S9_RT0_NS_15iterator_traitsIS9_E15difference_typeE, symObjAddr: 0x271FC, symBinAddr: 0x10002C3B0, symSize: 0x15C }
  - { offsetInCU: 0x286D3, offset: 0x32BBD, size: 0x8, addend: 0x0, symName: __ZNSt3__19__sift_upB7v160006INS_17_ClassicAlgPolicyERNS_6__lessIjjEENS_16reverse_iteratorINS_11__wrap_iterIPjEEEEEEvT1_SA_OT0_NS_15iterator_traitsISA_E15difference_typeE, symObjAddr: 0x274B0, symBinAddr: 0x10002C664, symSize: 0x178 }
  - { offsetInCU: 0x28787, offset: 0x32C71, size: 0x8, addend: 0x0, symName: __ZNSt3__17__sort5IRNS_6__lessIjjEENS_16reverse_iteratorINS_11__wrap_iterIPjEEEEEEjT0_S9_S9_S9_S9_T_, symObjAddr: 0x27664, symBinAddr: 0x10002C818, symSize: 0x220 }
  - { offsetInCU: 0x28837, offset: 0x32D21, size: 0x8, addend: 0x0, symName: __ZNSt3__1leB7v160006IPjEEbRKNS_11__wrap_iterIT_EES6_, symObjAddr: 0x27884, symBinAddr: 0x10002CA38, symSize: 0x34 }
  - { offsetInCU: 0x2887A, offset: 0x32D64, size: 0x8, addend: 0x0, symName: __ZNSt3__1ltB7v160006IPjEEbRKNS_11__wrap_iterIT_EES6_, symObjAddr: 0x278B8, symBinAddr: 0x10002CA6C, symSize: 0x48 }
  - { offsetInCU: 0x288BD, offset: 0x32DA7, size: 0x8, addend: 0x0, symName: __ZNSt3__1gtB7v160006IPjEEbRKNS_11__wrap_iterIT_EES6_, symObjAddr: 0x27900, symBinAddr: 0x10002CAB4, symSize: 0x30 }
  - { offsetInCU: 0x28948, offset: 0x32E32, size: 0x8, addend: 0x0, symName: __ZNSt3__1miB7v160006IPKNS_6vectorINS_7variantIJidbNS_12basic_stringIcNS_11char_traitsIcEENS_9allocatorIcEEEEEEENS6_IS9_EEEESD_EEDTmicldtfp_4baseEcldtfp0_4baseEERKNS_11__wrap_iterIT_EERKNSF_IT0_EE, symObjAddr: 0x27954, symBinAddr: 0x10002CB08, symSize: 0x48 }
  - { offsetInCU: 0x28994, offset: 0x32E7E, size: 0x8, addend: 0x0, symName: __ZNSt3__14moveB7v160006IPNS_6vectorINS_7variantIJidbNS_12basic_stringIcNS_11char_traitsIcEENS_9allocatorIcEEEEEEENS6_IS9_EEEESC_EET0_T_SE_SD_, symObjAddr: 0x279C8, symBinAddr: 0x10002CB7C, symSize: 0x40 }
  - { offsetInCU: 0x289EE, offset: 0x32ED8, size: 0x8, addend: 0x0, symName: __ZNSt3__16__moveB7v160006INS_17_ClassicAlgPolicyEPNS_6vectorINS_7variantIJidbNS_12basic_stringIcNS_11char_traitsIcEENS_9allocatorIcEEEEEEENS7_ISA_EEEESD_SD_EENS_4pairIT0_T2_EESF_T1_SG_, symObjAddr: 0x27B18, symBinAddr: 0x10002CCCC, symSize: 0x44 }
  - { offsetInCU: 0x28A5A, offset: 0x32F44, size: 0x8, addend: 0x0, symName: __ZNSt3__123__dispatch_copy_or_moveB7v160006INS_17_ClassicAlgPolicyENS_11__move_loopIS1_EENS_14__move_trivialEPNS_6vectorINS_7variantIJidbNS_12basic_stringIcNS_11char_traitsIcEENS_9allocatorIcEEEEEEENSA_ISD_EEEESG_SG_EENS_4pairIT2_T4_EESI_T3_SJ_, symObjAddr: 0x27B5C, symBinAddr: 0x10002CD10, symSize: 0x44 }
  - { offsetInCU: 0x28AD8, offset: 0x32FC2, size: 0x8, addend: 0x0, symName: __ZNSt3__121__unwrap_and_dispatchB7v160006INS_10__overloadINS_11__move_loopINS_17_ClassicAlgPolicyEEENS_14__move_trivialEEEPNS_6vectorINS_7variantIJidbNS_12basic_stringIcNS_11char_traitsIcEENS_9allocatorIcEEEEEEENSC_ISF_EEEESI_SI_Li0EEENS_4pairIT0_T2_EESK_T1_SL_, symObjAddr: 0x27BA0, symBinAddr: 0x10002CD54, symSize: 0xB4 }
  - { offsetInCU: 0x28B8B, offset: 0x33075, size: 0x8, addend: 0x0, symName: __ZNSt3__116forward_as_tupleB7v160006IJRKNS_7variantIJidbNS_12basic_stringIcNS_11char_traitsIcEENS_9allocatorIcEEEEEEEEEENS_5tupleIJDpOT_EEESE_, symObjAddr: 0x28EC4, symBinAddr: 0x10002E078, symSize: 0x2C }
  - { offsetInCU: 0x28BC5, offset: 0x330AF, size: 0x8, addend: 0x0, symName: __ZNSt3__13getB7v160006ILm0EJRKNS_7variantIJidbNS_12basic_stringIcNS_11char_traitsIcEENS_9allocatorIcEEEEEEEEEERNS_13tuple_elementIXT_ENS_5tupleIJDpT0_EEEE4typeERSF_, symObjAddr: 0x2933C, symBinAddr: 0x10002E4F0, symSize: 0x24 }
  - { offsetInCU: 0x28C1F, offset: 0x33109, size: 0x8, addend: 0x0, symName: __ZNSt3__1neB7v160006IPNS_6vectorINS_7variantIJidbNS_12basic_stringIcNS_11char_traitsIcEENS_9allocatorIcEEEEEEENS6_IS9_EEEEEEbRKNS_11__wrap_iterIT_EESH_, symObjAddr: 0x295A8, symBinAddr: 0x10002E75C, symSize: 0x34 }
  - { offsetInCU: 0x28C62, offset: 0x3314C, size: 0x8, addend: 0x0, symName: __ZNSt3__1neB7v160006IPNS_4pairINS_12basic_stringIcNS_11char_traitsIcEENS_9allocatorIcEEEEjEEEEbRKNS_11__wrap_iterIT_EESE_, symObjAddr: 0x29654, symBinAddr: 0x10002E808, symSize: 0x34 }
  - { offsetInCU: 0x28CA5, offset: 0x3318F, size: 0x8, addend: 0x0, symName: __ZNSt3__13getB7v160006ILm0ENS_12basic_stringIcNS_11char_traitsIcEENS_9allocatorIcEEEEjEERNS_13tuple_elementIXT_ENS_4pairIT0_T1_EEE4typeERSB_, symObjAddr: 0x296A0, symBinAddr: 0x10002E854, symSize: 0x24 }
  - { offsetInCU: 0x28CEF, offset: 0x331D9, size: 0x8, addend: 0x0, symName: __ZNSt3__13getB7v160006ILm1ENS_12basic_stringIcNS_11char_traitsIcEENS_9allocatorIcEEEEjEERNS_13tuple_elementIXT_ENS_4pairIT0_T1_EEE4typeERSB_, symObjAddr: 0x296C4, symBinAddr: 0x10002E878, symSize: 0x24 }
  - { offsetInCU: 0x28D39, offset: 0x33223, size: 0x8, addend: 0x0, symName: __ZNSt3__15visitB7v160006IZN5Silly4joinEvEUlRKT_E_JRNS_7variantIJidbNS_12basic_stringIcNS_11char_traitsIcEENS_9allocatorIcEEEEEEEEvEEDcOS2_DpOT0_, symObjAddr: 0x296E8, symBinAddr: 0x10002E89C, symSize: 0x34 }
  - { offsetInCU: 0x28D92, offset: 0x3327C, size: 0x8, addend: 0x0, symName: __ZNSt3__1neB7v160006IPNS_6vectorINS_12basic_stringIcNS_11char_traitsIcEENS_9allocatorIcEEEENS5_IS7_EEEEEEbRKNS_11__wrap_iterIT_EESF_, symObjAddr: 0x29874, symBinAddr: 0x10002EA28, symSize: 0x34 }
  - { offsetInCU: 0x28DD6, offset: 0x332C0, size: 0x8, addend: 0x0, symName: __ZNSt3__119__debug_db_insert_cB7v160006INS_6vectorINS_4pairINS_12basic_stringIcNS_11char_traitsIcEENS_9allocatorIcEEEEjEENS6_IS9_EEEEEEvPT_, symObjAddr: 0x299F4, symBinAddr: 0x10002EBA8, symSize: 0x10 }
  - { offsetInCU: 0x28E07, offset: 0x332F1, size: 0x8, addend: 0x0, symName: __ZNSt3__112__to_addressB7v160006INS_4pairINS_12basic_stringIcNS_11char_traitsIcEENS_9allocatorIcEEEEjEEEEPT_SA_, symObjAddr: 0x29D60, symBinAddr: 0x10002EF14, symSize: 0x14 }
  - { offsetInCU: 0x28E3B, offset: 0x33325, size: 0x8, addend: 0x0, symName: __ZNSt3__119__allocate_at_leastB7v160006INS_9allocatorINS_4pairINS_12basic_stringIcNS_11char_traitsIcEENS1_IcEEEEjEEEEEENS_19__allocation_resultINS_16allocator_traitsIT_E7pointerEEERSC_m, symObjAddr: 0x2A3F4, symBinAddr: 0x10002F5A8, symSize: 0x40 }
  - { offsetInCU: 0x28E7E, offset: 0x33368, size: 0x8, addend: 0x0, symName: __ZNSt3__142__uninitialized_allocator_move_if_noexceptB7v160006INS_9allocatorINS_4pairINS_12basic_stringIcNS_11char_traitsIcEENS1_IcEEEEjEEEENS_16reverse_iteratorIPS8_EESC_SC_EET2_RT_T0_T1_SD_, symObjAddr: 0x2A660, symBinAddr: 0x10002F814, symSize: 0x12C }
  - { offsetInCU: 0x28F1F, offset: 0x33409, size: 0x8, addend: 0x0, symName: __ZNSt3__14swapB7v160006IPNS_4pairINS_12basic_stringIcNS_11char_traitsIcEENS_9allocatorIcEEEEjEEEENS_9enable_ifIXaasr21is_move_constructibleIT_EE5valuesr18is_move_assignableISB_EE5valueEvE4typeERSB_SE_, symObjAddr: 0x2A7D8, symBinAddr: 0x10002F98C, symSize: 0x3C }
  - { offsetInCU: 0x28F70, offset: 0x3345A, size: 0x8, addend: 0x0, symName: __ZNSt3__125__debug_db_invalidate_allB7v160006INS_6vectorINS_4pairINS_12basic_stringIcNS_11char_traitsIcEENS_9allocatorIcEEEEjEENS6_IS9_EEEEEEvPT_, symObjAddr: 0x2A8C0, symBinAddr: 0x10002FA74, symSize: 0x10 }
  - { offsetInCU: 0x28FA0, offset: 0x3348A, size: 0x8, addend: 0x0, symName: __ZNSt3__122__make_exception_guardB7v160006INS_29_AllocatorDestroyRangeReverseINS_9allocatorINS_4pairINS_12basic_stringIcNS_11char_traitsIcEENS2_IcEEEEjEEEENS_16reverse_iteratorIPS9_EEEEEENS_28__exception_guard_exceptionsIT_EESG_, symObjAddr: 0x2A918, symBinAddr: 0x10002FACC, symSize: 0x4C }
  - { offsetInCU: 0x28FD6, offset: 0x334C0, size: 0x8, addend: 0x0, symName: __ZNSt3__1neB7v160006IPNS_4pairINS_12basic_stringIcNS_11char_traitsIcEENS_9allocatorIcEEEEjEES9_EEbRKNS_16reverse_iteratorIT_EERKNSA_IT0_EE, symObjAddr: 0x2A9A8, symBinAddr: 0x10002FB5C, symSize: 0x48 }
  - { offsetInCU: 0x29022, offset: 0x3350C, size: 0x8, addend: 0x0, symName: __ZNSt3__112__to_addressB7v160006INS_16reverse_iteratorIPNS_4pairINS_12basic_stringIcNS_11char_traitsIcEENS_9allocatorIcEEEEjEEEEvEENS_5decayIDTclsr19__to_address_helperIT_EE6__callclsr3stdE7declvalIRKSD_EEEEE4typeESF_, symObjAddr: 0x2AA24, symBinAddr: 0x10002FBD8, symSize: 0x24 }
  - { offsetInCU: 0x29083, offset: 0x3356D, size: 0x8, addend: 0x0, symName: __ZNSt3__119__allocator_destroyB7v160006INS_9allocatorINS_4pairINS_12basic_stringIcNS_11char_traitsIcEENS1_IcEEEEjEEEENS_16reverse_iteratorINSA_IPS8_EEEESD_EEvRT_T0_T1_, symObjAddr: 0x2AD78, symBinAddr: 0x10002FF2C, symSize: 0x70 }
  - { offsetInCU: 0x290E9, offset: 0x335D3, size: 0x8, addend: 0x0, symName: __ZNSt3__1neB7v160006INS_16reverse_iteratorIPNS_4pairINS_12basic_stringIcNS_11char_traitsIcEENS_9allocatorIcEEEEjEEEESB_EEbRKNS1_IT_EERKNS1_IT0_EE, symObjAddr: 0x2AE24, symBinAddr: 0x10002FFD8, symSize: 0x60 }
  - { offsetInCU: 0x29135, offset: 0x3361F, size: 0x8, addend: 0x0, symName: __ZNSt3__112__to_addressB7v160006INS_16reverse_iteratorINS1_IPNS_4pairINS_12basic_stringIcNS_11char_traitsIcEENS_9allocatorIcEEEEjEEEEEEvEENS_5decayIDTclsr19__to_address_helperIT_EE6__callclsr3stdE7declvalIRKSE_EEEEE4typeESG_, symObjAddr: 0x2AEB0, symBinAddr: 0x100030064, symSize: 0x24 }
  - { offsetInCU: 0x29197, offset: 0x33681, size: 0x8, addend: 0x0, symName: __ZNSt3__119__debug_db_insert_cB7v160006INS_6vectorINS1_INS_12basic_stringIcNS_11char_traitsIcEENS_9allocatorIcEEEENS5_IS7_EEEENS5_IS9_EEEEEEvPT_, symObjAddr: 0x2B3A0, symBinAddr: 0x100030554, symSize: 0x10 }
  - { offsetInCU: 0x291C7, offset: 0x336B1, size: 0x8, addend: 0x0, symName: __ZNSt3__1eqB7v160006IPNS_6vectorINS_7variantIJidbNS_12basic_stringIcNS_11char_traitsIcEENS_9allocatorIcEEEEEEENS6_IS9_EEEEEEbRKNS_11__wrap_iterIT_EESH_, symObjAddr: 0x2B478, symBinAddr: 0x10003062C, symSize: 0x48 }
  - { offsetInCU: 0x2920A, offset: 0x336F4, size: 0x8, addend: 0x0, symName: __ZNSt3__1eqB7v160006IPNS_4pairINS_12basic_stringIcNS_11char_traitsIcEENS_9allocatorIcEEEEjEEEEbRKNS_11__wrap_iterIT_EESE_, symObjAddr: 0x2B554, symBinAddr: 0x100030708, symSize: 0x48 }
  - { offsetInCU: 0x29293, offset: 0x3377D, size: 0x8, addend: 0x0, symName: __ZNSt3__18__invokeB7v160006INS_16__variant_detail12__visitation9__variant15__value_visitorIZN5Silly4joinEvEUlRKT_E_EEJRNS1_5__altILm0EiEEEEEDTclclsr3stdE7declvalIS6_EEspclsr3stdE7declvalIT0_EEEEOS6_DpOSE_, symObjAddr: 0x2B810, symBinAddr: 0x1000309C4, symSize: 0x2C }
  - { offsetInCU: 0x292E2, offset: 0x337CC, size: 0x8, addend: 0x0, symName: __ZNSt3__18__invokeB7v160006IZN5Silly4joinEvEUlRKT_E_JRiEEEDTclclsr3stdE7declvalIS2_EEspclsr3stdE7declvalIT0_EEEEOS2_DpOS7_, symObjAddr: 0x2B87C, symBinAddr: 0x100030A30, symSize: 0x2C }
  - { offsetInCU: 0x29682, offset: 0x33B6C, size: 0x8, addend: 0x0, symName: __ZNSt3__18__invokeB7v160006INS_16__variant_detail12__visitation9__variant15__value_visitorIZN5Silly4joinEvEUlRKT_E_EEJRNS1_5__altILm1EdEEEEEDTclclsr3stdE7declvalIS6_EEspclsr3stdE7declvalIT0_EEEEOS6_DpOSE_, symObjAddr: 0x2BFA8, symBinAddr: 0x10003115C, symSize: 0x2C }
  - { offsetInCU: 0x296D1, offset: 0x33BBB, size: 0x8, addend: 0x0, symName: __ZNSt3__18__invokeB7v160006IZN5Silly4joinEvEUlRKT_E_JRdEEEDTclclsr3stdE7declvalIS2_EEspclsr3stdE7declvalIT0_EEEEOS2_DpOS7_, symObjAddr: 0x2C014, symBinAddr: 0x1000311C8, symSize: 0x2C }
  - { offsetInCU: 0x29720, offset: 0x33C0A, size: 0x8, addend: 0x0, symName: __ZNSt3__18__invokeB7v160006INS_16__variant_detail12__visitation9__variant15__value_visitorIZN5Silly4joinEvEUlRKT_E_EEJRNS1_5__altILm2EbEEEEEDTclclsr3stdE7declvalIS6_EEspclsr3stdE7declvalIT0_EEEEOS6_DpOSE_, symObjAddr: 0x2C0E4, symBinAddr: 0x100031298, symSize: 0x2C }
  - { offsetInCU: 0x2976F, offset: 0x33C59, size: 0x8, addend: 0x0, symName: __ZNSt3__18__invokeB7v160006IZN5Silly4joinEvEUlRKT_E_JRbEEEDTclclsr3stdE7declvalIS2_EEspclsr3stdE7declvalIT0_EEEEOS2_DpOS7_, symObjAddr: 0x2C150, symBinAddr: 0x100031304, symSize: 0x2C }
  - { offsetInCU: 0x297BE, offset: 0x33CA8, size: 0x8, addend: 0x0, symName: __ZNSt3__18__invokeB7v160006INS_16__variant_detail12__visitation9__variant15__value_visitorIZN5Silly4joinEvEUlRKT_E_EEJRNS1_5__altILm3ENS_12basic_stringIcNS_11char_traitsIcEENS_9allocatorIcEEEEEEEEEDTclclsr3stdE7declvalIS6_EEspclsr3stdE7declvalIT0_EEEEOS6_DpOSK_, symObjAddr: 0x2C224, symBinAddr: 0x1000313D8, symSize: 0x2C }
  - { offsetInCU: 0x2980D, offset: 0x33CF7, size: 0x8, addend: 0x0, symName: __ZNSt3__18__invokeB7v160006IZN5Silly4joinEvEUlRKT_E_JRNS_12basic_stringIcNS_11char_traitsIcEENS_9allocatorIcEEEEEEEDTclclsr3stdE7declvalIS2_EEspclsr3stdE7declvalIT0_EEEEOS2_DpOSD_, symObjAddr: 0x2C290, symBinAddr: 0x100031444, symSize: 0x2C }
  - { offsetInCU: 0x2985D, offset: 0x33D47, size: 0x8, addend: 0x0, symName: __ZNSt3__112__to_addressB7v160006INS_6vectorINS_12basic_stringIcNS_11char_traitsIcEENS_9allocatorIcEEEENS5_IS7_EEEEEEPT_SB_, symObjAddr: 0x2C5F0, symBinAddr: 0x1000317A4, symSize: 0x14 }
  - { offsetInCU: 0x29891, offset: 0x33D7B, size: 0x8, addend: 0x0, symName: __ZNSt3__122__make_exception_guardB7v160006INS_6vectorINS_12basic_stringIcNS_11char_traitsIcEENS_9allocatorIcEEEENS5_IS7_EEE16__destroy_vectorEEENS_28__exception_guard_exceptionsIT_EESC_, symObjAddr: 0x2C83C, symBinAddr: 0x1000319F0, symSize: 0x40 }
  - { offsetInCU: 0x298C6, offset: 0x33DB0, size: 0x8, addend: 0x0, symName: __ZNSt3__119__allocate_at_leastB7v160006INS_9allocatorINS_6vectorINS_12basic_stringIcNS_11char_traitsIcEENS1_IcEEEENS1_IS7_EEEEEEEENS_19__allocation_resultINS_16allocator_traitsIT_E7pointerEEERSD_m, symObjAddr: 0x2CF30, symBinAddr: 0x1000320E4, symSize: 0x40 }
  - { offsetInCU: 0x29909, offset: 0x33DF3, size: 0x8, addend: 0x0, symName: __ZNSt3__142__uninitialized_allocator_move_if_noexceptB7v160006INS_9allocatorINS_6vectorINS_12basic_stringIcNS_11char_traitsIcEENS1_IcEEEENS1_IS7_EEEEEENS_16reverse_iteratorIPS9_EESD_SD_EET2_RT_T0_T1_SE_, symObjAddr: 0x2D1BC, symBinAddr: 0x100032370, symSize: 0x12C }
  - { offsetInCU: 0x299AA, offset: 0x33E94, size: 0x8, addend: 0x0, symName: __ZNSt3__14swapB7v160006IPNS_6vectorINS_12basic_stringIcNS_11char_traitsIcEENS_9allocatorIcEEEENS5_IS7_EEEEEENS_9enable_ifIXaasr21is_move_constructibleIT_EE5valuesr18is_move_assignableISC_EE5valueEvE4typeERSC_SF_, symObjAddr: 0x2D334, symBinAddr: 0x1000324E8, symSize: 0x3C }
  - { offsetInCU: 0x299FB, offset: 0x33EE5, size: 0x8, addend: 0x0, symName: __ZNSt3__125__debug_db_invalidate_allB7v160006INS_6vectorINS1_INS_12basic_stringIcNS_11char_traitsIcEENS_9allocatorIcEEEENS5_IS7_EEEENS5_IS9_EEEEEEvPT_, symObjAddr: 0x2D438, symBinAddr: 0x1000325EC, symSize: 0x10 }
  - { offsetInCU: 0x29A2B, offset: 0x33F15, size: 0x8, addend: 0x0, symName: __ZNSt3__122__make_exception_guardB7v160006INS_29_AllocatorDestroyRangeReverseINS_9allocatorINS_6vectorINS_12basic_stringIcNS_11char_traitsIcEENS2_IcEEEENS2_IS8_EEEEEENS_16reverse_iteratorIPSA_EEEEEENS_28__exception_guard_exceptionsIT_EESH_, symObjAddr: 0x2D490, symBinAddr: 0x100032644, symSize: 0x4C }
  - { offsetInCU: 0x29A61, offset: 0x33F4B, size: 0x8, addend: 0x0, symName: __ZNSt3__1neB7v160006IPNS_6vectorINS_12basic_stringIcNS_11char_traitsIcEENS_9allocatorIcEEEENS5_IS7_EEEESA_EEbRKNS_16reverse_iteratorIT_EERKNSB_IT0_EE, symObjAddr: 0x2D520, symBinAddr: 0x1000326D4, symSize: 0x48 }
  - { offsetInCU: 0x29AAD, offset: 0x33F97, size: 0x8, addend: 0x0, symName: __ZNSt3__112__to_addressB7v160006INS_16reverse_iteratorIPNS_6vectorINS_12basic_stringIcNS_11char_traitsIcEENS_9allocatorIcEEEENS6_IS8_EEEEEEvEENS_5decayIDTclsr19__to_address_helperIT_EE6__callclsr3stdE7declvalIRKSE_EEEEE4typeESG_, symObjAddr: 0x2D59C, symBinAddr: 0x100032750, symSize: 0x24 }
  - { offsetInCU: 0x29AE5, offset: 0x33FCF, size: 0x8, addend: 0x0, symName: __ZNSt3__115__debug_db_swapB7v160006INS_6vectorINS_12basic_stringIcNS_11char_traitsIcEENS_9allocatorIcEEEENS5_IS7_EEEEEEvPT_SB_, symObjAddr: 0x2D82C, symBinAddr: 0x1000329E0, symSize: 0x14 }
  - { offsetInCU: 0x29B4D, offset: 0x34037, size: 0x8, addend: 0x0, symName: __ZNSt3__119__allocator_destroyB7v160006INS_9allocatorINS_6vectorINS_12basic_stringIcNS_11char_traitsIcEENS1_IcEEEENS1_IS7_EEEEEENS_16reverse_iteratorINSB_IPS9_EEEESE_EEvRT_T0_T1_, symObjAddr: 0x2D9A0, symBinAddr: 0x100032B54, symSize: 0x70 }
  - { offsetInCU: 0x29BB3, offset: 0x3409D, size: 0x8, addend: 0x0, symName: __ZNSt3__1neB7v160006INS_16reverse_iteratorIPNS_6vectorINS_12basic_stringIcNS_11char_traitsIcEENS_9allocatorIcEEEENS6_IS8_EEEEEESC_EEbRKNS1_IT_EERKNS1_IT0_EE, symObjAddr: 0x2DA4C, symBinAddr: 0x100032C00, symSize: 0x60 }
  - { offsetInCU: 0x29BFF, offset: 0x340E9, size: 0x8, addend: 0x0, symName: __ZNSt3__112__to_addressB7v160006INS_16reverse_iteratorINS1_IPNS_6vectorINS_12basic_stringIcNS_11char_traitsIcEENS_9allocatorIcEEEENS6_IS8_EEEEEEEEvEENS_5decayIDTclsr19__to_address_helperIT_EE6__callclsr3stdE7declvalIRKSF_EEEEE4typeESH_, symObjAddr: 0x2DAD8, symBinAddr: 0x100032C8C, symSize: 0x24 }
  - { offsetInCU: 0x29C60, offset: 0x3414A, size: 0x8, addend: 0x0, symName: __ZNSt3__1eqB7v160006IPNS_6vectorINS_12basic_stringIcNS_11char_traitsIcEENS_9allocatorIcEEEENS5_IS7_EEEEEEbRKNS_11__wrap_iterIT_EESF_, symObjAddr: 0x2DF74, symBinAddr: 0x100033128, symSize: 0x48 }
  - { offsetInCU: 0x29CA4, offset: 0x3418E, size: 0x8, addend: 0x0, symName: __ZNSt3__118__debug_db_erase_cB7v160006INS_6vectorINS1_INS_12basic_stringIcNS_11char_traitsIcEENS_9allocatorIcEEEENS5_IS7_EEEENS5_IS9_EEEEEEvPT_, symObjAddr: 0x2E108, symBinAddr: 0x1000332BC, symSize: 0x10 }
  - { offsetInCU: 0x29CD5, offset: 0x341BF, size: 0x8, addend: 0x0, symName: __ZNSt3__118__debug_db_erase_cB7v160006INS_6vectorINS_4pairINS_12basic_stringIcNS_11char_traitsIcEENS_9allocatorIcEEEEjEENS6_IS9_EEEEEEvPT_, symObjAddr: 0x2E300, symBinAddr: 0x1000334B4, symSize: 0x10 }
  - { offsetInCU: 0x29D06, offset: 0x341F0, size: 0x8, addend: 0x0, symName: __ZNSt3__118__debug_db_erase_cB7v160006INS_12__hash_tableINS_17__hash_value_typeINS_12basic_stringIcNS_11char_traitsIcEENS_9allocatorIcEEEE5TableEENS_22__unordered_map_hasherIS8_SA_NS_4hashIS8_EENS_8equal_toIS8_EELb1EEENS_21__unordered_map_equalIS8_SA_SF_SD_Lb1EEENS6_ISA_EEEEEEvPT_, symObjAddr: 0x2E674, symBinAddr: 0x100033828, symSize: 0x10 }
  - { offsetInCU: 0x2A573, offset: 0x34A5D, size: 0x8, addend: 0x0, symName: __ZSt28__throw_bad_array_new_lengthB7v160006v, symObjAddr: 0x759C, symBinAddr: 0x10000E3A8, symSize: 0x34 }
  - { offsetInCU: 0x2B11E, offset: 0x35608, size: 0x8, addend: 0x0, symName: __ZNSt3__16vectorINS_12basic_stringIcNS_11char_traitsIcEENS_9allocatorIcEEEENS4_IS6_EEE26__swap_out_circular_bufferERNS_14__split_bufferIS6_RS7_EE, symObjAddr: 0x6C6C, symBinAddr: 0x10000DB2C, symSize: 0x118 }
  - { offsetInCU: 0x2B32C, offset: 0x35816, size: 0x8, addend: 0x0, symName: __ZNSt3__16vectorI10ColumnTypeNS_9allocatorIS1_EEE26__swap_out_circular_bufferERNS_14__split_bufferIS1_RS3_EE, symObjAddr: 0x8C30, symBinAddr: 0x10000F974, symSize: 0x118 }
  - { offsetInCU: 0x2C2BA, offset: 0x367A4, size: 0x8, addend: 0x0, symName: __ZNSt3__16vectorINS0_INS_7variantIJidbNS_12basic_stringIcNS_11char_traitsIcEENS_9allocatorIcEEEEEEENS5_IS8_EEEENS5_ISA_EEE26__swap_out_circular_bufferERNS_14__split_bufferISA_RSB_EE, symObjAddr: 0x1C8B4, symBinAddr: 0x100021A98, symSize: 0x118 }
  - { offsetInCU: 0x2C338, offset: 0x36822, size: 0x8, addend: 0x0, symName: __ZNSt3__16vectorINS_7variantIJidbNS_12basic_stringIcNS_11char_traitsIcEENS_9allocatorIcEEEEEEENS5_IS8_EEE26__swap_out_circular_bufferERNS_14__split_bufferIS8_RS9_EE, symObjAddr: 0x1DDBC, symBinAddr: 0x100022FA0, symSize: 0x118 }
  - { offsetInCU: 0x2C3C0, offset: 0x368AA, size: 0x8, addend: 0x0, symName: __ZNSt3__16vectorIjNS_9allocatorIjEEE26__swap_out_circular_bufferERNS_14__split_bufferIjRS2_EE, symObjAddr: 0x2346C, symBinAddr: 0x100028620, symSize: 0x118 }
  - { offsetInCU: 0x2C60B, offset: 0x36AF5, size: 0x8, addend: 0x0, symName: __ZN5Silly5printEv, symObjAddr: 0x1F48, symBinAddr: 0x10000916C, symSize: 0xE84 }
  - { offsetInCU: 0x2CB30, offset: 0x3701A, size: 0x8, addend: 0x0, symName: __ZNSt3__16vectorINS_4pairINS_12basic_stringIcNS_11char_traitsIcEENS_9allocatorIcEEEEjEENS5_IS8_EEE26__swap_out_circular_bufferERNS_14__split_bufferIS8_RS9_EE, symObjAddr: 0x29FEC, symBinAddr: 0x10002F1A0, symSize: 0x118 }
  - { offsetInCU: 0x2CBC2, offset: 0x370AC, size: 0x8, addend: 0x0, symName: __ZN5Silly4joinEv, symObjAddr: 0x3744, symBinAddr: 0x10000A968, symSize: 0xF04 }
  - { offsetInCU: 0x2D19D, offset: 0x37687, size: 0x8, addend: 0x0, symName: __ZNSt3__16vectorINS0_INS_12basic_stringIcNS_11char_traitsIcEENS_9allocatorIcEEEENS4_IS6_EEEENS4_IS8_EEE26__swap_out_circular_bufferERNS_14__split_bufferIS8_RS9_EE, symObjAddr: 0x2CB18, symBinAddr: 0x100031CCC, symSize: 0x118 }
  - { offsetInCU: 0x2EF98, offset: 0x39482, size: 0x8, addend: 0x0, symName: _main, symObjAddr: 0x0, symBinAddr: 0x1000073B0, symSize: 0xE4 }
  - { offsetInCU: 0x2F05B, offset: 0x39545, size: 0x8, addend: 0x0, symName: __ZNSt3__113basic_istreamIcNS_11char_traitsIcEEErsB7v160006EPFRNS_8ios_baseES5_E, symObjAddr: 0xE4, symBinAddr: 0x100007494, symSize: 0x40 }
  - { offsetInCU: 0x2F08E, offset: 0x39578, size: 0x8, addend: 0x0, symName: __ZNSt3__113basic_ostreamIcNS_11char_traitsIcEEElsB7v160006EPFRNS_8ios_baseES5_E, symObjAddr: 0x150, symBinAddr: 0x100007500, symSize: 0x40 }
  - { offsetInCU: 0x2F0C1, offset: 0x395AB, size: 0x8, addend: 0x0, symName: __ZN5SillyC1Ev, symObjAddr: 0x190, symBinAddr: 0x100007540, symSize: 0x2C }
  - { offsetInCU: 0x2F0EC, offset: 0x395D6, size: 0x8, addend: 0x0, symName: __ZN5Silly7getModeEiPPc, symObjAddr: 0x1BC, symBinAddr: 0x10000756C, symSize: 0x138 }
  - { offsetInCU: 0x2F157, offset: 0x39641, size: 0x8, addend: 0x0, symName: __ZN5Silly6readInEv, symObjAddr: 0x2F4, symBinAddr: 0x1000076A4, symSize: 0x24C }
  - { offsetInCU: 0x2F17C, offset: 0x39666, size: 0x8, addend: 0x0, symName: __ZNSt3__113basic_ostreamIcNS_11char_traitsIcEEElsB7v160006EPFRS3_S4_E, symObjAddr: 0x588, symBinAddr: 0x100007938, symSize: 0x2C }
  - { offsetInCU: 0x2F1AF, offset: 0x39699, size: 0x8, addend: 0x0, symName: __ZN5SillyD1Ev, symObjAddr: 0x60C, symBinAddr: 0x1000079BC, symSize: 0x2C }
  - { offsetInCU: 0x2F1DA, offset: 0x396C4, size: 0x8, addend: 0x0, symName: __ZNSt3__18ios_base4setfB7v160006Ej, symObjAddr: 0x638, symBinAddr: 0x1000079E8, symSize: 0x34 }
  - { offsetInCU: 0x2F21F, offset: 0x39709, size: 0x8, addend: 0x0, symName: __ZN5SillyC2Ev, symObjAddr: 0x66C, symBinAddr: 0x100007A1C, symSize: 0x4C }
  - { offsetInCU: 0x2F24A, offset: 0x39734, size: 0x8, addend: 0x0, symName: __ZNSt3__112basic_stringIcNS_11char_traitsIcEENS_9allocatorIcEEEC1B7v160006Ev, symObjAddr: 0x6B8, symBinAddr: 0x100007A68, symSize: 0x2C }
  - { offsetInCU: 0x2F272, offset: 0x3975C, size: 0x8, addend: 0x0, symName: __ZNSt3__113unordered_mapINS_12basic_stringIcNS_11char_traitsIcEENS_9allocatorIcEEEE5TableNS_4hashIS6_EENS_8equal_toIS6_EENS4_INS_4pairIKS6_S7_EEEEEC1B7v160006Ev, symObjAddr: 0x6E4, symBinAddr: 0x100007A94, symSize: 0x2C }
  - { offsetInCU: 0x2F29A, offset: 0x39784, size: 0x8, addend: 0x0, symName: __ZNSt3__112basic_stringIcNS_11char_traitsIcEENS_9allocatorIcEEEC2B7v160006Ev, symObjAddr: 0x710, symBinAddr: 0x100007AC0, symSize: 0x54 }
  - { offsetInCU: 0x2F2C7, offset: 0x397B1, size: 0x8, addend: 0x0, symName: __ZNSt3__113unordered_mapINS_12basic_stringIcNS_11char_traitsIcEENS_9allocatorIcEEEE5TableNS_4hashIS6_EENS_8equal_toIS6_EENS4_INS_4pairIKS6_S7_EEEEEC2B7v160006Ev, symObjAddr: 0x8F0, symBinAddr: 0x100007B14, symSize: 0x3C }
  - { offsetInCU: 0x2F2EF, offset: 0x397D9, size: 0x8, addend: 0x0, symName: __ZNSt3__112__hash_tableINS_17__hash_value_typeINS_12basic_stringIcNS_11char_traitsIcEENS_9allocatorIcEEEE5TableEENS_22__unordered_map_hasherIS7_S9_NS_4hashIS7_EENS_8equal_toIS7_EELb1EEENS_21__unordered_map_equalIS7_S9_SE_SC_Lb1EEENS5_IS9_EEEC1Ev, symObjAddr: 0x92C, symBinAddr: 0x100007B50, symSize: 0x2C }
  - { offsetInCU: 0x2F31A, offset: 0x39804, size: 0x8, addend: 0x0, symName: __ZNSt3__112__hash_tableINS_17__hash_value_typeINS_12basic_stringIcNS_11char_traitsIcEENS_9allocatorIcEEEE5TableEENS_22__unordered_map_hasherIS7_S9_NS_4hashIS7_EENS_8equal_toIS7_EELb1EEENS_21__unordered_map_equalIS7_S9_SE_SC_Lb1EEENS5_IS9_EEEC2Ev, symObjAddr: 0x968, symBinAddr: 0x100007B8C, symSize: 0x7C }
  - { offsetInCU: 0x2F345, offset: 0x3982F, size: 0x8, addend: 0x0, symName: __ZNSt3__110unique_ptrIA_PNS_16__hash_node_baseIPNS_11__hash_nodeINS_17__hash_value_typeINS_12basic_stringIcNS_11char_traitsIcEENS_9allocatorIcEEEE5TableEEPvEEEENS_25__bucket_list_deallocatorINS7_ISG_EEEEEC1B7v160006ILb1EvEEv, symObjAddr: 0x9E4, symBinAddr: 0x100007C08, symSize: 0x2C }
  - { offsetInCU: 0x2F379, offset: 0x39863, size: 0x8, addend: 0x0, symName: __ZNSt3__117__compressed_pairINS_16__hash_node_baseIPNS_11__hash_nodeINS_17__hash_value_typeINS_12basic_stringIcNS_11char_traitsIcEENS_9allocatorIcEEEE5TableEEPvEEEENS7_ISD_EEEC1B7v160006ILb1EvEEv, symObjAddr: 0xA10, symBinAddr: 0x100007C34, symSize: 0x2C }
  - { offsetInCU: 0x2F3B2, offset: 0x3989C, size: 0x8, addend: 0x0, symName: __ZNSt3__117__compressed_pairImNS_22__unordered_map_hasherINS_12basic_stringIcNS_11char_traitsIcEENS_9allocatorIcEEEENS_17__hash_value_typeIS7_5TableEENS_4hashIS7_EENS_8equal_toIS7_EELb1EEEEC1B7v160006IiNS_18__default_init_tagEEEOT_OT0_, symObjAddr: 0xA3C, symBinAddr: 0x100007C60, symSize: 0x3C }
  - { offsetInCU: 0x2F40D, offset: 0x398F7, size: 0x8, addend: 0x0, symName: __ZNSt3__117__compressed_pairIfNS_21__unordered_map_equalINS_12basic_stringIcNS_11char_traitsIcEENS_9allocatorIcEEEENS_17__hash_value_typeIS7_5TableEENS_8equal_toIS7_EENS_4hashIS7_EELb1EEEEC1B7v160006IfNS_18__default_init_tagEEEOT_OT0_, symObjAddr: 0xA78, symBinAddr: 0x100007C9C, symSize: 0x3C }
  - { offsetInCU: 0x2F463, offset: 0x3994D, size: 0x8, addend: 0x0, symName: __ZNSt3__110unique_ptrIA_PNS_16__hash_node_baseIPNS_11__hash_nodeINS_17__hash_value_typeINS_12basic_stringIcNS_11char_traitsIcEENS_9allocatorIcEEEE5TableEEPvEEEENS_25__bucket_list_deallocatorINS7_ISG_EEEEEC2B7v160006ILb1EvEEv, symObjAddr: 0xAB4, symBinAddr: 0x100007CD8, symSize: 0x3C }
  - { offsetInCU: 0x2F49C, offset: 0x39986, size: 0x8, addend: 0x0, symName: __ZNSt3__117__compressed_pairIPPNS_16__hash_node_baseIPNS_11__hash_nodeINS_17__hash_value_typeINS_12basic_stringIcNS_11char_traitsIcEENS_9allocatorIcEEEE5TableEEPvEEEENS_25__bucket_list_deallocatorINS7_ISG_EEEEEC1B7v160006INS_16__value_init_tagESN_EEOT_OT0_, symObjAddr: 0xAF0, symBinAddr: 0x100007D14, symSize: 0x3C }
  - { offsetInCU: 0x2F4F2, offset: 0x399DC, size: 0x8, addend: 0x0, symName: __ZNSt3__117__compressed_pairIPPNS_16__hash_node_baseIPNS_11__hash_nodeINS_17__hash_value_typeINS_12basic_stringIcNS_11char_traitsIcEENS_9allocatorIcEEEE5TableEEPvEEEENS_25__bucket_list_deallocatorINS7_ISG_EEEEEC2B7v160006INS_16__value_init_tagESN_EEOT_OT0_, symObjAddr: 0xB2C, symBinAddr: 0x100007D50, symSize: 0x40 }
  - { offsetInCU: 0x2F548, offset: 0x39A32, size: 0x8, addend: 0x0, symName: __ZNSt3__122__compressed_pair_elemIPPNS_16__hash_node_baseIPNS_11__hash_nodeINS_17__hash_value_typeINS_12basic_stringIcNS_11char_traitsIcEENS_9allocatorIcEEEE5TableEEPvEEEELi0ELb0EEC2B7v160006ENS_16__value_init_tagE, symObjAddr: 0xB6C, symBinAddr: 0x100007D90, symSize: 0x18 }
  - { offsetInCU: 0x2F57C, offset: 0x39A66, size: 0x8, addend: 0x0, symName: __ZNSt3__122__compressed_pair_elemINS_25__bucket_list_deallocatorINS_9allocatorIPNS_16__hash_node_baseIPNS_11__hash_nodeINS_17__hash_value_typeINS_12basic_stringIcNS_11char_traitsIcEENS2_IcEEEE5TableEEPvEEEEEEEELi1ELb0EEC2B7v160006ENS_16__value_init_tagE, symObjAddr: 0xB84, symBinAddr: 0x100007DA8, symSize: 0x2C }
  - { offsetInCU: 0x2F5AF, offset: 0x39A99, size: 0x8, addend: 0x0, symName: __ZNSt3__125__bucket_list_deallocatorINS_9allocatorIPNS_16__hash_node_baseIPNS_11__hash_nodeINS_17__hash_value_typeINS_12basic_stringIcNS_11char_traitsIcEENS1_IcEEEE5TableEEPvEEEEEEEC1B7v160006Ev, symObjAddr: 0xBB0, symBinAddr: 0x100007DD4, symSize: 0x2C }
  - { offsetInCU: 0x2F5D7, offset: 0x39AC1, size: 0x8, addend: 0x0, symName: __ZNSt3__125__bucket_list_deallocatorINS_9allocatorIPNS_16__hash_node_baseIPNS_11__hash_nodeINS_17__hash_value_typeINS_12basic_stringIcNS_11char_traitsIcEENS1_IcEEEE5TableEEPvEEEEEEEC2B7v160006Ev, symObjAddr: 0xBDC, symBinAddr: 0x100007E00, symSize: 0x40 }
  - { offsetInCU: 0x2F5FF, offset: 0x39AE9, size: 0x8, addend: 0x0, symName: __ZNSt3__117__compressed_pairImNS_9allocatorIPNS_16__hash_node_baseIPNS_11__hash_nodeINS_17__hash_value_typeINS_12basic_stringIcNS_11char_traitsIcEENS1_IcEEEE5TableEEPvEEEEEEEC1B7v160006IiNS_18__default_init_tagEEEOT_OT0_, symObjAddr: 0xC1C, symBinAddr: 0x100007E40, symSize: 0x3C }
  - { offsetInCU: 0x2F655, offset: 0x39B3F, size: 0x8, addend: 0x0, symName: __ZNSt3__117__compressed_pairImNS_9allocatorIPNS_16__hash_node_baseIPNS_11__hash_nodeINS_17__hash_value_typeINS_12basic_stringIcNS_11char_traitsIcEENS1_IcEEEE5TableEEPvEEEEEEEC2B7v160006IiNS_18__default_init_tagEEEOT_OT0_, symObjAddr: 0xC58, symBinAddr: 0x100007E7C, symSize: 0x40 }
  - { offsetInCU: 0x2F6AB, offset: 0x39B95, size: 0x8, addend: 0x0, symName: __ZNSt3__122__compressed_pair_elemImLi0ELb0EEC2B7v160006IivEEOT_, symObjAddr: 0xC98, symBinAddr: 0x100007EBC, symSize: 0x24 }
  - { offsetInCU: 0x2F6ED, offset: 0x39BD7, size: 0x8, addend: 0x0, symName: __ZNSt3__122__compressed_pair_elemINS_9allocatorIPNS_16__hash_node_baseIPNS_11__hash_nodeINS_17__hash_value_typeINS_12basic_stringIcNS_11char_traitsIcEENS1_IcEEEE5TableEEPvEEEEEELi1ELb1EEC2B7v160006ENS_18__default_init_tagE, symObjAddr: 0xCBC, symBinAddr: 0x100007EE0, symSize: 0x2C }
  - { offsetInCU: 0x2F720, offset: 0x39C0A, size: 0x8, addend: 0x0, symName: __ZNSt3__19allocatorIPNS_16__hash_node_baseIPNS_11__hash_nodeINS_17__hash_value_typeINS_12basic_stringIcNS_11char_traitsIcEENS0_IcEEEE5TableEEPvEEEEEC2B7v160006Ev, symObjAddr: 0xCE8, symBinAddr: 0x100007F0C, symSize: 0x2C }
  - { offsetInCU: 0x2F748, offset: 0x39C32, size: 0x8, addend: 0x0, symName: __ZNSt3__116__non_trivial_ifILb1ENS_9allocatorIPNS_16__hash_node_baseIPNS_11__hash_nodeINS_17__hash_value_typeINS_12basic_stringIcNS_11char_traitsIcEENS1_IcEEEE5TableEEPvEEEEEEEC2B7v160006Ev, symObjAddr: 0xD14, symBinAddr: 0x100007F38, symSize: 0x14 }
  - { offsetInCU: 0x2F771, offset: 0x39C5B, size: 0x8, addend: 0x0, symName: __ZNSt3__117__compressed_pairINS_16__hash_node_baseIPNS_11__hash_nodeINS_17__hash_value_typeINS_12basic_stringIcNS_11char_traitsIcEENS_9allocatorIcEEEE5TableEEPvEEEENS7_ISD_EEEC2B7v160006ILb1EvEEv, symObjAddr: 0xD28, symBinAddr: 0x100007F4C, symSize: 0x34 }
  - { offsetInCU: 0x2F7A5, offset: 0x39C8F, size: 0x8, addend: 0x0, symName: __ZNSt3__122__compressed_pair_elemINS_16__hash_node_baseIPNS_11__hash_nodeINS_17__hash_value_typeINS_12basic_stringIcNS_11char_traitsIcEENS_9allocatorIcEEEE5TableEEPvEEEELi0ELb0EEC2B7v160006ENS_16__value_init_tagE, symObjAddr: 0xD5C, symBinAddr: 0x100007F80, symSize: 0x2C }
  - { offsetInCU: 0x2F7D8, offset: 0x39CC2, size: 0x8, addend: 0x0, symName: __ZNSt3__122__compressed_pair_elemINS_9allocatorINS_11__hash_nodeINS_17__hash_value_typeINS_12basic_stringIcNS_11char_traitsIcEENS1_IcEEEE5TableEEPvEEEELi1ELb1EEC2B7v160006ENS_16__value_init_tagE, symObjAddr: 0xD88, symBinAddr: 0x100007FAC, symSize: 0x2C }
  - { offsetInCU: 0x2F80B, offset: 0x39CF5, size: 0x8, addend: 0x0, symName: __ZNSt3__116__hash_node_baseIPNS_11__hash_nodeINS_17__hash_value_typeINS_12basic_stringIcNS_11char_traitsIcEENS_9allocatorIcEEEE5TableEEPvEEEC1B7v160006Ev, symObjAddr: 0xDB4, symBinAddr: 0x100007FD8, symSize: 0x2C }
  - { offsetInCU: 0x2F833, offset: 0x39D1D, size: 0x8, addend: 0x0, symName: __ZNSt3__116__hash_node_baseIPNS_11__hash_nodeINS_17__hash_value_typeINS_12basic_stringIcNS_11char_traitsIcEENS_9allocatorIcEEEE5TableEEPvEEEC2B7v160006Ev, symObjAddr: 0xDE0, symBinAddr: 0x100008004, symSize: 0x18 }
  - { offsetInCU: 0x2F85C, offset: 0x39D46, size: 0x8, addend: 0x0, symName: __ZNSt3__19allocatorINS_11__hash_nodeINS_17__hash_value_typeINS_12basic_stringIcNS_11char_traitsIcEENS0_IcEEEE5TableEEPvEEEC2B7v160006Ev, symObjAddr: 0xDF8, symBinAddr: 0x10000801C, symSize: 0x2C }
  - { offsetInCU: 0x2F884, offset: 0x39D6E, size: 0x8, addend: 0x0, symName: __ZNSt3__116__non_trivial_ifILb1ENS_9allocatorINS_11__hash_nodeINS_17__hash_value_typeINS_12basic_stringIcNS_11char_traitsIcEENS1_IcEEEE5TableEEPvEEEEEC2B7v160006Ev, symObjAddr: 0xE24, symBinAddr: 0x100008048, symSize: 0x14 }
  - { offsetInCU: 0x2F8AD, offset: 0x39D97, size: 0x8, addend: 0x0, symName: __ZNSt3__117__compressed_pairImNS_22__unordered_map_hasherINS_12basic_stringIcNS_11char_traitsIcEENS_9allocatorIcEEEENS_17__hash_value_typeIS7_5TableEENS_4hashIS7_EENS_8equal_toIS7_EELb1EEEEC2B7v160006IiNS_18__default_init_tagEEEOT_OT0_, symObjAddr: 0xE38, symBinAddr: 0x10000805C, symSize: 0x40 }
  - { offsetInCU: 0x2F903, offset: 0x39DED, size: 0x8, addend: 0x0, symName: __ZNSt3__122__compressed_pair_elemINS_22__unordered_map_hasherINS_12basic_stringIcNS_11char_traitsIcEENS_9allocatorIcEEEENS_17__hash_value_typeIS7_5TableEENS_4hashIS7_EENS_8equal_toIS7_EELb1EEELi1ELb1EEC2B7v160006ENS_18__default_init_tagE, symObjAddr: 0xE78, symBinAddr: 0x10000809C, symSize: 0x2C }
  - { offsetInCU: 0x2F936, offset: 0x39E20, size: 0x8, addend: 0x0, symName: __ZNSt3__122__unordered_map_hasherINS_12basic_stringIcNS_11char_traitsIcEENS_9allocatorIcEEEENS_17__hash_value_typeIS6_5TableEENS_4hashIS6_EENS_8equal_toIS6_EELb1EEC2B7v160006Ev, symObjAddr: 0xEA4, symBinAddr: 0x1000080C8, symSize: 0x14 }
  - { offsetInCU: 0x2F95F, offset: 0x39E49, size: 0x8, addend: 0x0, symName: __ZNSt3__117__compressed_pairIfNS_21__unordered_map_equalINS_12basic_stringIcNS_11char_traitsIcEENS_9allocatorIcEEEENS_17__hash_value_typeIS7_5TableEENS_8equal_toIS7_EENS_4hashIS7_EELb1EEEEC2B7v160006IfNS_18__default_init_tagEEEOT_OT0_, symObjAddr: 0xEB8, symBinAddr: 0x1000080DC, symSize: 0x40 }
  - { offsetInCU: 0x2F9B5, offset: 0x39E9F, size: 0x8, addend: 0x0, symName: __ZNSt3__122__compressed_pair_elemIfLi0ELb0EEC2B7v160006IfvEEOT_, symObjAddr: 0xEF8, symBinAddr: 0x10000811C, symSize: 0x24 }
  - { offsetInCU: 0x2F9F7, offset: 0x39EE1, size: 0x8, addend: 0x0, symName: __ZNSt3__122__compressed_pair_elemINS_21__unordered_map_equalINS_12basic_stringIcNS_11char_traitsIcEENS_9allocatorIcEEEENS_17__hash_value_typeIS7_5TableEENS_8equal_toIS7_EENS_4hashIS7_EELb1EEELi1ELb1EEC2B7v160006ENS_18__default_init_tagE, symObjAddr: 0xF1C, symBinAddr: 0x100008140, symSize: 0x2C }
  - { offsetInCU: 0x2FA2A, offset: 0x39F14, size: 0x8, addend: 0x0, symName: __ZNSt3__121__unordered_map_equalINS_12basic_stringIcNS_11char_traitsIcEENS_9allocatorIcEEEENS_17__hash_value_typeIS6_5TableEENS_8equal_toIS6_EENS_4hashIS6_EELb1EEC2B7v160006Ev, symObjAddr: 0xF48, symBinAddr: 0x10000816C, symSize: 0x14 }
  - { offsetInCU: 0x2FA53, offset: 0x39F3D, size: 0x8, addend: 0x0, symName: __ZN5Silly9printHelpEPc, symObjAddr: 0xF5C, symBinAddr: 0x100008180, symSize: 0x48 }
  - { offsetInCU: 0x2FA86, offset: 0x39F70, size: 0x8, addend: 0x0, symName: __ZNKSt3__19basic_iosIcNS_11char_traitsIcEEE4failB7v160006Ev, symObjAddr: 0xFA4, symBinAddr: 0x1000081C8, symSize: 0x28 }
  - { offsetInCU: 0x2FAAB, offset: 0x39F95, size: 0x8, addend: 0x0, symName: __ZN5Silly6createEv, symObjAddr: 0x1394, symBinAddr: 0x1000085B8, symSize: 0x47C }
  - { offsetInCU: 0x2FB93, offset: 0x3A07D, size: 0x8, addend: 0x0, symName: __ZN5Silly6removeEv, symObjAddr: 0x186C, symBinAddr: 0x100008A90, symSize: 0x16C }
  - { offsetInCU: 0x2FBC6, offset: 0x3A0B0, size: 0x8, addend: 0x0, symName: __ZN5Silly6insertEv, symObjAddr: 0x19D8, symBinAddr: 0x100008BFC, symSize: 0x560 }
  - { offsetInCU: 0x2FCC4, offset: 0x3A1AE, size: 0x8, addend: 0x0, symName: __ZN5Silly9deleteRowEv, symObjAddr: 0x2DDC, symBinAddr: 0x10000A000, symSize: 0x958 }
  - { offsetInCU: 0x2FE63, offset: 0x3A34D, size: 0x8, addend: 0x0, symName: __ZN5Silly12userGenerateEv, symObjAddr: 0x4648, symBinAddr: 0x10000B86C, symSize: 0x4B4 }
  - { offsetInCU: 0x2FEE7, offset: 0x3A3D1, size: 0x8, addend: 0x0, symName: __ZNKSt3__18ios_base4failB7v160006Ev, symObjAddr: 0x4B30, symBinAddr: 0x10000BD54, symSize: 0x28 }
  - { offsetInCU: 0x2FF2C, offset: 0x3A416, size: 0x8, addend: 0x0, symName: __ZNKSt3__113basic_istreamIcNS_11char_traitsIcEEE6sentrycvbB7v160006Ev, symObjAddr: 0x4B58, symBinAddr: 0x10000BD7C, symSize: 0x1C }
  - { offsetInCU: 0x2FF51, offset: 0x3A43B, size: 0x8, addend: 0x0, symName: __ZNSt3__112basic_stringIcNS_11char_traitsIcEENS_9allocatorIcEEE5clearB7v160006Ev, symObjAddr: 0x4B74, symBinAddr: 0x10000BD98, symSize: 0x88 }
  - { offsetInCU: 0x2FF78, offset: 0x3A462, size: 0x8, addend: 0x0, symName: __ZNKSt3__112basic_stringIcNS_11char_traitsIcEENS_9allocatorIcEEE8max_sizeB7v160006Ev, symObjAddr: 0x4C14, symBinAddr: 0x10000BE20, symSize: 0xAC }
  - { offsetInCU: 0x2FFCA, offset: 0x3A4B4, size: 0x8, addend: 0x0, symName: __ZNSt3__114numeric_limitsIlE3maxB7v160006Ev, symObjAddr: 0x4CC0, symBinAddr: 0x10000BECC, symSize: 0x14 }
  - { offsetInCU: 0x2FFDE, offset: 0x3A4C8, size: 0x8, addend: 0x0, symName: __ZNSt3__115basic_streambufIcNS_11char_traitsIcEEE5sgetcB7v160006Ev, symObjAddr: 0x4D24, symBinAddr: 0x10000BEE0, symSize: 0x70 }
  - { offsetInCU: 0x30003, offset: 0x3A4ED, size: 0x8, addend: 0x0, symName: __ZNSt3__111char_traitsIcE12to_char_typeEi, symObjAddr: 0x4DC4, symBinAddr: 0x10000BF50, symSize: 0x18 }
  - { offsetInCU: 0x3002B, offset: 0x3A515, size: 0x8, addend: 0x0, symName: __ZNKSt3__15ctypeIcE2isB7v160006Ejc, symObjAddr: 0x4DDC, symBinAddr: 0x10000BF68, symSize: 0x7C }
  - { offsetInCU: 0x3006E, offset: 0x3A558, size: 0x8, addend: 0x0, symName: __ZNSt3__115basic_streambufIcNS_11char_traitsIcEEE6sbumpcB7v160006Ev, symObjAddr: 0x4E58, symBinAddr: 0x10000BFE4, symSize: 0x78 }
  - { offsetInCU: 0x30093, offset: 0x3A57D, size: 0x8, addend: 0x0, symName: __ZNSt3__18ios_base18__setstate_nothrowB7v160006Ej, symObjAddr: 0x4EFC, symBinAddr: 0x10000C05C, symSize: 0x64 }
  - { offsetInCU: 0x300C7, offset: 0x3A5B1, size: 0x8, addend: 0x0, symName: __ZNKSt3__19basic_iosIcNS_11char_traitsIcEEE10exceptionsB7v160006Ev, symObjAddr: 0x4F60, symBinAddr: 0x10000C0C0, symSize: 0x24 }
  - { offsetInCU: 0x300EC, offset: 0x3A5D6, size: 0x8, addend: 0x0, symName: __ZNSt3__111char_traitsIcE6assignERcRKc, symObjAddr: 0x4FF8, symBinAddr: 0x10000C0F4, symSize: 0x24 }
  - { offsetInCU: 0x3011D, offset: 0x3A607, size: 0x8, addend: 0x0, symName: __ZNSt3__112basic_stringIcNS_11char_traitsIcEENS_9allocatorIcEEE15__set_long_sizeB7v160006Em, symObjAddr: 0x5044, symBinAddr: 0x10000C118, symSize: 0x38 }
  - { offsetInCU: 0x30151, offset: 0x3A63B, size: 0x8, addend: 0x0, symName: __ZNSt3__112basic_stringIcNS_11char_traitsIcEENS_9allocatorIcEEE16__set_short_sizeB7v160006Em, symObjAddr: 0x50A4, symBinAddr: 0x10000C150, symSize: 0x78 }
  - { offsetInCU: 0x3018F, offset: 0x3A679, size: 0x8, addend: 0x0, symName: __ZNSt3__116allocator_traitsINS_9allocatorIcEEE8max_sizeB7v160006IS2_vEEmRKS2_, symObjAddr: 0x5168, symBinAddr: 0x10000C1C8, symSize: 0x24 }
  - { offsetInCU: 0x301BE, offset: 0x3A6A8, size: 0x8, addend: 0x0, symName: __ZNKSt3__112basic_stringIcNS_11char_traitsIcEENS_9allocatorIcEEE7__allocB7v160006Ev, symObjAddr: 0x518C, symBinAddr: 0x10000C1EC, symSize: 0x24 }
  - { offsetInCU: 0x301E3, offset: 0x3A6CD, size: 0x8, addend: 0x0, symName: __ZNSt3__114numeric_limitsImE3maxB7v160006Ev, symObjAddr: 0x51B0, symBinAddr: 0x10000C210, symSize: 0x14 }
  - { offsetInCU: 0x301F7, offset: 0x3A6E1, size: 0x8, addend: 0x0, symName: __ZNKSt3__19allocatorIcE8max_sizeB7v160006Ev, symObjAddr: 0x51C4, symBinAddr: 0x10000C224, symSize: 0x14 }
  - { offsetInCU: 0x3021C, offset: 0x3A706, size: 0x8, addend: 0x0, symName: __ZNKSt3__117__compressed_pairINS_12basic_stringIcNS_11char_traitsIcEENS_9allocatorIcEEE5__repES5_E6secondB7v160006Ev, symObjAddr: 0x51D8, symBinAddr: 0x10000C238, symSize: 0x24 }
  - { offsetInCU: 0x30241, offset: 0x3A72B, size: 0x8, addend: 0x0, symName: __ZNKSt3__122__compressed_pair_elemINS_9allocatorIcEELi1ELb1EE5__getB7v160006Ev, symObjAddr: 0x51FC, symBinAddr: 0x10000C25C, symSize: 0x14 }
  - { offsetInCU: 0x30266, offset: 0x3A750, size: 0x8, addend: 0x0, symName: __ZNSt3__123__libcpp_numeric_limitsImLb1EE3maxB7v160006Ev, symObjAddr: 0x5210, symBinAddr: 0x10000C270, symSize: 0x8 }
  - { offsetInCU: 0x3027A, offset: 0x3A764, size: 0x8, addend: 0x0, symName: __ZNSt3__123__libcpp_numeric_limitsIlLb1EE3maxB7v160006Ev, symObjAddr: 0x5218, symBinAddr: 0x10000C278, symSize: 0x8 }
  - { offsetInCU: 0x3028E, offset: 0x3A778, size: 0x8, addend: 0x0, symName: __ZNSt3__111char_traitsIcE11to_int_typeEc, symObjAddr: 0x5238, symBinAddr: 0x10000C280, symSize: 0x14 }
  - { offsetInCU: 0x302B1, offset: 0x3A79B, size: 0x8, addend: 0x0, symName: __Z7isasciii, symObjAddr: 0x524C, symBinAddr: 0x10000C294, symSize: 0x24 }
  - { offsetInCU: 0x302DD, offset: 0x3A7C7, size: 0x8, addend: 0x0, symName: __ZNKSt3__18ios_base10exceptionsB7v160006Ev, symObjAddr: 0x5270, symBinAddr: 0x10000C2B8, symSize: 0x18 }
  - { offsetInCU: 0x30309, offset: 0x3A7F3, size: 0x8, addend: 0x0, symName: __ZN5TableC1Ev, symObjAddr: 0x53C4, symBinAddr: 0x10000C2D0, symSize: 0x2C }
  - { offsetInCU: 0x30334, offset: 0x3A81E, size: 0x8, addend: 0x0, symName: __ZNSt3__16vectorINS_12basic_stringIcNS_11char_traitsIcEENS_9allocatorIcEEEENS4_IS6_EEE6resizeEm, symObjAddr: 0x53F0, symBinAddr: 0x10000C2FC, symSize: 0x9C }
  - { offsetInCU: 0x30379, offset: 0x3A863, size: 0x8, addend: 0x0, symName: __ZNSt3__16vectorI10ColumnTypeNS_9allocatorIS1_EEE6resizeEm, symObjAddr: 0x548C, symBinAddr: 0x10000C398, symSize: 0x94 }
  - { offsetInCU: 0x303BE, offset: 0x3A8A8, size: 0x8, addend: 0x0, symName: __ZNSt3__113unordered_mapINS_12basic_stringIcNS_11char_traitsIcEENS_9allocatorIcEEEE5TableNS_4hashIS6_EENS_8equal_toIS6_EENS4_INS_4pairIKS6_S7_EEEEE4findB7v160006ERSD_, symObjAddr: 0x5550, symBinAddr: 0x10000C45C, symSize: 0x40 }
  - { offsetInCU: 0x303F2, offset: 0x3A8DC, size: 0x8, addend: 0x0, symName: __ZNSt3__113unordered_mapINS_12basic_stringIcNS_11char_traitsIcEENS_9allocatorIcEEEE5TableNS_4hashIS6_EENS_8equal_toIS6_EENS4_INS_4pairIKS6_S7_EEEEE3endB7v160006Ev, symObjAddr: 0x5590, symBinAddr: 0x10000C49C, symSize: 0x38 }
  - { offsetInCU: 0x30417, offset: 0x3A901, size: 0x8, addend: 0x0, symName: __ZNSt3__16vectorI10ColumnTypeNS_9allocatorIS1_EEEixB7v160006Em, symObjAddr: 0x55C8, symBinAddr: 0x10000C4D4, symSize: 0x24 }
  - { offsetInCU: 0x3044D, offset: 0x3A937, size: 0x8, addend: 0x0, symName: __ZNSt3__16vectorINS_12basic_stringIcNS_11char_traitsIcEENS_9allocatorIcEEEENS4_IS6_EEEixB7v160006Em, symObjAddr: 0x55EC, symBinAddr: 0x10000C4F8, symSize: 0x2C }
  - { offsetInCU: 0x30483, offset: 0x3A96D, size: 0x8, addend: 0x0, symName: __ZNSt3__113unordered_mapINS_12basic_stringIcNS_11char_traitsIcEENS_9allocatorIcEEEE5TableNS_4hashIS6_EENS_8equal_toIS6_EENS4_INS_4pairIKS6_S7_EEEEEixERSD_, symObjAddr: 0x5618, symBinAddr: 0x10000C524, symSize: 0x80 }
  - { offsetInCU: 0x304C3, offset: 0x3A9AD, size: 0x8, addend: 0x0, symName: __ZN5TableaSERKS_, symObjAddr: 0x5698, symBinAddr: 0x10000C5A4, symSize: 0xE0 }
  - { offsetInCU: 0x304F3, offset: 0x3A9DD, size: 0x8, addend: 0x0, symName: __ZNSt3__16vectorINS_12basic_stringIcNS_11char_traitsIcEENS_9allocatorIcEEEENS4_IS6_EEE5beginB7v160006Ev, symObjAddr: 0x57C4, symBinAddr: 0x10000C684, symSize: 0x30 }
  - { offsetInCU: 0x3051A, offset: 0x3AA04, size: 0x8, addend: 0x0, symName: __ZNSt3__16vectorINS_12basic_stringIcNS_11char_traitsIcEENS_9allocatorIcEEEENS4_IS6_EEE3endB7v160006Ev, symObjAddr: 0x57F4, symBinAddr: 0x10000C6B4, symSize: 0x30 }
  - { offsetInCU: 0x30541, offset: 0x3AA2B, size: 0x8, addend: 0x0, symName: __ZNKSt3__111__wrap_iterIPNS_12basic_stringIcNS_11char_traitsIcEENS_9allocatorIcEEEEEdeB7v160006Ev, symObjAddr: 0x5858, symBinAddr: 0x10000C718, symSize: 0x18 }
  - { offsetInCU: 0x30566, offset: 0x3AA50, size: 0x8, addend: 0x0, symName: __ZNSt3__111__wrap_iterIPNS_12basic_stringIcNS_11char_traitsIcEENS_9allocatorIcEEEEEppB7v160006Ev, symObjAddr: 0x5870, symBinAddr: 0x10000C730, symSize: 0x20 }
  - { offsetInCU: 0x3058B, offset: 0x3AA75, size: 0x8, addend: 0x0, symName: __ZN5TableD1Ev, symObjAddr: 0x5890, symBinAddr: 0x10000C750, symSize: 0x2C }
  - { offsetInCU: 0x305B6, offset: 0x3AAA0, size: 0x8, addend: 0x0, symName: __ZN5TableC2Ev, symObjAddr: 0x58BC, symBinAddr: 0x10000C77C, symSize: 0x88 }
  - { offsetInCU: 0x305E1, offset: 0x3AACB, size: 0x8, addend: 0x0, symName: __ZNSt3__16vectorINS_12basic_stringIcNS_11char_traitsIcEENS_9allocatorIcEEEENS4_IS6_EEEC1B7v160006Ev, symObjAddr: 0x5944, symBinAddr: 0x10000C804, symSize: 0x2C }
  - { offsetInCU: 0x30609, offset: 0x3AAF3, size: 0x8, addend: 0x0, symName: __ZNSt3__16vectorI10ColumnTypeNS_9allocatorIS1_EEEC1B7v160006Ev, symObjAddr: 0x5970, symBinAddr: 0x10000C830, symSize: 0x2C }
  - { offsetInCU: 0x30631, offset: 0x3AB1B, size: 0x8, addend: 0x0, symName: __ZNSt3__16vectorINS0_INS_7variantIJidbNS_12basic_stringIcNS_11char_traitsIcEENS_9allocatorIcEEEEEEENS5_IS8_EEEENS5_ISA_EEEC1B7v160006Ev, symObjAddr: 0x599C, symBinAddr: 0x10000C85C, symSize: 0x2C }
  - { offsetInCU: 0x30659, offset: 0x3AB43, size: 0x8, addend: 0x0, symName: __ZNSt3__113unordered_mapINS_12basic_stringIcNS_11char_traitsIcEENS_9allocatorIcEEEENS_6vectorIjNS4_IjEEEENS_4hashIS6_EENS_8equal_toIS6_EENS4_INS_4pairIKS6_S9_EEEEEC1B7v160006Ev, symObjAddr: 0x59C8, symBinAddr: 0x10000C888, symSize: 0x2C }
  - { offsetInCU: 0x30681, offset: 0x3AB6B, size: 0x8, addend: 0x0, symName: __ZNSt3__13mapINS_7variantIJidbNS_12basic_stringIcNS_11char_traitsIcEENS_9allocatorIcEEEEEEENS_6vectorIjNS5_IjEEEENS_4lessIS8_EENS5_INS_4pairIKS8_SB_EEEEEC1B7v160006Ev, symObjAddr: 0x59F4, symBinAddr: 0x10000C8B4, symSize: 0x2C }
  - { offsetInCU: 0x306A9, offset: 0x3AB93, size: 0x8, addend: 0x0, symName: __ZNSt3__16vectorINS_12basic_stringIcNS_11char_traitsIcEENS_9allocatorIcEEEENS4_IS6_EEEC2B7v160006Ev, symObjAddr: 0x5A20, symBinAddr: 0x10000C8E0, symSize: 0x58 }
  - { offsetInCU: 0x306D6, offset: 0x3ABC0, size: 0x8, addend: 0x0, symName: __ZNSt3__117__compressed_pairIPNS_12basic_stringIcNS_11char_traitsIcEENS_9allocatorIcEEEENS4_IS6_EEEC1B7v160006IDnNS_18__default_init_tagEEEOT_OT0_, symObjAddr: 0x5A78, symBinAddr: 0x10000C938, symSize: 0x3C }
  - { offsetInCU: 0x3072C, offset: 0x3AC16, size: 0x8, addend: 0x0, symName: __ZNSt3__117__compressed_pairIPNS_12basic_stringIcNS_11char_traitsIcEENS_9allocatorIcEEEENS4_IS6_EEEC2B7v160006IDnNS_18__default_init_tagEEEOT_OT0_, symObjAddr: 0x5AC4, symBinAddr: 0x10000C984, symSize: 0x40 }
  - { offsetInCU: 0x30782, offset: 0x3AC6C, size: 0x8, addend: 0x0, symName: __ZNSt3__122__compressed_pair_elemIPNS_12basic_stringIcNS_11char_traitsIcEENS_9allocatorIcEEEELi0ELb0EEC2B7v160006IDnvEEOT_, symObjAddr: 0x5B04, symBinAddr: 0x10000C9C4, symSize: 0x1C }
  - { offsetInCU: 0x307C4, offset: 0x3ACAE, size: 0x8, addend: 0x0, symName: __ZNSt3__122__compressed_pair_elemINS_9allocatorINS_12basic_stringIcNS_11char_traitsIcEENS1_IcEEEEEELi1ELb1EEC2B7v160006ENS_18__default_init_tagE, symObjAddr: 0x5B20, symBinAddr: 0x10000C9E0, symSize: 0x2C }
  - { offsetInCU: 0x307F7, offset: 0x3ACE1, size: 0x8, addend: 0x0, symName: __ZNSt3__19allocatorINS_12basic_stringIcNS_11char_traitsIcEENS0_IcEEEEEC2B7v160006Ev, symObjAddr: 0x5B4C, symBinAddr: 0x10000CA0C, symSize: 0x2C }
  - { offsetInCU: 0x3081F, offset: 0x3AD09, size: 0x8, addend: 0x0, symName: __ZNSt3__116__non_trivial_ifILb1ENS_9allocatorINS_12basic_stringIcNS_11char_traitsIcEENS1_IcEEEEEEEC2B7v160006Ev, symObjAddr: 0x5B78, symBinAddr: 0x10000CA38, symSize: 0x14 }
  - { offsetInCU: 0x30848, offset: 0x3AD32, size: 0x8, addend: 0x0, symName: __ZNSt3__16vectorI10ColumnTypeNS_9allocatorIS1_EEEC2B7v160006Ev, symObjAddr: 0x5B8C, symBinAddr: 0x10000CA4C, symSize: 0x58 }
  - { offsetInCU: 0x30870, offset: 0x3AD5A, size: 0x8, addend: 0x0, symName: __ZNSt3__117__compressed_pairIP10ColumnTypeNS_9allocatorIS1_EEEC1B7v160006IDnNS_18__default_init_tagEEEOT_OT0_, symObjAddr: 0x5BE4, symBinAddr: 0x10000CAA4, symSize: 0x3C }
  - { offsetInCU: 0x308C6, offset: 0x3ADB0, size: 0x8, addend: 0x0, symName: __ZNSt3__117__compressed_pairIP10ColumnTypeNS_9allocatorIS1_EEEC2B7v160006IDnNS_18__default_init_tagEEEOT_OT0_, symObjAddr: 0x5C30, symBinAddr: 0x10000CAF0, symSize: 0x40 }
  - { offsetInCU: 0x3091C, offset: 0x3AE06, size: 0x8, addend: 0x0, symName: __ZNSt3__122__compressed_pair_elemIP10ColumnTypeLi0ELb0EEC2B7v160006IDnvEEOT_, symObjAddr: 0x5C70, symBinAddr: 0x10000CB30, symSize: 0x1C }
  - { offsetInCU: 0x3095E, offset: 0x3AE48, size: 0x8, addend: 0x0, symName: __ZNSt3__122__compressed_pair_elemINS_9allocatorI10ColumnTypeEELi1ELb1EEC2B7v160006ENS_18__default_init_tagE, symObjAddr: 0x5C8C, symBinAddr: 0x10000CB4C, symSize: 0x2C }
  - { offsetInCU: 0x30991, offset: 0x3AE7B, size: 0x8, addend: 0x0, symName: __ZNSt3__19allocatorI10ColumnTypeEC2B7v160006Ev, symObjAddr: 0x5CB8, symBinAddr: 0x10000CB78, symSize: 0x2C }
  - { offsetInCU: 0x309B9, offset: 0x3AEA3, size: 0x8, addend: 0x0, symName: __ZNSt3__116__non_trivial_ifILb1ENS_9allocatorI10ColumnTypeEEEC2B7v160006Ev, symObjAddr: 0x5CE4, symBinAddr: 0x10000CBA4, symSize: 0x14 }
  - { offsetInCU: 0x309E2, offset: 0x3AECC, size: 0x8, addend: 0x0, symName: __ZNSt3__16vectorINS0_INS_7variantIJidbNS_12basic_stringIcNS_11char_traitsIcEENS_9allocatorIcEEEEEEENS5_IS8_EEEENS5_ISA_EEEC2B7v160006Ev, symObjAddr: 0x5CF8, symBinAddr: 0x10000CBB8, symSize: 0x58 }
  - { offsetInCU: 0x30A0A, offset: 0x3AEF4, size: 0x8, addend: 0x0, symName: __ZNSt3__117__compressed_pairIPNS_6vectorINS_7variantIJidbNS_12basic_stringIcNS_11char_traitsIcEENS_9allocatorIcEEEEEEENS6_IS9_EEEENS6_ISB_EEEC1B7v160006IDnNS_18__default_init_tagEEEOT_OT0_, symObjAddr: 0x5D50, symBinAddr: 0x10000CC10, symSize: 0x3C }
  - { offsetInCU: 0x30A60, offset: 0x3AF4A, size: 0x8, addend: 0x0, symName: __ZNSt3__117__compressed_pairIPNS_6vectorINS_7variantIJidbNS_12basic_stringIcNS_11char_traitsIcEENS_9allocatorIcEEEEEEENS6_IS9_EEEENS6_ISB_EEEC2B7v160006IDnNS_18__default_init_tagEEEOT_OT0_, symObjAddr: 0x5D9C, symBinAddr: 0x10000CC5C, symSize: 0x40 }
  - { offsetInCU: 0x30AB6, offset: 0x3AFA0, size: 0x8, addend: 0x0, symName: __ZNSt3__122__compressed_pair_elemIPNS_6vectorINS_7variantIJidbNS_12basic_stringIcNS_11char_traitsIcEENS_9allocatorIcEEEEEEENS6_IS9_EEEELi0ELb0EEC2B7v160006IDnvEEOT_, symObjAddr: 0x5DDC, symBinAddr: 0x10000CC9C, symSize: 0x1C }
  - { offsetInCU: 0x30AF8, offset: 0x3AFE2, size: 0x8, addend: 0x0, symName: __ZNSt3__122__compressed_pair_elemINS_9allocatorINS_6vectorINS_7variantIJidbNS_12basic_stringIcNS_11char_traitsIcEENS1_IcEEEEEEENS1_IS9_EEEEEELi1ELb1EEC2B7v160006ENS_18__default_init_tagE, symObjAddr: 0x5DF8, symBinAddr: 0x10000CCB8, symSize: 0x2C }
  - { offsetInCU: 0x30B2B, offset: 0x3B015, size: 0x8, addend: 0x0, symName: __ZNSt3__19allocatorINS_6vectorINS_7variantIJidbNS_12basic_stringIcNS_11char_traitsIcEENS0_IcEEEEEEENS0_IS8_EEEEEC2B7v160006Ev, symObjAddr: 0x5E24, symBinAddr: 0x10000CCE4, symSize: 0x2C }
  - { offsetInCU: 0x30B53, offset: 0x3B03D, size: 0x8, addend: 0x0, symName: __ZNSt3__116__non_trivial_ifILb1ENS_9allocatorINS_6vectorINS_7variantIJidbNS_12basic_stringIcNS_11char_traitsIcEENS1_IcEEEEEEENS1_IS9_EEEEEEEC2B7v160006Ev, symObjAddr: 0x5E50, symBinAddr: 0x10000CD10, symSize: 0x14 }
  - { offsetInCU: 0x30B7C, offset: 0x3B066, size: 0x8, addend: 0x0, symName: __ZNSt3__113unordered_mapINS_12basic_stringIcNS_11char_traitsIcEENS_9allocatorIcEEEENS_6vectorIjNS4_IjEEEENS_4hashIS6_EENS_8equal_toIS6_EENS4_INS_4pairIKS6_S9_EEEEEC2B7v160006Ev, symObjAddr: 0x5E64, symBinAddr: 0x10000CD24, symSize: 0x3C }
  - { offsetInCU: 0x30BA4, offset: 0x3B08E, size: 0x8, addend: 0x0, symName: __ZNSt3__112__hash_tableINS_17__hash_value_typeINS_12basic_stringIcNS_11char_traitsIcEENS_9allocatorIcEEEENS_6vectorIjNS5_IjEEEEEENS_22__unordered_map_hasherIS7_SB_NS_4hashIS7_EENS_8equal_toIS7_EELb1EEENS_21__unordered_map_equalIS7_SB_SG_SE_Lb1EEENS5_ISB_EEEC1Ev, symObjAddr: 0x5EA0, symBinAddr: 0x10000CD60, symSize: 0x2C }
  - { offsetInCU: 0x30BCF, offset: 0x3B0B9, size: 0x8, addend: 0x0, symName: __ZNSt3__112__hash_tableINS_17__hash_value_typeINS_12basic_stringIcNS_11char_traitsIcEENS_9allocatorIcEEEENS_6vectorIjNS5_IjEEEEEENS_22__unordered_map_hasherIS7_SB_NS_4hashIS7_EENS_8equal_toIS7_EELb1EEENS_21__unordered_map_equalIS7_SB_SG_SE_Lb1EEENS5_ISB_EEEC2Ev, symObjAddr: 0x5EDC, symBinAddr: 0x10000CD9C, symSize: 0x7C }
  - { offsetInCU: 0x30BFA, offset: 0x3B0E4, size: 0x8, addend: 0x0, symName: __ZNSt3__110unique_ptrIA_PNS_16__hash_node_baseIPNS_11__hash_nodeINS_17__hash_value_typeINS_12basic_stringIcNS_11char_traitsIcEENS_9allocatorIcEEEENS_6vectorIjNS7_IjEEEEEEPvEEEENS_25__bucket_list_deallocatorINS7_ISI_EEEEEC1B7v160006ILb1EvEEv, symObjAddr: 0x5F58, symBinAddr: 0x10000CE18, symSize: 0x2C }
  - { offsetInCU: 0x30C2E, offset: 0x3B118, size: 0x8, addend: 0x0, symName: __ZNSt3__117__compressed_pairINS_16__hash_node_baseIPNS_11__hash_nodeINS_17__hash_value_typeINS_12basic_stringIcNS_11char_traitsIcEENS_9allocatorIcEEEENS_6vectorIjNS7_IjEEEEEEPvEEEENS7_ISF_EEEC1B7v160006ILb1EvEEv, symObjAddr: 0x5F84, symBinAddr: 0x10000CE44, symSize: 0x2C }
  - { offsetInCU: 0x30C62, offset: 0x3B14C, size: 0x8, addend: 0x0, symName: __ZNSt3__117__compressed_pairImNS_22__unordered_map_hasherINS_12basic_stringIcNS_11char_traitsIcEENS_9allocatorIcEEEENS_17__hash_value_typeIS7_NS_6vectorIjNS5_IjEEEEEENS_4hashIS7_EENS_8equal_toIS7_EELb1EEEEC1B7v160006IiNS_18__default_init_tagEEEOT_OT0_, symObjAddr: 0x5FB0, symBinAddr: 0x10000CE70, symSize: 0x3C }
  - { offsetInCU: 0x30CB8, offset: 0x3B1A2, size: 0x8, addend: 0x0, symName: __ZNSt3__117__compressed_pairIfNS_21__unordered_map_equalINS_12basic_stringIcNS_11char_traitsIcEENS_9allocatorIcEEEENS_17__hash_value_typeIS7_NS_6vectorIjNS5_IjEEEEEENS_8equal_toIS7_EENS_4hashIS7_EELb1EEEEC1B7v160006IfNS_18__default_init_tagEEEOT_OT0_, symObjAddr: 0x5FEC, symBinAddr: 0x10000CEAC, symSize: 0x3C }
  - { offsetInCU: 0x30D0E, offset: 0x3B1F8, size: 0x8, addend: 0x0, symName: __ZNSt3__110unique_ptrIA_PNS_16__hash_node_baseIPNS_11__hash_nodeINS_17__hash_value_typeINS_12basic_stringIcNS_11char_traitsIcEENS_9allocatorIcEEEENS_6vectorIjNS7_IjEEEEEEPvEEEENS_25__bucket_list_deallocatorINS7_ISI_EEEEEC2B7v160006ILb1EvEEv, symObjAddr: 0x6028, symBinAddr: 0x10000CEE8, symSize: 0x3C }
  - { offsetInCU: 0x30D42, offset: 0x3B22C, size: 0x8, addend: 0x0, symName: __ZNSt3__117__compressed_pairIPPNS_16__hash_node_baseIPNS_11__hash_nodeINS_17__hash_value_typeINS_12basic_stringIcNS_11char_traitsIcEENS_9allocatorIcEEEENS_6vectorIjNS7_IjEEEEEEPvEEEENS_25__bucket_list_deallocatorINS7_ISI_EEEEEC1B7v160006INS_16__value_init_tagESP_EEOT_OT0_, symObjAddr: 0x6064, symBinAddr: 0x10000CF24, symSize: 0x3C }
  - { offsetInCU: 0x30D98, offset: 0x3B282, size: 0x8, addend: 0x0, symName: __ZNSt3__117__compressed_pairIPPNS_16__hash_node_baseIPNS_11__hash_nodeINS_17__hash_value_typeINS_12basic_stringIcNS_11char_traitsIcEENS_9allocatorIcEEEENS_6vectorIjNS7_IjEEEEEEPvEEEENS_25__bucket_list_deallocatorINS7_ISI_EEEEEC2B7v160006INS_16__value_init_tagESP_EEOT_OT0_, symObjAddr: 0x60A0, symBinAddr: 0x10000CF60, symSize: 0x40 }
  - { offsetInCU: 0x30DEE, offset: 0x3B2D8, size: 0x8, addend: 0x0, symName: __ZNSt3__122__compressed_pair_elemIPPNS_16__hash_node_baseIPNS_11__hash_nodeINS_17__hash_value_typeINS_12basic_stringIcNS_11char_traitsIcEENS_9allocatorIcEEEENS_6vectorIjNS7_IjEEEEEEPvEEEELi0ELb0EEC2B7v160006ENS_16__value_init_tagE, symObjAddr: 0x60E0, symBinAddr: 0x10000CFA0, symSize: 0x18 }
  - { offsetInCU: 0x30E22, offset: 0x3B30C, size: 0x8, addend: 0x0, symName: __ZNSt3__122__compressed_pair_elemINS_25__bucket_list_deallocatorINS_9allocatorIPNS_16__hash_node_baseIPNS_11__hash_nodeINS_17__hash_value_typeINS_12basic_stringIcNS_11char_traitsIcEENS2_IcEEEENS_6vectorIjNS2_IjEEEEEEPvEEEEEEEELi1ELb0EEC2B7v160006ENS_16__value_init_tagE, symObjAddr: 0x60F8, symBinAddr: 0x10000CFB8, symSize: 0x2C }
  - { offsetInCU: 0x30E55, offset: 0x3B33F, size: 0x8, addend: 0x0, symName: __ZNSt3__125__bucket_list_deallocatorINS_9allocatorIPNS_16__hash_node_baseIPNS_11__hash_nodeINS_17__hash_value_typeINS_12basic_stringIcNS_11char_traitsIcEENS1_IcEEEENS_6vectorIjNS1_IjEEEEEEPvEEEEEEEC1B7v160006Ev, symObjAddr: 0x6124, symBinAddr: 0x10000CFE4, symSize: 0x2C }
  - { offsetInCU: 0x30E7D, offset: 0x3B367, size: 0x8, addend: 0x0, symName: __ZNSt3__125__bucket_list_deallocatorINS_9allocatorIPNS_16__hash_node_baseIPNS_11__hash_nodeINS_17__hash_value_typeINS_12basic_stringIcNS_11char_traitsIcEENS1_IcEEEENS_6vectorIjNS1_IjEEEEEEPvEEEEEEEC2B7v160006Ev, symObjAddr: 0x6150, symBinAddr: 0x10000D010, symSize: 0x40 }
  - { offsetInCU: 0x30EA5, offset: 0x3B38F, size: 0x8, addend: 0x0, symName: __ZNSt3__117__compressed_pairImNS_9allocatorIPNS_16__hash_node_baseIPNS_11__hash_nodeINS_17__hash_value_typeINS_12basic_stringIcNS_11char_traitsIcEENS1_IcEEEENS_6vectorIjNS1_IjEEEEEEPvEEEEEEEC1B7v160006IiNS_18__default_init_tagEEEOT_OT0_, symObjAddr: 0x6190, symBinAddr: 0x10000D050, symSize: 0x3C }
  - { offsetInCU: 0x30EFB, offset: 0x3B3E5, size: 0x8, addend: 0x0, symName: __ZNSt3__117__compressed_pairImNS_9allocatorIPNS_16__hash_node_baseIPNS_11__hash_nodeINS_17__hash_value_typeINS_12basic_stringIcNS_11char_traitsIcEENS1_IcEEEENS_6vectorIjNS1_IjEEEEEEPvEEEEEEEC2B7v160006IiNS_18__default_init_tagEEEOT_OT0_, symObjAddr: 0x61CC, symBinAddr: 0x10000D08C, symSize: 0x40 }
  - { offsetInCU: 0x30F51, offset: 0x3B43B, size: 0x8, addend: 0x0, symName: __ZNSt3__122__compressed_pair_elemINS_9allocatorIPNS_16__hash_node_baseIPNS_11__hash_nodeINS_17__hash_value_typeINS_12basic_stringIcNS_11char_traitsIcEENS1_IcEEEENS_6vectorIjNS1_IjEEEEEEPvEEEEEELi1ELb1EEC2B7v160006ENS_18__default_init_tagE, symObjAddr: 0x620C, symBinAddr: 0x10000D0CC, symSize: 0x2C }
  - { offsetInCU: 0x30F84, offset: 0x3B46E, size: 0x8, addend: 0x0, symName: __ZNSt3__19allocatorIPNS_16__hash_node_baseIPNS_11__hash_nodeINS_17__hash_value_typeINS_12basic_stringIcNS_11char_traitsIcEENS0_IcEEEENS_6vectorIjNS0_IjEEEEEEPvEEEEEC2B7v160006Ev, symObjAddr: 0x6238, symBinAddr: 0x10000D0F8, symSize: 0x2C }
  - { offsetInCU: 0x30FAC, offset: 0x3B496, size: 0x8, addend: 0x0, symName: __ZNSt3__116__non_trivial_ifILb1ENS_9allocatorIPNS_16__hash_node_baseIPNS_11__hash_nodeINS_17__hash_value_typeINS_12basic_stringIcNS_11char_traitsIcEENS1_IcEEEENS_6vectorIjNS1_IjEEEEEEPvEEEEEEEC2B7v160006Ev, symObjAddr: 0x6264, symBinAddr: 0x10000D124, symSize: 0x14 }
  - { offsetInCU: 0x30FD5, offset: 0x3B4BF, size: 0x8, addend: 0x0, symName: __ZNSt3__117__compressed_pairINS_16__hash_node_baseIPNS_11__hash_nodeINS_17__hash_value_typeINS_12basic_stringIcNS_11char_traitsIcEENS_9allocatorIcEEEENS_6vectorIjNS7_IjEEEEEEPvEEEENS7_ISF_EEEC2B7v160006ILb1EvEEv, symObjAddr: 0x6278, symBinAddr: 0x10000D138, symSize: 0x34 }
  - { offsetInCU: 0x31009, offset: 0x3B4F3, size: 0x8, addend: 0x0, symName: __ZNSt3__122__compressed_pair_elemINS_16__hash_node_baseIPNS_11__hash_nodeINS_17__hash_value_typeINS_12basic_stringIcNS_11char_traitsIcEENS_9allocatorIcEEEENS_6vectorIjNS7_IjEEEEEEPvEEEELi0ELb0EEC2B7v160006ENS_16__value_init_tagE, symObjAddr: 0x62AC, symBinAddr: 0x10000D16C, symSize: 0x2C }
  - { offsetInCU: 0x3103C, offset: 0x3B526, size: 0x8, addend: 0x0, symName: __ZNSt3__122__compressed_pair_elemINS_9allocatorINS_11__hash_nodeINS_17__hash_value_typeINS_12basic_stringIcNS_11char_traitsIcEENS1_IcEEEENS_6vectorIjNS1_IjEEEEEEPvEEEELi1ELb1EEC2B7v160006ENS_16__value_init_tagE, symObjAddr: 0x62D8, symBinAddr: 0x10000D198, symSize: 0x2C }
  - { offsetInCU: 0x3106F, offset: 0x3B559, size: 0x8, addend: 0x0, symName: __ZNSt3__116__hash_node_baseIPNS_11__hash_nodeINS_17__hash_value_typeINS_12basic_stringIcNS_11char_traitsIcEENS_9allocatorIcEEEENS_6vectorIjNS6_IjEEEEEEPvEEEC1B7v160006Ev, symObjAddr: 0x6304, symBinAddr: 0x10000D1C4, symSize: 0x2C }
  - { offsetInCU: 0x31097, offset: 0x3B581, size: 0x8, addend: 0x0, symName: __ZNSt3__116__hash_node_baseIPNS_11__hash_nodeINS_17__hash_value_typeINS_12basic_stringIcNS_11char_traitsIcEENS_9allocatorIcEEEENS_6vectorIjNS6_IjEEEEEEPvEEEC2B7v160006Ev, symObjAddr: 0x6330, symBinAddr: 0x10000D1F0, symSize: 0x18 }
  - { offsetInCU: 0x310C0, offset: 0x3B5AA, size: 0x8, addend: 0x0, symName: __ZNSt3__19allocatorINS_11__hash_nodeINS_17__hash_value_typeINS_12basic_stringIcNS_11char_traitsIcEENS0_IcEEEENS_6vectorIjNS0_IjEEEEEEPvEEEC2B7v160006Ev, symObjAddr: 0x6348, symBinAddr: 0x10000D208, symSize: 0x2C }
  - { offsetInCU: 0x310E8, offset: 0x3B5D2, size: 0x8, addend: 0x0, symName: __ZNSt3__116__non_trivial_ifILb1ENS_9allocatorINS_11__hash_nodeINS_17__hash_value_typeINS_12basic_stringIcNS_11char_traitsIcEENS1_IcEEEENS_6vectorIjNS1_IjEEEEEEPvEEEEEC2B7v160006Ev, symObjAddr: 0x6374, symBinAddr: 0x10000D234, symSize: 0x14 }
  - { offsetInCU: 0x31111, offset: 0x3B5FB, size: 0x8, addend: 0x0, symName: __ZNSt3__117__compressed_pairImNS_22__unordered_map_hasherINS_12basic_stringIcNS_11char_traitsIcEENS_9allocatorIcEEEENS_17__hash_value_typeIS7_NS_6vectorIjNS5_IjEEEEEENS_4hashIS7_EENS_8equal_toIS7_EELb1EEEEC2B7v160006IiNS_18__default_init_tagEEEOT_OT0_, symObjAddr: 0x6388, symBinAddr: 0x10000D248, symSize: 0x40 }
  - { offsetInCU: 0x31167, offset: 0x3B651, size: 0x8, addend: 0x0, symName: __ZNSt3__122__compressed_pair_elemINS_22__unordered_map_hasherINS_12basic_stringIcNS_11char_traitsIcEENS_9allocatorIcEEEENS_17__hash_value_typeIS7_NS_6vectorIjNS5_IjEEEEEENS_4hashIS7_EENS_8equal_toIS7_EELb1EEELi1ELb1EEC2B7v160006ENS_18__default_init_tagE, symObjAddr: 0x63C8, symBinAddr: 0x10000D288, symSize: 0x2C }
  - { offsetInCU: 0x3119A, offset: 0x3B684, size: 0x8, addend: 0x0, symName: __ZNSt3__122__unordered_map_hasherINS_12basic_stringIcNS_11char_traitsIcEENS_9allocatorIcEEEENS_17__hash_value_typeIS6_NS_6vectorIjNS4_IjEEEEEENS_4hashIS6_EENS_8equal_toIS6_EELb1EEC2B7v160006Ev, symObjAddr: 0x63F4, symBinAddr: 0x10000D2B4, symSize: 0x14 }
  - { offsetInCU: 0x311C3, offset: 0x3B6AD, size: 0x8, addend: 0x0, symName: __ZNSt3__117__compressed_pairIfNS_21__unordered_map_equalINS_12basic_stringIcNS_11char_traitsIcEENS_9allocatorIcEEEENS_17__hash_value_typeIS7_NS_6vectorIjNS5_IjEEEEEENS_8equal_toIS7_EENS_4hashIS7_EELb1EEEEC2B7v160006IfNS_18__default_init_tagEEEOT_OT0_, symObjAddr: 0x6408, symBinAddr: 0x10000D2C8, symSize: 0x40 }
  - { offsetInCU: 0x31219, offset: 0x3B703, size: 0x8, addend: 0x0, symName: __ZNSt3__122__compressed_pair_elemINS_21__unordered_map_equalINS_12basic_stringIcNS_11char_traitsIcEENS_9allocatorIcEEEENS_17__hash_value_typeIS7_NS_6vectorIjNS5_IjEEEEEENS_8equal_toIS7_EENS_4hashIS7_EELb1EEELi1ELb1EEC2B7v160006ENS_18__default_init_tagE, symObjAddr: 0x6448, symBinAddr: 0x10000D308, symSize: 0x2C }
  - { offsetInCU: 0x3124C, offset: 0x3B736, size: 0x8, addend: 0x0, symName: __ZNSt3__121__unordered_map_equalINS_12basic_stringIcNS_11char_traitsIcEENS_9allocatorIcEEEENS_17__hash_value_typeIS6_NS_6vectorIjNS4_IjEEEEEENS_8equal_toIS6_EENS_4hashIS6_EELb1EEC2B7v160006Ev, symObjAddr: 0x6474, symBinAddr: 0x10000D334, symSize: 0x14 }
  - { offsetInCU: 0x31275, offset: 0x3B75F, size: 0x8, addend: 0x0, symName: __ZNSt3__13mapINS_7variantIJidbNS_12basic_stringIcNS_11char_traitsIcEENS_9allocatorIcEEEEEEENS_6vectorIjNS5_IjEEEENS_4lessIS8_EENS5_INS_4pairIKS8_SB_EEEEEC2B7v160006Ev, symObjAddr: 0x6488, symBinAddr: 0x10000D348, symSize: 0x40 }
  - { offsetInCU: 0x3129D, offset: 0x3B787, size: 0x8, addend: 0x0, symName: __ZNSt3__119__map_value_compareINS_7variantIJidbNS_12basic_stringIcNS_11char_traitsIcEENS_9allocatorIcEEEEEEENS_12__value_typeIS8_NS_6vectorIjNS5_IjEEEEEENS_4lessIS8_EELb1EEC1B7v160006ESF_, symObjAddr: 0x64C8, symBinAddr: 0x10000D388, symSize: 0x2C }
  - { offsetInCU: 0x312D4, offset: 0x3B7BE, size: 0x8, addend: 0x0, symName: __ZNSt3__16__treeINS_12__value_typeINS_7variantIJidbNS_12basic_stringIcNS_11char_traitsIcEENS_9allocatorIcEEEEEEENS_6vectorIjNS6_IjEEEEEENS_19__map_value_compareIS9_SD_NS_4lessIS9_EELb1EEENS6_ISD_EEEC1ERKSH_, symObjAddr: 0x64F4, symBinAddr: 0x10000D3B4, symSize: 0x34 }
  - { offsetInCU: 0x3130E, offset: 0x3B7F8, size: 0x8, addend: 0x0, symName: __ZNSt3__119__map_value_compareINS_7variantIJidbNS_12basic_stringIcNS_11char_traitsIcEENS_9allocatorIcEEEEEEENS_12__value_typeIS8_NS_6vectorIjNS5_IjEEEEEENS_4lessIS8_EELb1EEC2B7v160006ESF_, symObjAddr: 0x6528, symBinAddr: 0x10000D3E8, symSize: 0x14 }
  - { offsetInCU: 0x31346, offset: 0x3B830, size: 0x8, addend: 0x0, symName: __ZNSt3__16__treeINS_12__value_typeINS_7variantIJidbNS_12basic_stringIcNS_11char_traitsIcEENS_9allocatorIcEEEEEEENS_6vectorIjNS6_IjEEEEEENS_19__map_value_compareIS9_SD_NS_4lessIS9_EELb1EEENS6_ISD_EEEC2ERKSH_, symObjAddr: 0x653C, symBinAddr: 0x10000D3FC, symSize: 0x7C }
  - { offsetInCU: 0x31380, offset: 0x3B86A, size: 0x8, addend: 0x0, symName: __ZNSt3__117__compressed_pairINS_15__tree_end_nodeIPNS_16__tree_node_baseIPvEEEENS_9allocatorINS_11__tree_nodeINS_12__value_typeINS_7variantIJidbNS_12basic_stringIcNS_11char_traitsIcEENS7_IcEEEEEEENS_6vectorIjNS7_IjEEEEEES3_EEEEEC1B7v160006ILb1EvEEv, symObjAddr: 0x65B8, symBinAddr: 0x10000D478, symSize: 0x2C }
  - { offsetInCU: 0x313B4, offset: 0x3B89E, size: 0x8, addend: 0x0, symName: __ZNSt3__117__compressed_pairImNS_19__map_value_compareINS_7variantIJidbNS_12basic_stringIcNS_11char_traitsIcEENS_9allocatorIcEEEEEEENS_12__value_typeIS9_NS_6vectorIjNS6_IjEEEEEENS_4lessIS9_EELb1EEEEC1B7v160006IiRKSH_EEOT_OT0_, symObjAddr: 0x65E4, symBinAddr: 0x10000D4A4, symSize: 0x3C }
  - { offsetInCU: 0x3140A, offset: 0x3B8F4, size: 0x8, addend: 0x0, symName: __ZNSt3__16__treeINS_12__value_typeINS_7variantIJidbNS_12basic_stringIcNS_11char_traitsIcEENS_9allocatorIcEEEEEEENS_6vectorIjNS6_IjEEEEEENS_19__map_value_compareIS9_SD_NS_4lessIS9_EELb1EEENS6_ISD_EEE10__end_nodeB7v160006Ev, symObjAddr: 0x6620, symBinAddr: 0x10000D4E0, symSize: 0x2C }
  - { offsetInCU: 0x3142F, offset: 0x3B919, size: 0x8, addend: 0x0, symName: __ZNSt3__16__treeINS_12__value_typeINS_7variantIJidbNS_12basic_stringIcNS_11char_traitsIcEENS_9allocatorIcEEEEEEENS_6vectorIjNS6_IjEEEEEENS_19__map_value_compareIS9_SD_NS_4lessIS9_EELb1EEENS6_ISD_EEE12__begin_nodeB7v160006Ev, symObjAddr: 0x664C, symBinAddr: 0x10000D50C, symSize: 0x14 }
  - { offsetInCU: 0x31454, offset: 0x3B93E, size: 0x8, addend: 0x0, symName: __ZNSt3__117__compressed_pairINS_15__tree_end_nodeIPNS_16__tree_node_baseIPvEEEENS_9allocatorINS_11__tree_nodeINS_12__value_typeINS_7variantIJidbNS_12basic_stringIcNS_11char_traitsIcEENS7_IcEEEEEEENS_6vectorIjNS7_IjEEEEEES3_EEEEEC2B7v160006ILb1EvEEv, symObjAddr: 0x6660, symBinAddr: 0x10000D520, symSize: 0x34 }
  - { offsetInCU: 0x31488, offset: 0x3B972, size: 0x8, addend: 0x0, symName: __ZNSt3__122__compressed_pair_elemINS_15__tree_end_nodeIPNS_16__tree_node_baseIPvEEEELi0ELb0EEC2B7v160006ENS_16__value_init_tagE, symObjAddr: 0x6694, symBinAddr: 0x10000D554, symSize: 0x2C }
  - { offsetInCU: 0x314BB, offset: 0x3B9A5, size: 0x8, addend: 0x0, symName: __ZNSt3__122__compressed_pair_elemINS_9allocatorINS_11__tree_nodeINS_12__value_typeINS_7variantIJidbNS_12basic_stringIcNS_11char_traitsIcEENS1_IcEEEEEEENS_6vectorIjNS1_IjEEEEEEPvEEEELi1ELb1EEC2B7v160006ENS_16__value_init_tagE, symObjAddr: 0x66C0, symBinAddr: 0x10000D580, symSize: 0x2C }
  - { offsetInCU: 0x314EE, offset: 0x3B9D8, size: 0x8, addend: 0x0, symName: __ZNSt3__115__tree_end_nodeIPNS_16__tree_node_baseIPvEEEC1B7v160006Ev, symObjAddr: 0x66EC, symBinAddr: 0x10000D5AC, symSize: 0x2C }
  - { offsetInCU: 0x31516, offset: 0x3BA00, size: 0x8, addend: 0x0, symName: __ZNSt3__115__tree_end_nodeIPNS_16__tree_node_baseIPvEEEC2B7v160006Ev, symObjAddr: 0x6718, symBinAddr: 0x10000D5D8, symSize: 0x18 }
  - { offsetInCU: 0x3153F, offset: 0x3BA29, size: 0x8, addend: 0x0, symName: __ZNSt3__19allocatorINS_11__tree_nodeINS_12__value_typeINS_7variantIJidbNS_12basic_stringIcNS_11char_traitsIcEENS0_IcEEEEEEENS_6vectorIjNS0_IjEEEEEEPvEEEC2B7v160006Ev, symObjAddr: 0x6730, symBinAddr: 0x10000D5F0, symSize: 0x2C }
  - { offsetInCU: 0x31567, offset: 0x3BA51, size: 0x8, addend: 0x0, symName: __ZNSt3__116__non_trivial_ifILb1ENS_9allocatorINS_11__tree_nodeINS_12__value_typeINS_7variantIJidbNS_12basic_stringIcNS_11char_traitsIcEENS1_IcEEEEEEENS_6vectorIjNS1_IjEEEEEEPvEEEEEC2B7v160006Ev, symObjAddr: 0x675C, symBinAddr: 0x10000D61C, symSize: 0x14 }
  - { offsetInCU: 0x31590, offset: 0x3BA7A, size: 0x8, addend: 0x0, symName: __ZNSt3__117__compressed_pairImNS_19__map_value_compareINS_7variantIJidbNS_12basic_stringIcNS_11char_traitsIcEENS_9allocatorIcEEEEEEENS_12__value_typeIS9_NS_6vectorIjNS6_IjEEEEEENS_4lessIS9_EELb1EEEEC2B7v160006IiRKSH_EEOT_OT0_, symObjAddr: 0x6770, symBinAddr: 0x10000D630, symSize: 0x44 }
  - { offsetInCU: 0x315E6, offset: 0x3BAD0, size: 0x8, addend: 0x0, symName: __ZNSt3__122__compressed_pair_elemINS_19__map_value_compareINS_7variantIJidbNS_12basic_stringIcNS_11char_traitsIcEENS_9allocatorIcEEEEEEENS_12__value_typeIS9_NS_6vectorIjNS6_IjEEEEEENS_4lessIS9_EELb1EEELi1ELb1EEC2B7v160006IRKSH_vEEOT_, symObjAddr: 0x67B4, symBinAddr: 0x10000D674, symSize: 0x18 }
  - { offsetInCU: 0x31628, offset: 0x3BB12, size: 0x8, addend: 0x0, symName: __ZNSt3__114pointer_traitsIPNS_15__tree_end_nodeIPNS_16__tree_node_baseIPvEEEEE10pointer_toB7v160006ERS6_, symObjAddr: 0x67CC, symBinAddr: 0x10000D68C, symSize: 0x14 }
  - { offsetInCU: 0x3164B, offset: 0x3BB35, size: 0x8, addend: 0x0, symName: __ZNSt3__117__compressed_pairINS_15__tree_end_nodeIPNS_16__tree_node_baseIPvEEEENS_9allocatorINS_11__tree_nodeINS_12__value_typeINS_7variantIJidbNS_12basic_stringIcNS_11char_traitsIcEENS7_IcEEEEEEENS_6vectorIjNS7_IjEEEEEES3_EEEEE5firstB7v160006Ev, symObjAddr: 0x67E0, symBinAddr: 0x10000D6A0, symSize: 0x24 }
  - { offsetInCU: 0x31670, offset: 0x3BB5A, size: 0x8, addend: 0x0, symName: __ZNSt3__122__compressed_pair_elemINS_15__tree_end_nodeIPNS_16__tree_node_baseIPvEEEELi0ELb0EE5__getB7v160006Ev, symObjAddr: 0x6804, symBinAddr: 0x10000D6C4, symSize: 0x14 }
  - { offsetInCU: 0x31695, offset: 0x3BB7F, size: 0x8, addend: 0x0, symName: __ZNKSt3__16vectorINS_12basic_stringIcNS_11char_traitsIcEENS_9allocatorIcEEEENS4_IS6_EEE4sizeB7v160006Ev, symObjAddr: 0x6818, symBinAddr: 0x10000D6D8, symSize: 0x28 }
  - { offsetInCU: 0x316BA, offset: 0x3BBA4, size: 0x8, addend: 0x0, symName: __ZNSt3__16vectorINS_12basic_stringIcNS_11char_traitsIcEENS_9allocatorIcEEEENS4_IS6_EEE8__appendEm, symObjAddr: 0x6840, symBinAddr: 0x10000D700, symSize: 0x108 }
  - { offsetInCU: 0x31714, offset: 0x3BBFE, size: 0x8, addend: 0x0, symName: __ZNSt3__16vectorINS_12basic_stringIcNS_11char_traitsIcEENS_9allocatorIcEEEENS4_IS6_EEE17__destruct_at_endB7v160006EPS6_, symObjAddr: 0x6948, symBinAddr: 0x10000D808, symSize: 0x60 }
  - { offsetInCU: 0x31757, offset: 0x3BC41, size: 0x8, addend: 0x0, symName: __ZNSt3__16vectorINS_12basic_stringIcNS_11char_traitsIcEENS_9allocatorIcEEEENS4_IS6_EEE9__end_capB7v160006Ev, symObjAddr: 0x69A8, symBinAddr: 0x10000D868, symSize: 0x28 }
  - { offsetInCU: 0x3177C, offset: 0x3BC66, size: 0x8, addend: 0x0, symName: __ZNSt3__16vectorINS_12basic_stringIcNS_11char_traitsIcEENS_9allocatorIcEEEENS4_IS6_EEE18__construct_at_endEm, symObjAddr: 0x69D0, symBinAddr: 0x10000D890, symSize: 0xC8 }
  - { offsetInCU: 0x317EE, offset: 0x3BCD8, size: 0x8, addend: 0x0, symName: __ZNSt3__16vectorINS_12basic_stringIcNS_11char_traitsIcEENS_9allocatorIcEEEENS4_IS6_EEE7__allocB7v160006Ev, symObjAddr: 0x6A98, symBinAddr: 0x10000D958, symSize: 0x28 }
  - { offsetInCU: 0x31813, offset: 0x3BCFD, size: 0x8, addend: 0x0, symName: __ZNKSt3__16vectorINS_12basic_stringIcNS_11char_traitsIcEENS_9allocatorIcEEEENS4_IS6_EEE11__recommendB7v160006Em, symObjAddr: 0x6AC0, symBinAddr: 0x10000D980, symSize: 0xB4 }
  - { offsetInCU: 0x31867, offset: 0x3BD51, size: 0x8, addend: 0x0, symName: __ZNSt3__114__split_bufferINS_12basic_stringIcNS_11char_traitsIcEENS_9allocatorIcEEEERNS4_IS6_EEEC1EmmS8_, symObjAddr: 0x6B74, symBinAddr: 0x10000DA34, symSize: 0x44 }
  - { offsetInCU: 0x318BC, offset: 0x3BDA6, size: 0x8, addend: 0x0, symName: __ZNSt3__114__split_bufferINS_12basic_stringIcNS_11char_traitsIcEENS_9allocatorIcEEEERNS4_IS6_EEE18__construct_at_endEm, symObjAddr: 0x6BB8, symBinAddr: 0x10000DA78, symSize: 0xB4 }
  - { offsetInCU: 0x318FE, offset: 0x3BDE8, size: 0x8, addend: 0x0, symName: __ZNSt3__114__split_bufferINS_12basic_stringIcNS_11char_traitsIcEENS_9allocatorIcEEEERNS4_IS6_EEED1Ev, symObjAddr: 0x6D84, symBinAddr: 0x10000DC44, symSize: 0x2C }
  - { offsetInCU: 0x31929, offset: 0x3BE13, size: 0x8, addend: 0x0, symName: __ZNSt3__117__compressed_pairIPNS_12basic_stringIcNS_11char_traitsIcEENS_9allocatorIcEEEENS4_IS6_EEE5firstB7v160006Ev, symObjAddr: 0x6DB0, symBinAddr: 0x10000DC70, symSize: 0x24 }
  - { offsetInCU: 0x3194E, offset: 0x3BE38, size: 0x8, addend: 0x0, symName: __ZNSt3__122__compressed_pair_elemIPNS_12basic_stringIcNS_11char_traitsIcEENS_9allocatorIcEEEELi0ELb0EE5__getB7v160006Ev, symObjAddr: 0x6DD4, symBinAddr: 0x10000DC94, symSize: 0x14 }
  - { offsetInCU: 0x3198C, offset: 0x3BE76, size: 0x8, addend: 0x0, symName: __ZNSt3__16vectorINS_12basic_stringIcNS_11char_traitsIcEENS_9allocatorIcEEEENS4_IS6_EEE21_ConstructTransactionC1B7v160006ERS8_m, symObjAddr: 0x6DE8, symBinAddr: 0x10000DCA8, symSize: 0x3C }
  - { offsetInCU: 0x319D2, offset: 0x3BEBC, size: 0x8, addend: 0x0, symName: __ZNSt3__116allocator_traitsINS_9allocatorINS_12basic_stringIcNS_11char_traitsIcEENS1_IcEEEEEEE9constructB7v160006IS6_JEvEEvRS7_PT_DpOT0_, symObjAddr: 0x6E24, symBinAddr: 0x10000DCE4, symSize: 0x2C }
  - { offsetInCU: 0x31A16, offset: 0x3BF00, size: 0x8, addend: 0x0, symName: __ZNSt3__16vectorINS_12basic_stringIcNS_11char_traitsIcEENS_9allocatorIcEEEENS4_IS6_EEE21_ConstructTransactionD1B7v160006Ev, symObjAddr: 0x6E64, symBinAddr: 0x10000DD24, symSize: 0x2C }
  - { offsetInCU: 0x31A3E, offset: 0x3BF28, size: 0x8, addend: 0x0, symName: __ZNSt3__16vectorINS_12basic_stringIcNS_11char_traitsIcEENS_9allocatorIcEEEENS4_IS6_EEE21_ConstructTransactionC2B7v160006ERS8_m, symObjAddr: 0x6E90, symBinAddr: 0x10000DD50, symSize: 0x4C }
  - { offsetInCU: 0x31A85, offset: 0x3BF6F, size: 0x8, addend: 0x0, symName: __ZNSt3__19allocatorINS_12basic_stringIcNS_11char_traitsIcEENS0_IcEEEEE9constructB7v160006IS5_JEEEvPT_DpOT0_, symObjAddr: 0x6EDC, symBinAddr: 0x10000DD9C, symSize: 0x28 }
  - { offsetInCU: 0x31AC7, offset: 0x3BFB1, size: 0x8, addend: 0x0, symName: __ZNSt3__16vectorINS_12basic_stringIcNS_11char_traitsIcEENS_9allocatorIcEEEENS4_IS6_EEE21_ConstructTransactionD2B7v160006Ev, symObjAddr: 0x6F04, symBinAddr: 0x10000DDC4, symSize: 0x20 }
  - { offsetInCU: 0x31AF0, offset: 0x3BFDA, size: 0x8, addend: 0x0, symName: __ZNSt3__117__compressed_pairIPNS_12basic_stringIcNS_11char_traitsIcEENS_9allocatorIcEEEENS4_IS6_EEE6secondB7v160006Ev, symObjAddr: 0x6F24, symBinAddr: 0x10000DDE4, symSize: 0x24 }
  - { offsetInCU: 0x31B15, offset: 0x3BFFF, size: 0x8, addend: 0x0, symName: __ZNSt3__122__compressed_pair_elemINS_9allocatorINS_12basic_stringIcNS_11char_traitsIcEENS1_IcEEEEEELi1ELb1EE5__getB7v160006Ev, symObjAddr: 0x6F48, symBinAddr: 0x10000DE08, symSize: 0x14 }
  - { offsetInCU: 0x31B3A, offset: 0x3C024, size: 0x8, addend: 0x0, symName: __ZNKSt3__16vectorINS_12basic_stringIcNS_11char_traitsIcEENS_9allocatorIcEEEENS4_IS6_EEE8max_sizeEv, symObjAddr: 0x6F5C, symBinAddr: 0x10000DE1C, symSize: 0x60 }
  - { offsetInCU: 0x31B61, offset: 0x3C04B, size: 0x8, addend: 0x0, symName: __ZNKSt3__16vectorINS_12basic_stringIcNS_11char_traitsIcEENS_9allocatorIcEEEENS4_IS6_EEE20__throw_length_errorB7v160006Ev, symObjAddr: 0x6FBC, symBinAddr: 0x10000DE7C, symSize: 0x1C }
  - { offsetInCU: 0x31B86, offset: 0x3C070, size: 0x8, addend: 0x0, symName: __ZNKSt3__16vectorINS_12basic_stringIcNS_11char_traitsIcEENS_9allocatorIcEEEENS4_IS6_EEE8capacityB7v160006Ev, symObjAddr: 0x6FD8, symBinAddr: 0x10000DE98, symSize: 0x40 }
  - { offsetInCU: 0x31BB5, offset: 0x3C09F, size: 0x8, addend: 0x0, symName: __ZNSt3__116allocator_traitsINS_9allocatorINS_12basic_stringIcNS_11char_traitsIcEENS1_IcEEEEEEE8max_sizeB7v160006IS7_vEEmRKS7_, symObjAddr: 0x7070, symBinAddr: 0x10000DF04, symSize: 0x24 }
  - { offsetInCU: 0x31BE4, offset: 0x3C0CE, size: 0x8, addend: 0x0, symName: __ZNKSt3__16vectorINS_12basic_stringIcNS_11char_traitsIcEENS_9allocatorIcEEEENS4_IS6_EEE7__allocB7v160006Ev, symObjAddr: 0x7094, symBinAddr: 0x10000DF28, symSize: 0x28 }
  - { offsetInCU: 0x31C09, offset: 0x3C0F3, size: 0x8, addend: 0x0, symName: __ZNKSt3__19allocatorINS_12basic_stringIcNS_11char_traitsIcEENS0_IcEEEEE8max_sizeB7v160006Ev, symObjAddr: 0x7144, symBinAddr: 0x10000DF50, symSize: 0x18 }
  - { offsetInCU: 0x31C2E, offset: 0x3C118, size: 0x8, addend: 0x0, symName: __ZNKSt3__117__compressed_pairIPNS_12basic_stringIcNS_11char_traitsIcEENS_9allocatorIcEEEENS4_IS6_EEE6secondB7v160006Ev, symObjAddr: 0x715C, symBinAddr: 0x10000DF68, symSize: 0x24 }
  - { offsetInCU: 0x31C53, offset: 0x3C13D, size: 0x8, addend: 0x0, symName: __ZNKSt3__122__compressed_pair_elemINS_9allocatorINS_12basic_stringIcNS_11char_traitsIcEENS1_IcEEEEEELi1ELb1EE5__getB7v160006Ev, symObjAddr: 0x7180, symBinAddr: 0x10000DF8C, symSize: 0x14 }
  - { offsetInCU: 0x31C78, offset: 0x3C162, size: 0x8, addend: 0x0, symName: __ZNSt12length_errorC1B7v160006EPKc, symObjAddr: 0x71F8, symBinAddr: 0x10000E004, symSize: 0x34 }
  - { offsetInCU: 0x31CAE, offset: 0x3C198, size: 0x8, addend: 0x0, symName: __ZNSt12length_errorC2B7v160006EPKc, symObjAddr: 0x722C, symBinAddr: 0x10000E038, symSize: 0x4C }
  - { offsetInCU: 0x31CE4, offset: 0x3C1CE, size: 0x8, addend: 0x0, symName: __ZNKSt3__16vectorINS_12basic_stringIcNS_11char_traitsIcEENS_9allocatorIcEEEENS4_IS6_EEE9__end_capB7v160006Ev, symObjAddr: 0x7278, symBinAddr: 0x10000E084, symSize: 0x28 }
  - { offsetInCU: 0x31D09, offset: 0x3C1F3, size: 0x8, addend: 0x0, symName: __ZNKSt3__117__compressed_pairIPNS_12basic_stringIcNS_11char_traitsIcEENS_9allocatorIcEEEENS4_IS6_EEE5firstB7v160006Ev, symObjAddr: 0x72A0, symBinAddr: 0x10000E0AC, symSize: 0x24 }
  - { offsetInCU: 0x31D2E, offset: 0x3C218, size: 0x8, addend: 0x0, symName: __ZNKSt3__122__compressed_pair_elemIPNS_12basic_stringIcNS_11char_traitsIcEENS_9allocatorIcEEEELi0ELb0EE5__getB7v160006Ev, symObjAddr: 0x72C4, symBinAddr: 0x10000E0D0, symSize: 0x14 }
  - { offsetInCU: 0x31D53, offset: 0x3C23D, size: 0x8, addend: 0x0, symName: __ZNSt3__114__split_bufferINS_12basic_stringIcNS_11char_traitsIcEENS_9allocatorIcEEEERNS4_IS6_EEEC2EmmS8_, symObjAddr: 0x732C, symBinAddr: 0x10000E138, symSize: 0xE0 }
  - { offsetInCU: 0x31DC6, offset: 0x3C2B0, size: 0x8, addend: 0x0, symName: __ZNSt3__117__compressed_pairIPNS_12basic_stringIcNS_11char_traitsIcEENS_9allocatorIcEEEERNS4_IS6_EEEC1B7v160006IDnS9_EEOT_OT0_, symObjAddr: 0x740C, symBinAddr: 0x10000E218, symSize: 0x3C }
  - { offsetInCU: 0x31E1C, offset: 0x3C306, size: 0x8, addend: 0x0, symName: __ZNSt3__114__split_bufferINS_12basic_stringIcNS_11char_traitsIcEENS_9allocatorIcEEEERNS4_IS6_EEE7__allocB7v160006Ev, symObjAddr: 0x7488, symBinAddr: 0x10000E294, symSize: 0x28 }
  - { offsetInCU: 0x31E41, offset: 0x3C32B, size: 0x8, addend: 0x0, symName: __ZNSt3__114__split_bufferINS_12basic_stringIcNS_11char_traitsIcEENS_9allocatorIcEEEERNS4_IS6_EEE9__end_capB7v160006Ev, symObjAddr: 0x74B0, symBinAddr: 0x10000E2BC, symSize: 0x28 }
  - { offsetInCU: 0x31E66, offset: 0x3C350, size: 0x8, addend: 0x0, symName: __ZNSt3__117__compressed_pairIPNS_12basic_stringIcNS_11char_traitsIcEENS_9allocatorIcEEEERNS4_IS6_EEEC2B7v160006IDnS9_EEOT_OT0_, symObjAddr: 0x74D8, symBinAddr: 0x10000E2E4, symSize: 0x48 }
  - { offsetInCU: 0x31EBC, offset: 0x3C3A6, size: 0x8, addend: 0x0, symName: __ZNSt3__122__compressed_pair_elemIRNS_9allocatorINS_12basic_stringIcNS_11char_traitsIcEENS1_IcEEEEEELi1ELb0EEC2B7v160006IS8_vEEOT_, symObjAddr: 0x7520, symBinAddr: 0x10000E32C, symSize: 0x20 }
  - { offsetInCU: 0x31EFE, offset: 0x3C3E8, size: 0x8, addend: 0x0, symName: __ZNSt3__19allocatorINS_12basic_stringIcNS_11char_traitsIcEENS0_IcEEEEE8allocateB7v160006Em, symObjAddr: 0x7540, symBinAddr: 0x10000E34C, symSize: 0x5C }
  - { offsetInCU: 0x31F31, offset: 0x3C41B, size: 0x8, addend: 0x0, symName: __ZNSt3__117__compressed_pairIPNS_12basic_stringIcNS_11char_traitsIcEENS_9allocatorIcEEEERNS4_IS6_EEE6secondB7v160006Ev, symObjAddr: 0x76A0, symBinAddr: 0x10000E4AC, symSize: 0x28 }
  - { offsetInCU: 0x31F56, offset: 0x3C440, size: 0x8, addend: 0x0, symName: __ZNSt3__122__compressed_pair_elemIRNS_9allocatorINS_12basic_stringIcNS_11char_traitsIcEENS1_IcEEEEEELi1ELb0EE5__getB7v160006Ev, symObjAddr: 0x76C8, symBinAddr: 0x10000E4D4, symSize: 0x18 }
  - { offsetInCU: 0x31F7B, offset: 0x3C465, size: 0x8, addend: 0x0, symName: __ZNSt3__117__compressed_pairIPNS_12basic_stringIcNS_11char_traitsIcEENS_9allocatorIcEEEERNS4_IS6_EEE5firstB7v160006Ev, symObjAddr: 0x76E0, symBinAddr: 0x10000E4EC, symSize: 0x24 }
  - { offsetInCU: 0x31FAA, offset: 0x3C494, size: 0x8, addend: 0x0, symName: __ZNSt3__114__split_bufferINS_12basic_stringIcNS_11char_traitsIcEENS_9allocatorIcEEEERNS4_IS6_EEE21_ConstructTransactionC1B7v160006EPPS6_m, symObjAddr: 0x7704, symBinAddr: 0x10000E510, symSize: 0x3C }
  - { offsetInCU: 0x31FEE, offset: 0x3C4D8, size: 0x8, addend: 0x0, symName: __ZNSt3__114__split_bufferINS_12basic_stringIcNS_11char_traitsIcEENS_9allocatorIcEEEERNS4_IS6_EEE21_ConstructTransactionD1B7v160006Ev, symObjAddr: 0x7740, symBinAddr: 0x10000E54C, symSize: 0x2C }
  - { offsetInCU: 0x32016, offset: 0x3C500, size: 0x8, addend: 0x0, symName: __ZNSt3__114__split_bufferINS_12basic_stringIcNS_11char_traitsIcEENS_9allocatorIcEEEERNS4_IS6_EEE21_ConstructTransactionC2B7v160006EPPS6_m, symObjAddr: 0x776C, symBinAddr: 0x10000E578, symSize: 0x4C }
  - { offsetInCU: 0x3205B, offset: 0x3C545, size: 0x8, addend: 0x0, symName: __ZNSt3__114__split_bufferINS_12basic_stringIcNS_11char_traitsIcEENS_9allocatorIcEEEERNS4_IS6_EEE21_ConstructTransactionD2B7v160006Ev, symObjAddr: 0x77B8, symBinAddr: 0x10000E5C4, symSize: 0x20 }
  - { offsetInCU: 0x32084, offset: 0x3C56E, size: 0x8, addend: 0x0, symName: __ZNKSt3__16vectorINS_12basic_stringIcNS_11char_traitsIcEENS_9allocatorIcEEEENS4_IS6_EEE17__annotate_deleteB7v160006Ev, symObjAddr: 0x77D8, symBinAddr: 0x10000E5E4, symSize: 0xD4 }
  - { offsetInCU: 0x320A9, offset: 0x3C593, size: 0x8, addend: 0x0, symName: __ZNSt3__116reverse_iteratorIPNS_12basic_stringIcNS_11char_traitsIcEENS_9allocatorIcEEEEEC1B7v160006ES7_, symObjAddr: 0x79D8, symBinAddr: 0x10000E7E4, symSize: 0x34 }
  - { offsetInCU: 0x320DF, offset: 0x3C5C9, size: 0x8, addend: 0x0, symName: __ZNKSt3__116reverse_iteratorIPNS_12basic_stringIcNS_11char_traitsIcEENS_9allocatorIcEEEEE4baseB7v160006Ev, symObjAddr: 0x7A0C, symBinAddr: 0x10000E818, symSize: 0x18 }
  - { offsetInCU: 0x32104, offset: 0x3C5EE, size: 0x8, addend: 0x0, symName: __ZNKSt3__16vectorINS_12basic_stringIcNS_11char_traitsIcEENS_9allocatorIcEEEENS4_IS6_EEE14__annotate_newB7v160006Em, symObjAddr: 0x7A60, symBinAddr: 0x10000E86C, symSize: 0xC8 }
  - { offsetInCU: 0x32138, offset: 0x3C622, size: 0x8, addend: 0x0, symName: __ZNKSt3__16vectorINS_12basic_stringIcNS_11char_traitsIcEENS_9allocatorIcEEEENS4_IS6_EEE31__annotate_contiguous_containerB7v160006EPKvSA_SA_SA_, symObjAddr: 0x7B38, symBinAddr: 0x10000E944, symSize: 0x20 }
  - { offsetInCU: 0x3218D, offset: 0x3C677, size: 0x8, addend: 0x0, symName: __ZNKSt3__16vectorINS_12basic_stringIcNS_11char_traitsIcEENS_9allocatorIcEEEENS4_IS6_EEE4dataB7v160006Ev, symObjAddr: 0x7B58, symBinAddr: 0x10000E964, symSize: 0x28 }
  - { offsetInCU: 0x321B2, offset: 0x3C69C, size: 0x8, addend: 0x0, symName: __ZNSt3__129_AllocatorDestroyRangeReverseINS_9allocatorINS_12basic_stringIcNS_11char_traitsIcEENS1_IcEEEEEENS_16reverse_iteratorIPS6_EEEC1B7v160006ERS7_RSA_SD_, symObjAddr: 0x7BCC, symBinAddr: 0x10000E9D8, symSize: 0x44 }
  - { offsetInCU: 0x3220C, offset: 0x3C6F6, size: 0x8, addend: 0x0, symName: __ZNSt3__116allocator_traitsINS_9allocatorINS_12basic_stringIcNS_11char_traitsIcEENS1_IcEEEEEEE9constructB7v160006IS6_JS6_EvEEvRS7_PT_DpOT0_, symObjAddr: 0x7C58, symBinAddr: 0x10000EA64, symSize: 0x34 }
  - { offsetInCU: 0x32265, offset: 0x3C74F, size: 0x8, addend: 0x0, symName: __ZNKSt3__116reverse_iteratorIPNS_12basic_stringIcNS_11char_traitsIcEENS_9allocatorIcEEEEEdeB7v160006Ev, symObjAddr: 0x7CB0, symBinAddr: 0x10000EABC, symSize: 0x28 }
  - { offsetInCU: 0x32298, offset: 0x3C782, size: 0x8, addend: 0x0, symName: __ZNSt3__116reverse_iteratorIPNS_12basic_stringIcNS_11char_traitsIcEENS_9allocatorIcEEEEEppB7v160006Ev, symObjAddr: 0x7CD8, symBinAddr: 0x10000EAE4, symSize: 0x20 }
  - { offsetInCU: 0x322BD, offset: 0x3C7A7, size: 0x8, addend: 0x0, symName: __ZNSt3__128__exception_guard_exceptionsINS_29_AllocatorDestroyRangeReverseINS_9allocatorINS_12basic_stringIcNS_11char_traitsIcEENS2_IcEEEEEENS_16reverse_iteratorIPS7_EEEEE10__completeB7v160006Ev, symObjAddr: 0x7CF8, symBinAddr: 0x10000EB04, symSize: 0x1C }
  - { offsetInCU: 0x322E2, offset: 0x3C7CC, size: 0x8, addend: 0x0, symName: __ZNSt3__128__exception_guard_exceptionsINS_29_AllocatorDestroyRangeReverseINS_9allocatorINS_12basic_stringIcNS_11char_traitsIcEENS2_IcEEEEEENS_16reverse_iteratorIPS7_EEEEED1B7v160006Ev, symObjAddr: 0x7D14, symBinAddr: 0x10000EB20, symSize: 0x2C }
  - { offsetInCU: 0x3230A, offset: 0x3C7F4, size: 0x8, addend: 0x0, symName: __ZNSt3__128__exception_guard_exceptionsINS_29_AllocatorDestroyRangeReverseINS_9allocatorINS_12basic_stringIcNS_11char_traitsIcEENS2_IcEEEEEENS_16reverse_iteratorIPS7_EEEEEC1B7v160006ESC_, symObjAddr: 0x7D40, symBinAddr: 0x10000EB4C, symSize: 0x34 }
  - { offsetInCU: 0x32341, offset: 0x3C82B, size: 0x8, addend: 0x0, symName: __ZNSt3__128__exception_guard_exceptionsINS_29_AllocatorDestroyRangeReverseINS_9allocatorINS_12basic_stringIcNS_11char_traitsIcEENS2_IcEEEEEENS_16reverse_iteratorIPS7_EEEEEC2B7v160006ESC_, symObjAddr: 0x7D74, symBinAddr: 0x10000EB80, symSize: 0x30 }
  - { offsetInCU: 0x32379, offset: 0x3C863, size: 0x8, addend: 0x0, symName: __ZNSt3__129_AllocatorDestroyRangeReverseINS_9allocatorINS_12basic_stringIcNS_11char_traitsIcEENS1_IcEEEEEENS_16reverse_iteratorIPS6_EEEC2B7v160006ERS7_RSA_SD_, symObjAddr: 0x7DA4, symBinAddr: 0x10000EBB0, symSize: 0x38 }
  - { offsetInCU: 0x323CF, offset: 0x3C8B9, size: 0x8, addend: 0x0, symName: __ZNSt3__19allocatorINS_12basic_stringIcNS_11char_traitsIcEENS0_IcEEEEE9constructB7v160006IS5_JS5_EEEvPT_DpOT0_, symObjAddr: 0x7DDC, symBinAddr: 0x10000EBE8, symSize: 0x30 }
  - { offsetInCU: 0x3242A, offset: 0x3C914, size: 0x8, addend: 0x0, symName: __ZNSt3__119__to_address_helperINS_16reverse_iteratorIPNS_12basic_stringIcNS_11char_traitsIcEENS_9allocatorIcEEEEEEvE6__callB7v160006ERKS9_, symObjAddr: 0x7ED4, symBinAddr: 0x10000EC18, symSize: 0x38 }
  - { offsetInCU: 0x3244D, offset: 0x3C937, size: 0x8, addend: 0x0, symName: __ZNKSt3__116reverse_iteratorIPNS_12basic_stringIcNS_11char_traitsIcEENS_9allocatorIcEEEEEptB7v160006Ev, symObjAddr: 0x7F0C, symBinAddr: 0x10000EC50, symSize: 0x24 }
  - { offsetInCU: 0x32472, offset: 0x3C95C, size: 0x8, addend: 0x0, symName: __ZNSt3__128__exception_guard_exceptionsINS_29_AllocatorDestroyRangeReverseINS_9allocatorINS_12basic_stringIcNS_11char_traitsIcEENS2_IcEEEEEENS_16reverse_iteratorIPS7_EEEEED2B7v160006Ev, symObjAddr: 0x7F30, symBinAddr: 0x10000EC74, symSize: 0x50 }
  - { offsetInCU: 0x3249A, offset: 0x3C984, size: 0x8, addend: 0x0, symName: __ZNKSt3__129_AllocatorDestroyRangeReverseINS_9allocatorINS_12basic_stringIcNS_11char_traitsIcEENS1_IcEEEEEENS_16reverse_iteratorIPS6_EEEclB7v160006Ev, symObjAddr: 0x7F80, symBinAddr: 0x10000ECC4, symSize: 0xB4 }
  - { offsetInCU: 0x324C0, offset: 0x3C9AA, size: 0x8, addend: 0x0, symName: __ZNSt3__116reverse_iteratorINS0_IPNS_12basic_stringIcNS_11char_traitsIcEENS_9allocatorIcEEEEEEEC1B7v160006ES8_, symObjAddr: 0x80A4, symBinAddr: 0x10000EDE8, symSize: 0x3C }
  - { offsetInCU: 0x324F6, offset: 0x3C9E0, size: 0x8, addend: 0x0, symName: __ZNSt3__116allocator_traitsINS_9allocatorINS_12basic_stringIcNS_11char_traitsIcEENS1_IcEEEEEEE7destroyB7v160006IS6_vEEvRS7_PT_, symObjAddr: 0x8140, symBinAddr: 0x10000EE84, symSize: 0x2C }
  - { offsetInCU: 0x32534, offset: 0x3CA1E, size: 0x8, addend: 0x0, symName: __ZNSt3__116reverse_iteratorINS0_IPNS_12basic_stringIcNS_11char_traitsIcEENS_9allocatorIcEEEEEEEppB7v160006Ev, symObjAddr: 0x8190, symBinAddr: 0x10000EED4, symSize: 0x30 }
  - { offsetInCU: 0x32559, offset: 0x3CA43, size: 0x8, addend: 0x0, symName: __ZNKSt3__116reverse_iteratorINS0_IPNS_12basic_stringIcNS_11char_traitsIcEENS_9allocatorIcEEEEEEE4baseB7v160006Ev, symObjAddr: 0x81C0, symBinAddr: 0x10000EF04, symSize: 0x24 }
  - { offsetInCU: 0x3257E, offset: 0x3CA68, size: 0x8, addend: 0x0, symName: __ZNSt3__19allocatorINS_12basic_stringIcNS_11char_traitsIcEENS0_IcEEEEE7destroyB7v160006EPS5_, symObjAddr: 0x81E4, symBinAddr: 0x10000EF28, symSize: 0x28 }
  - { offsetInCU: 0x325B6, offset: 0x3CAA0, size: 0x8, addend: 0x0, symName: __ZNSt3__119__to_address_helperINS_16reverse_iteratorINS1_IPNS_12basic_stringIcNS_11char_traitsIcEENS_9allocatorIcEEEEEEEEvE6__callB7v160006ERKSA_, symObjAddr: 0x820C, symBinAddr: 0x10000EF50, symSize: 0x38 }
  - { offsetInCU: 0x325D9, offset: 0x3CAC3, size: 0x8, addend: 0x0, symName: __ZNKSt3__116reverse_iteratorINS0_IPNS_12basic_stringIcNS_11char_traitsIcEENS_9allocatorIcEEEEEEEptB7v160006Ev, symObjAddr: 0x8244, symBinAddr: 0x10000EF88, symSize: 0x24 }
  - { offsetInCU: 0x325FE, offset: 0x3CAE8, size: 0x8, addend: 0x0, symName: __ZNKSt3__116reverse_iteratorINS0_IPNS_12basic_stringIcNS_11char_traitsIcEENS_9allocatorIcEEEEEEEdeB7v160006Ev, symObjAddr: 0x8268, symBinAddr: 0x10000EFAC, symSize: 0x34 }
  - { offsetInCU: 0x32631, offset: 0x3CB1B, size: 0x8, addend: 0x0, symName: __ZNSt3__116reverse_iteratorIPNS_12basic_stringIcNS_11char_traitsIcEENS_9allocatorIcEEEEEmmB7v160006Ev, symObjAddr: 0x829C, symBinAddr: 0x10000EFE0, symSize: 0x20 }
  - { offsetInCU: 0x32656, offset: 0x3CB40, size: 0x8, addend: 0x0, symName: __ZNSt3__116reverse_iteratorINS0_IPNS_12basic_stringIcNS_11char_traitsIcEENS_9allocatorIcEEEEEEEC2B7v160006ES8_, symObjAddr: 0x82BC, symBinAddr: 0x10000F000, symSize: 0x2C }
  - { offsetInCU: 0x3268D, offset: 0x3CB77, size: 0x8, addend: 0x0, symName: __ZNSt3__116reverse_iteratorIPNS_12basic_stringIcNS_11char_traitsIcEENS_9allocatorIcEEEEEC2B7v160006ES7_, symObjAddr: 0x82E8, symBinAddr: 0x10000F02C, symSize: 0x28 }
  - { offsetInCU: 0x326C4, offset: 0x3CBAE, size: 0x8, addend: 0x0, symName: __ZNSt3__114__split_bufferINS_12basic_stringIcNS_11char_traitsIcEENS_9allocatorIcEEEERNS4_IS6_EEED2Ev, symObjAddr: 0x8310, symBinAddr: 0x10000F054, symSize: 0x8C }
  - { offsetInCU: 0x326EF, offset: 0x3CBD9, size: 0x8, addend: 0x0, symName: __ZNSt3__114__split_bufferINS_12basic_stringIcNS_11char_traitsIcEENS_9allocatorIcEEEERNS4_IS6_EEE5clearB7v160006Ev, symObjAddr: 0x839C, symBinAddr: 0x10000F0E0, symSize: 0x28 }
  - { offsetInCU: 0x32714, offset: 0x3CBFE, size: 0x8, addend: 0x0, symName: __ZNSt3__116allocator_traitsINS_9allocatorINS_12basic_stringIcNS_11char_traitsIcEENS1_IcEEEEEEE10deallocateB7v160006ERS7_PS6_m, symObjAddr: 0x83C4, symBinAddr: 0x10000F108, symSize: 0x34 }
  - { offsetInCU: 0x32756, offset: 0x3CC40, size: 0x8, addend: 0x0, symName: __ZNKSt3__114__split_bufferINS_12basic_stringIcNS_11char_traitsIcEENS_9allocatorIcEEEERNS4_IS6_EEE8capacityB7v160006Ev, symObjAddr: 0x83F8, symBinAddr: 0x10000F13C, symSize: 0x40 }
  - { offsetInCU: 0x3277B, offset: 0x3CC65, size: 0x8, addend: 0x0, symName: __ZNSt3__114__split_bufferINS_12basic_stringIcNS_11char_traitsIcEENS_9allocatorIcEEEERNS4_IS6_EEE17__destruct_at_endB7v160006EPS6_, symObjAddr: 0x8438, symBinAddr: 0x10000F17C, symSize: 0x2C }
  - { offsetInCU: 0x327AE, offset: 0x3CC98, size: 0x8, addend: 0x0, symName: __ZNSt3__114__split_bufferINS_12basic_stringIcNS_11char_traitsIcEENS_9allocatorIcEEEERNS4_IS6_EEE17__destruct_at_endB7v160006EPS6_NS_17integral_constantIbLb0EEE, symObjAddr: 0x8464, symBinAddr: 0x10000F1A8, symSize: 0x80 }
  - { offsetInCU: 0x327EE, offset: 0x3CCD8, size: 0x8, addend: 0x0, symName: __ZNSt3__19allocatorINS_12basic_stringIcNS_11char_traitsIcEENS0_IcEEEEE10deallocateB7v160006EPS5_m, symObjAddr: 0x84E4, symBinAddr: 0x10000F228, symSize: 0x44 }
  - { offsetInCU: 0x3282F, offset: 0x3CD19, size: 0x8, addend: 0x0, symName: __ZNKSt3__114__split_bufferINS_12basic_stringIcNS_11char_traitsIcEENS_9allocatorIcEEEERNS4_IS6_EEE9__end_capB7v160006Ev, symObjAddr: 0x8630, symBinAddr: 0x10000F374, symSize: 0x28 }
  - { offsetInCU: 0x32854, offset: 0x3CD3E, size: 0x8, addend: 0x0, symName: __ZNKSt3__117__compressed_pairIPNS_12basic_stringIcNS_11char_traitsIcEENS_9allocatorIcEEEERNS4_IS6_EEE5firstB7v160006Ev, symObjAddr: 0x8658, symBinAddr: 0x10000F39C, symSize: 0x24 }
  - { offsetInCU: 0x32879, offset: 0x3CD63, size: 0x8, addend: 0x0, symName: __ZNSt3__16vectorINS_12basic_stringIcNS_11char_traitsIcEENS_9allocatorIcEEEENS4_IS6_EEE27__invalidate_iterators_pastB7v160006EPS6_, symObjAddr: 0x867C, symBinAddr: 0x10000F3C0, symSize: 0x14 }
  - { offsetInCU: 0x328AF, offset: 0x3CD99, size: 0x8, addend: 0x0, symName: __ZNSt3__16vectorINS_12basic_stringIcNS_11char_traitsIcEENS_9allocatorIcEEEENS4_IS6_EEE22__base_destruct_at_endB7v160006EPS6_, symObjAddr: 0x8690, symBinAddr: 0x10000F3D4, symSize: 0x8C }
  - { offsetInCU: 0x328F2, offset: 0x3CDDC, size: 0x8, addend: 0x0, symName: __ZNKSt3__16vectorINS_12basic_stringIcNS_11char_traitsIcEENS_9allocatorIcEEEENS4_IS6_EEE17__annotate_shrinkB7v160006Em, symObjAddr: 0x871C, symBinAddr: 0x10000F460, symSize: 0xD0 }
  - { offsetInCU: 0x32926, offset: 0x3CE10, size: 0x8, addend: 0x0, symName: __ZNKSt3__16vectorI10ColumnTypeNS_9allocatorIS1_EEE4sizeB7v160006Ev, symObjAddr: 0x87EC, symBinAddr: 0x10000F530, symSize: 0x20 }
  - { offsetInCU: 0x3294B, offset: 0x3CE35, size: 0x8, addend: 0x0, symName: __ZNSt3__16vectorI10ColumnTypeNS_9allocatorIS1_EEE8__appendEm, symObjAddr: 0x880C, symBinAddr: 0x10000F550, symSize: 0x100 }
  - { offsetInCU: 0x329A5, offset: 0x3CE8F, size: 0x8, addend: 0x0, symName: __ZNSt3__16vectorI10ColumnTypeNS_9allocatorIS1_EEE17__destruct_at_endB7v160006EPS1_, symObjAddr: 0x890C, symBinAddr: 0x10000F650, symSize: 0x60 }
  - { offsetInCU: 0x329E8, offset: 0x3CED2, size: 0x8, addend: 0x0, symName: __ZNSt3__16vectorI10ColumnTypeNS_9allocatorIS1_EEE9__end_capB7v160006Ev, symObjAddr: 0x896C, symBinAddr: 0x10000F6B0, symSize: 0x28 }
  - { offsetInCU: 0x32A0D, offset: 0x3CEF7, size: 0x8, addend: 0x0, symName: __ZNSt3__16vectorI10ColumnTypeNS_9allocatorIS1_EEE18__construct_at_endEm, symObjAddr: 0x8994, symBinAddr: 0x10000F6D8, symSize: 0xC8 }
  - { offsetInCU: 0x32A7F, offset: 0x3CF69, size: 0x8, addend: 0x0, symName: __ZNSt3__16vectorI10ColumnTypeNS_9allocatorIS1_EEE7__allocB7v160006Ev, symObjAddr: 0x8A5C, symBinAddr: 0x10000F7A0, symSize: 0x28 }
  - { offsetInCU: 0x32AA4, offset: 0x3CF8E, size: 0x8, addend: 0x0, symName: __ZNKSt3__16vectorI10ColumnTypeNS_9allocatorIS1_EEE11__recommendB7v160006Em, symObjAddr: 0x8A84, symBinAddr: 0x10000F7C8, symSize: 0xB4 }
  - { offsetInCU: 0x32AF8, offset: 0x3CFE2, size: 0x8, addend: 0x0, symName: __ZNSt3__114__split_bufferI10ColumnTypeRNS_9allocatorIS1_EEEC1EmmS4_, symObjAddr: 0x8B38, symBinAddr: 0x10000F87C, symSize: 0x44 }
  - { offsetInCU: 0x32B4D, offset: 0x3D037, size: 0x8, addend: 0x0, symName: __ZNSt3__114__split_bufferI10ColumnTypeRNS_9allocatorIS1_EEE18__construct_at_endEm, symObjAddr: 0x8B7C, symBinAddr: 0x10000F8C0, symSize: 0xB4 }
  - { offsetInCU: 0x32B8F, offset: 0x3D079, size: 0x8, addend: 0x0, symName: __ZNSt3__114__split_bufferI10ColumnTypeRNS_9allocatorIS1_EEED1Ev, symObjAddr: 0x8D48, symBinAddr: 0x10000FA8C, symSize: 0x2C }
  - { offsetInCU: 0x32BBA, offset: 0x3D0A4, size: 0x8, addend: 0x0, symName: __ZNSt3__117__compressed_pairIP10ColumnTypeNS_9allocatorIS1_EEE5firstB7v160006Ev, symObjAddr: 0x8D74, symBinAddr: 0x10000FAB8, symSize: 0x24 }
  - { offsetInCU: 0x32BDF, offset: 0x3D0C9, size: 0x8, addend: 0x0, symName: __ZNSt3__122__compressed_pair_elemIP10ColumnTypeLi0ELb0EE5__getB7v160006Ev, symObjAddr: 0x8D98, symBinAddr: 0x10000FADC, symSize: 0x14 }
  - { offsetInCU: 0x32C1D, offset: 0x3D107, size: 0x8, addend: 0x0, symName: __ZNSt3__16vectorI10ColumnTypeNS_9allocatorIS1_EEE21_ConstructTransactionC1B7v160006ERS4_m, symObjAddr: 0x8DAC, symBinAddr: 0x10000FAF0, symSize: 0x3C }
  - { offsetInCU: 0x32C63, offset: 0x3D14D, size: 0x8, addend: 0x0, symName: __ZNSt3__116allocator_traitsINS_9allocatorI10ColumnTypeEEE9constructB7v160006IS2_JEvEEvRS3_PT_DpOT0_, symObjAddr: 0x8DE8, symBinAddr: 0x10000FB2C, symSize: 0x2C }
  - { offsetInCU: 0x32CA7, offset: 0x3D191, size: 0x8, addend: 0x0, symName: __ZNSt3__16vectorI10ColumnTypeNS_9allocatorIS1_EEE21_ConstructTransactionD1B7v160006Ev, symObjAddr: 0x8E28, symBinAddr: 0x10000FB6C, symSize: 0x2C }
  - { offsetInCU: 0x32CCF, offset: 0x3D1B9, size: 0x8, addend: 0x0, symName: __ZNSt3__16vectorI10ColumnTypeNS_9allocatorIS1_EEE21_ConstructTransactionC2B7v160006ERS4_m, symObjAddr: 0x8E54, symBinAddr: 0x10000FB98, symSize: 0x44 }
  - { offsetInCU: 0x32D16, offset: 0x3D200, size: 0x8, addend: 0x0, symName: __ZNSt3__19allocatorI10ColumnTypeE9constructB7v160006IS1_JEEEvPT_DpOT0_, symObjAddr: 0x8E98, symBinAddr: 0x10000FBDC, symSize: 0x1C }
  - { offsetInCU: 0x32D58, offset: 0x3D242, size: 0x8, addend: 0x0, symName: __ZNSt3__16vectorI10ColumnTypeNS_9allocatorIS1_EEE21_ConstructTransactionD2B7v160006Ev, symObjAddr: 0x8EB4, symBinAddr: 0x10000FBF8, symSize: 0x20 }
  - { offsetInCU: 0x32D81, offset: 0x3D26B, size: 0x8, addend: 0x0, symName: __ZNSt3__117__compressed_pairIP10ColumnTypeNS_9allocatorIS1_EEE6secondB7v160006Ev, symObjAddr: 0x8ED4, symBinAddr: 0x10000FC18, symSize: 0x24 }
  - { offsetInCU: 0x32DA6, offset: 0x3D290, size: 0x8, addend: 0x0, symName: __ZNSt3__122__compressed_pair_elemINS_9allocatorI10ColumnTypeEELi1ELb1EE5__getB7v160006Ev, symObjAddr: 0x8EF8, symBinAddr: 0x10000FC3C, symSize: 0x14 }
  - { offsetInCU: 0x32DCB, offset: 0x3D2B5, size: 0x8, addend: 0x0, symName: __ZNKSt3__16vectorI10ColumnTypeNS_9allocatorIS1_EEE8max_sizeEv, symObjAddr: 0x8F0C, symBinAddr: 0x10000FC50, symSize: 0x60 }
  - { offsetInCU: 0x32DF2, offset: 0x3D2DC, size: 0x8, addend: 0x0, symName: __ZNKSt3__16vectorI10ColumnTypeNS_9allocatorIS1_EEE20__throw_length_errorB7v160006Ev, symObjAddr: 0x8F6C, symBinAddr: 0x10000FCB0, symSize: 0x1C }
  - { offsetInCU: 0x32E17, offset: 0x3D301, size: 0x8, addend: 0x0, symName: __ZNKSt3__16vectorI10ColumnTypeNS_9allocatorIS1_EEE8capacityB7v160006Ev, symObjAddr: 0x8F88, symBinAddr: 0x10000FCCC, symSize: 0x38 }
  - { offsetInCU: 0x32E46, offset: 0x3D330, size: 0x8, addend: 0x0, symName: __ZNSt3__116allocator_traitsINS_9allocatorI10ColumnTypeEEE8max_sizeB7v160006IS3_vEEmRKS3_, symObjAddr: 0x8FC0, symBinAddr: 0x10000FD04, symSize: 0x24 }
  - { offsetInCU: 0x32E75, offset: 0x3D35F, size: 0x8, addend: 0x0, symName: __ZNKSt3__16vectorI10ColumnTypeNS_9allocatorIS1_EEE7__allocB7v160006Ev, symObjAddr: 0x8FE4, symBinAddr: 0x10000FD28, symSize: 0x28 }
  - { offsetInCU: 0x32E9A, offset: 0x3D384, size: 0x8, addend: 0x0, symName: __ZNKSt3__19allocatorI10ColumnTypeE8max_sizeB7v160006Ev, symObjAddr: 0x900C, symBinAddr: 0x10000FD50, symSize: 0x14 }
  - { offsetInCU: 0x32EBF, offset: 0x3D3A9, size: 0x8, addend: 0x0, symName: __ZNKSt3__117__compressed_pairIP10ColumnTypeNS_9allocatorIS1_EEE6secondB7v160006Ev, symObjAddr: 0x9020, symBinAddr: 0x10000FD64, symSize: 0x24 }
  - { offsetInCU: 0x32EE4, offset: 0x3D3CE, size: 0x8, addend: 0x0, symName: __ZNKSt3__122__compressed_pair_elemINS_9allocatorI10ColumnTypeEELi1ELb1EE5__getB7v160006Ev, symObjAddr: 0x9044, symBinAddr: 0x10000FD88, symSize: 0x14 }
  - { offsetInCU: 0x32F09, offset: 0x3D3F3, size: 0x8, addend: 0x0, symName: __ZNKSt3__16vectorI10ColumnTypeNS_9allocatorIS1_EEE9__end_capB7v160006Ev, symObjAddr: 0x9058, symBinAddr: 0x10000FD9C, symSize: 0x28 }
  - { offsetInCU: 0x32F2E, offset: 0x3D418, size: 0x8, addend: 0x0, symName: __ZNKSt3__117__compressed_pairIP10ColumnTypeNS_9allocatorIS1_EEE5firstB7v160006Ev, symObjAddr: 0x9080, symBinAddr: 0x10000FDC4, symSize: 0x24 }
  - { offsetInCU: 0x32F53, offset: 0x3D43D, size: 0x8, addend: 0x0, symName: __ZNKSt3__122__compressed_pair_elemIP10ColumnTypeLi0ELb0EE5__getB7v160006Ev, symObjAddr: 0x90A4, symBinAddr: 0x10000FDE8, symSize: 0x14 }
  - { offsetInCU: 0x32F78, offset: 0x3D462, size: 0x8, addend: 0x0, symName: __ZNSt3__114__split_bufferI10ColumnTypeRNS_9allocatorIS1_EEEC2EmmS4_, symObjAddr: 0x90B8, symBinAddr: 0x10000FDFC, symSize: 0xD4 }
  - { offsetInCU: 0x32FEB, offset: 0x3D4D5, size: 0x8, addend: 0x0, symName: __ZNSt3__117__compressed_pairIP10ColumnTypeRNS_9allocatorIS1_EEEC1B7v160006IDnS5_EEOT_OT0_, symObjAddr: 0x918C, symBinAddr: 0x10000FED0, symSize: 0x3C }
  - { offsetInCU: 0x33041, offset: 0x3D52B, size: 0x8, addend: 0x0, symName: __ZNSt3__114__split_bufferI10ColumnTypeRNS_9allocatorIS1_EEE7__allocB7v160006Ev, symObjAddr: 0x9208, symBinAddr: 0x10000FF4C, symSize: 0x28 }
  - { offsetInCU: 0x33066, offset: 0x3D550, size: 0x8, addend: 0x0, symName: __ZNSt3__114__split_bufferI10ColumnTypeRNS_9allocatorIS1_EEE9__end_capB7v160006Ev, symObjAddr: 0x9230, symBinAddr: 0x10000FF74, symSize: 0x28 }
  - { offsetInCU: 0x3308B, offset: 0x3D575, size: 0x8, addend: 0x0, symName: __ZNSt3__117__compressed_pairIP10ColumnTypeRNS_9allocatorIS1_EEEC2B7v160006IDnS5_EEOT_OT0_, symObjAddr: 0x9258, symBinAddr: 0x10000FF9C, symSize: 0x48 }
  - { offsetInCU: 0x330E1, offset: 0x3D5CB, size: 0x8, addend: 0x0, symName: __ZNSt3__122__compressed_pair_elemIRNS_9allocatorI10ColumnTypeEELi1ELb0EEC2B7v160006IS4_vEEOT_, symObjAddr: 0x92A0, symBinAddr: 0x10000FFE4, symSize: 0x20 }
  - { offsetInCU: 0x33123, offset: 0x3D60D, size: 0x8, addend: 0x0, symName: __ZNSt3__19allocatorI10ColumnTypeE8allocateB7v160006Em, symObjAddr: 0x92C0, symBinAddr: 0x100010004, symSize: 0x58 }
  - { offsetInCU: 0x33156, offset: 0x3D640, size: 0x8, addend: 0x0, symName: __ZNSt3__117__compressed_pairIP10ColumnTypeRNS_9allocatorIS1_EEE6secondB7v160006Ev, symObjAddr: 0x9318, symBinAddr: 0x10001005C, symSize: 0x28 }
  - { offsetInCU: 0x3317B, offset: 0x3D665, size: 0x8, addend: 0x0, symName: __ZNSt3__122__compressed_pair_elemIRNS_9allocatorI10ColumnTypeEELi1ELb0EE5__getB7v160006Ev, symObjAddr: 0x9340, symBinAddr: 0x100010084, symSize: 0x18 }
  - { offsetInCU: 0x331A0, offset: 0x3D68A, size: 0x8, addend: 0x0, symName: __ZNSt3__117__compressed_pairIP10ColumnTypeRNS_9allocatorIS1_EEE5firstB7v160006Ev, symObjAddr: 0x9358, symBinAddr: 0x10001009C, symSize: 0x24 }
  - { offsetInCU: 0x331CF, offset: 0x3D6B9, size: 0x8, addend: 0x0, symName: __ZNSt3__114__split_bufferI10ColumnTypeRNS_9allocatorIS1_EEE21_ConstructTransactionC1B7v160006EPPS1_m, symObjAddr: 0x937C, symBinAddr: 0x1000100C0, symSize: 0x3C }
  - { offsetInCU: 0x33213, offset: 0x3D6FD, size: 0x8, addend: 0x0, symName: __ZNSt3__114__split_bufferI10ColumnTypeRNS_9allocatorIS1_EEE21_ConstructTransactionD1B7v160006Ev, symObjAddr: 0x93B8, symBinAddr: 0x1000100FC, symSize: 0x2C }
  - { offsetInCU: 0x3323B, offset: 0x3D725, size: 0x8, addend: 0x0, symName: __ZNSt3__114__split_bufferI10ColumnTypeRNS_9allocatorIS1_EEE21_ConstructTransactionC2B7v160006EPPS1_m, symObjAddr: 0x93E4, symBinAddr: 0x100010128, symSize: 0x44 }
  - { offsetInCU: 0x33280, offset: 0x3D76A, size: 0x8, addend: 0x0, symName: __ZNSt3__114__split_bufferI10ColumnTypeRNS_9allocatorIS1_EEE21_ConstructTransactionD2B7v160006Ev, symObjAddr: 0x9428, symBinAddr: 0x10001016C, symSize: 0x20 }
  - { offsetInCU: 0x332A9, offset: 0x3D793, size: 0x8, addend: 0x0, symName: __ZNKSt3__16vectorI10ColumnTypeNS_9allocatorIS1_EEE17__annotate_deleteB7v160006Ev, symObjAddr: 0x9448, symBinAddr: 0x10001018C, symSize: 0xB8 }
  - { offsetInCU: 0x332CE, offset: 0x3D7B8, size: 0x8, addend: 0x0, symName: __ZNSt3__116reverse_iteratorIP10ColumnTypeEC1B7v160006ES2_, symObjAddr: 0x9578, symBinAddr: 0x1000102BC, symSize: 0x34 }
  - { offsetInCU: 0x33304, offset: 0x3D7EE, size: 0x8, addend: 0x0, symName: __ZNKSt3__116reverse_iteratorIP10ColumnTypeE4baseB7v160006Ev, symObjAddr: 0x95AC, symBinAddr: 0x1000102F0, symSize: 0x18 }
  - { offsetInCU: 0x33329, offset: 0x3D813, size: 0x8, addend: 0x0, symName: __ZNKSt3__16vectorI10ColumnTypeNS_9allocatorIS1_EEE14__annotate_newB7v160006Em, symObjAddr: 0x9600, symBinAddr: 0x100010344, symSize: 0xAC }
  - { offsetInCU: 0x3335D, offset: 0x3D847, size: 0x8, addend: 0x0, symName: __ZNKSt3__16vectorI10ColumnTypeNS_9allocatorIS1_EEE31__annotate_contiguous_containerB7v160006EPKvS6_S6_S6_, symObjAddr: 0x96BC, symBinAddr: 0x100010400, symSize: 0x20 }
  - { offsetInCU: 0x333B2, offset: 0x3D89C, size: 0x8, addend: 0x0, symName: __ZNKSt3__16vectorI10ColumnTypeNS_9allocatorIS1_EEE4dataB7v160006Ev, symObjAddr: 0x96DC, symBinAddr: 0x100010420, symSize: 0x28 }
  - { offsetInCU: 0x333FA, offset: 0x3D8E4, size: 0x8, addend: 0x0, symName: __ZNKSt3__111__move_loopINS_17_ClassicAlgPolicyEEclB7v160006INS_16reverse_iteratorIP10ColumnTypeEES7_S7_EENS_4pairIT_T1_EES9_T0_SA_, symObjAddr: 0x99F4, symBinAddr: 0x100010738, symSize: 0xA0 }
  - { offsetInCU: 0x33469, offset: 0x3D953, size: 0x8, addend: 0x0, symName: __ZNSt3__18_IterOpsINS_17_ClassicAlgPolicyEE11__iter_moveB7v160006IRNS_16reverse_iteratorIP10ColumnTypeEEEENS_9enable_ifIXsr12is_referenceIDTdeclsr3stdE7declvalIRT_EEEEE5valueEDTclsr3stdE4movedeclsr3stdE7declvalISB_EEEEE4typeEOSA_, symObjAddr: 0x9C28, symBinAddr: 0x10001096C, symSize: 0x28 }
  - { offsetInCU: 0x33495, offset: 0x3D97F, size: 0x8, addend: 0x0, symName: __ZNKSt3__116reverse_iteratorIP10ColumnTypeEdeB7v160006Ev, symObjAddr: 0x9C50, symBinAddr: 0x100010994, symSize: 0x28 }
  - { offsetInCU: 0x334C8, offset: 0x3D9B2, size: 0x8, addend: 0x0, symName: __ZNSt3__116reverse_iteratorIP10ColumnTypeEppB7v160006Ev, symObjAddr: 0x9C78, symBinAddr: 0x1000109BC, symSize: 0x20 }
  - { offsetInCU: 0x334ED, offset: 0x3D9D7, size: 0x8, addend: 0x0, symName: __ZNSt3__18_IterOpsINS_17_ClassicAlgPolicyEE25__validate_iter_referenceB7v160006IRNS_16reverse_iteratorIP10ColumnTypeEEEEvv, symObjAddr: 0x9C98, symBinAddr: 0x1000109DC, symSize: 0x4 }
  - { offsetInCU: 0x3350B, offset: 0x3D9F5, size: 0x8, addend: 0x0, symName: __ZNSt3__118__unwrap_iter_implINS_16reverse_iteratorIP10ColumnTypeEELb0EE8__unwrapB7v160006ES4_, symObjAddr: 0x9C9C, symBinAddr: 0x1000109E0, symSize: 0x24 }
  - { offsetInCU: 0x33533, offset: 0x3DA1D, size: 0x8, addend: 0x0, symName: __ZNSt3__14pairINS_16reverse_iteratorIP10ColumnTypeEES4_EC1B7v160006IS4_S4_LPv0EEEOT_OT0_, symObjAddr: 0x9CC0, symBinAddr: 0x100010A04, symSize: 0x3C }
  - { offsetInCU: 0x3358F, offset: 0x3DA79, size: 0x8, addend: 0x0, symName: __ZNSt3__14pairINS_16reverse_iteratorIP10ColumnTypeEES4_EC2B7v160006IS4_S4_LPv0EEEOT_OT0_, symObjAddr: 0x9CFC, symBinAddr: 0x100010A40, symSize: 0x34 }
  - { offsetInCU: 0x335EC, offset: 0x3DAD6, size: 0x8, addend: 0x0, symName: __ZNSt3__118__unwrap_iter_implINS_16reverse_iteratorIP10ColumnTypeEELb0EE8__rewrapB7v160006ES4_S4_, symObjAddr: 0x9D30, symBinAddr: 0x100010A74, symSize: 0x2C }
  - { offsetInCU: 0x3361A, offset: 0x3DB04, size: 0x8, addend: 0x0, symName: __ZNSt3__116reverse_iteratorIP10ColumnTypeEC2B7v160006ES2_, symObjAddr: 0x9D5C, symBinAddr: 0x100010AA0, symSize: 0x28 }
  - { offsetInCU: 0x33651, offset: 0x3DB3B, size: 0x8, addend: 0x0, symName: __ZNSt3__114__split_bufferI10ColumnTypeRNS_9allocatorIS1_EEED2Ev, symObjAddr: 0x9D84, symBinAddr: 0x100010AC8, symSize: 0x8C }
  - { offsetInCU: 0x3367C, offset: 0x3DB66, size: 0x8, addend: 0x0, symName: __ZNSt3__114__split_bufferI10ColumnTypeRNS_9allocatorIS1_EEE5clearB7v160006Ev, symObjAddr: 0x9E10, symBinAddr: 0x100010B54, symSize: 0x28 }
  - { offsetInCU: 0x336A1, offset: 0x3DB8B, size: 0x8, addend: 0x0, symName: __ZNSt3__116allocator_traitsINS_9allocatorI10ColumnTypeEEE10deallocateB7v160006ERS3_PS2_m, symObjAddr: 0x9E38, symBinAddr: 0x100010B7C, symSize: 0x34 }
  - { offsetInCU: 0x336E3, offset: 0x3DBCD, size: 0x8, addend: 0x0, symName: __ZNKSt3__114__split_bufferI10ColumnTypeRNS_9allocatorIS1_EEE8capacityB7v160006Ev, symObjAddr: 0x9E6C, symBinAddr: 0x100010BB0, symSize: 0x38 }
  - { offsetInCU: 0x33708, offset: 0x3DBF2, size: 0x8, addend: 0x0, symName: __ZNSt3__114__split_bufferI10ColumnTypeRNS_9allocatorIS1_EEE17__destruct_at_endB7v160006EPS1_, symObjAddr: 0x9EA4, symBinAddr: 0x100010BE8, symSize: 0x2C }
  - { offsetInCU: 0x3373B, offset: 0x3DC25, size: 0x8, addend: 0x0, symName: __ZNSt3__114__split_bufferI10ColumnTypeRNS_9allocatorIS1_EEE17__destruct_at_endB7v160006EPS1_NS_17integral_constantIbLb0EEE, symObjAddr: 0x9ED0, symBinAddr: 0x100010C14, symSize: 0x80 }
  - { offsetInCU: 0x3377B, offset: 0x3DC65, size: 0x8, addend: 0x0, symName: __ZNSt3__116allocator_traitsINS_9allocatorI10ColumnTypeEEE7destroyB7v160006IS2_vEEvRS3_PT_, symObjAddr: 0x9F50, symBinAddr: 0x100010C94, symSize: 0x2C }
  - { offsetInCU: 0x337B9, offset: 0x3DCA3, size: 0x8, addend: 0x0, symName: __ZNSt3__19allocatorI10ColumnTypeE7destroyB7v160006EPS1_, symObjAddr: 0x9F7C, symBinAddr: 0x100010CC0, symSize: 0x14 }
  - { offsetInCU: 0x337EC, offset: 0x3DCD6, size: 0x8, addend: 0x0, symName: __ZNSt3__19allocatorI10ColumnTypeE10deallocateB7v160006EPS1_m, symObjAddr: 0x9F90, symBinAddr: 0x100010CD4, symSize: 0x40 }
  - { offsetInCU: 0x3382D, offset: 0x3DD17, size: 0x8, addend: 0x0, symName: __ZNKSt3__114__split_bufferI10ColumnTypeRNS_9allocatorIS1_EEE9__end_capB7v160006Ev, symObjAddr: 0x9FD0, symBinAddr: 0x100010D14, symSize: 0x28 }
  - { offsetInCU: 0x33852, offset: 0x3DD3C, size: 0x8, addend: 0x0, symName: __ZNKSt3__117__compressed_pairIP10ColumnTypeRNS_9allocatorIS1_EEE5firstB7v160006Ev, symObjAddr: 0x9FF8, symBinAddr: 0x100010D3C, symSize: 0x24 }
  - { offsetInCU: 0x33877, offset: 0x3DD61, size: 0x8, addend: 0x0, symName: __ZNSt3__16vectorI10ColumnTypeNS_9allocatorIS1_EEE27__invalidate_iterators_pastB7v160006EPS1_, symObjAddr: 0xA01C, symBinAddr: 0x100010D60, symSize: 0x14 }
  - { offsetInCU: 0x338AD, offset: 0x3DD97, size: 0x8, addend: 0x0, symName: __ZNSt3__16vectorI10ColumnTypeNS_9allocatorIS1_EEE22__base_destruct_at_endB7v160006EPS1_, symObjAddr: 0xA030, symBinAddr: 0x100010D74, symSize: 0x8C }
  - { offsetInCU: 0x338F0, offset: 0x3DDDA, size: 0x8, addend: 0x0, symName: __ZNKSt3__16vectorI10ColumnTypeNS_9allocatorIS1_EEE17__annotate_shrinkB7v160006Em, symObjAddr: 0xA0BC, symBinAddr: 0x100010E00, symSize: 0xB4 }
  - { offsetInCU: 0x33924, offset: 0x3DE0E, size: 0x8, addend: 0x0, symName: __ZNSt3__112__hash_tableINS_17__hash_value_typeINS_12basic_stringIcNS_11char_traitsIcEENS_9allocatorIcEEEE5TableEENS_22__unordered_map_hasherIS7_S9_NS_4hashIS7_EENS_8equal_toIS7_EELb1EEENS_21__unordered_map_equalIS7_S9_SE_SC_Lb1EEENS5_IS9_EEE4findIS7_EENS_15__hash_iteratorIPNS_11__hash_nodeIS9_PvEEEERKT_, symObjAddr: 0xA1A0, symBinAddr: 0x100010EE4, symSize: 0x1B4 }
  - { offsetInCU: 0x339AE, offset: 0x3DE98, size: 0x8, addend: 0x0, symName: __ZNSt3__119__hash_map_iteratorINS_15__hash_iteratorIPNS_11__hash_nodeINS_17__hash_value_typeINS_12basic_stringIcNS_11char_traitsIcEENS_9allocatorIcEEEE5TableEEPvEEEEEC1B7v160006ESF_, symObjAddr: 0xA354, symBinAddr: 0x100011098, symSize: 0x34 }
  - { offsetInCU: 0x339E5, offset: 0x3DECF, size: 0x8, addend: 0x0, symName: __ZNSt3__112__hash_tableINS_17__hash_value_typeINS_12basic_stringIcNS_11char_traitsIcEENS_9allocatorIcEEEE5TableEENS_22__unordered_map_hasherIS7_S9_NS_4hashIS7_EENS_8equal_toIS7_EELb1EEENS_21__unordered_map_equalIS7_S9_SE_SC_Lb1EEENS5_IS9_EEE13hash_functionB7v160006Ev, symObjAddr: 0xA388, symBinAddr: 0x1000110CC, symSize: 0x28 }
  - { offsetInCU: 0x33A0A, offset: 0x3DEF4, size: 0x8, addend: 0x0, symName: __ZNKSt3__122__unordered_map_hasherINS_12basic_stringIcNS_11char_traitsIcEENS_9allocatorIcEEEENS_17__hash_value_typeIS6_5TableEENS_4hashIS6_EENS_8equal_toIS6_EELb1EEclB7v160006ERKS6_, symObjAddr: 0xA3B0, symBinAddr: 0x1000110F4, symSize: 0x2C }
  - { offsetInCU: 0x33A3E, offset: 0x3DF28, size: 0x8, addend: 0x0, symName: __ZNKSt3__112__hash_tableINS_17__hash_value_typeINS_12basic_stringIcNS_11char_traitsIcEENS_9allocatorIcEEEE5TableEENS_22__unordered_map_hasherIS7_S9_NS_4hashIS7_EENS_8equal_toIS7_EELb1EEENS_21__unordered_map_equalIS7_S9_SE_SC_Lb1EEENS5_IS9_EEE12bucket_countB7v160006Ev, symObjAddr: 0xA3DC, symBinAddr: 0x100011120, symSize: 0x28 }
  - { offsetInCU: 0x33A63, offset: 0x3DF4D, size: 0x8, addend: 0x0, symName: __ZNKSt3__110unique_ptrIA_PNS_16__hash_node_baseIPNS_11__hash_nodeINS_17__hash_value_typeINS_12basic_stringIcNS_11char_traitsIcEENS_9allocatorIcEEEE5TableEEPvEEEENS_25__bucket_list_deallocatorINS7_ISG_EEEEEixB7v160006Em, symObjAddr: 0xA49C, symBinAddr: 0x1000111E0, symSize: 0x34 }
  - { offsetInCU: 0x33A97, offset: 0x3DF81, size: 0x8, addend: 0x0, symName: __ZNKSt3__116__hash_node_baseIPNS_11__hash_nodeINS_17__hash_value_typeINS_12basic_stringIcNS_11char_traitsIcEENS_9allocatorIcEEEE5TableEEPvEEE6__hashB7v160006Ev, symObjAddr: 0xA4D0, symBinAddr: 0x100011214, symSize: 0x18 }
  - { offsetInCU: 0x33ABC, offset: 0x3DFA6, size: 0x8, addend: 0x0, symName: __ZNSt3__112__hash_tableINS_17__hash_value_typeINS_12basic_stringIcNS_11char_traitsIcEENS_9allocatorIcEEEE5TableEENS_22__unordered_map_hasherIS7_S9_NS_4hashIS7_EENS_8equal_toIS7_EELb1EEENS_21__unordered_map_equalIS7_S9_SE_SC_Lb1EEENS5_IS9_EEE6key_eqB7v160006Ev, symObjAddr: 0xA4E8, symBinAddr: 0x10001122C, symSize: 0x28 }
  - { offsetInCU: 0x33AE1, offset: 0x3DFCB, size: 0x8, addend: 0x0, symName: __ZNKSt3__121__unordered_map_equalINS_12basic_stringIcNS_11char_traitsIcEENS_9allocatorIcEEEENS_17__hash_value_typeIS6_5TableEENS_8equal_toIS6_EENS_4hashIS6_EELb1EEclB7v160006ERKS9_RKS6_, symObjAddr: 0xA510, symBinAddr: 0x100011254, symSize: 0x48 }
  - { offsetInCU: 0x33B24, offset: 0x3E00E, size: 0x8, addend: 0x0, symName: __ZNSt3__116__hash_node_baseIPNS_11__hash_nodeINS_17__hash_value_typeINS_12basic_stringIcNS_11char_traitsIcEENS_9allocatorIcEEEE5TableEEPvEEE8__upcastB7v160006Ev, symObjAddr: 0xA558, symBinAddr: 0x10001129C, symSize: 0x24 }
  - { offsetInCU: 0x33B49, offset: 0x3E033, size: 0x8, addend: 0x0, symName: __ZNSt3__115__hash_iteratorIPNS_11__hash_nodeINS_17__hash_value_typeINS_12basic_stringIcNS_11char_traitsIcEENS_9allocatorIcEEEE5TableEEPvEEEC1B7v160006EPNS_16__hash_node_baseISD_EEPKv, symObjAddr: 0xA57C, symBinAddr: 0x1000112C0, symSize: 0x3C }
  - { offsetInCU: 0x33B8F, offset: 0x3E079, size: 0x8, addend: 0x0, symName: __ZNSt3__112__hash_tableINS_17__hash_value_typeINS_12basic_stringIcNS_11char_traitsIcEENS_9allocatorIcEEEE5TableEENS_22__unordered_map_hasherIS7_S9_NS_4hashIS7_EENS_8equal_toIS7_EELb1EEENS_21__unordered_map_equalIS7_S9_SE_SC_Lb1EEENS5_IS9_EEE3endEv, symObjAddr: 0xA5B8, symBinAddr: 0x1000112FC, symSize: 0x30 }
  - { offsetInCU: 0x33BB6, offset: 0x3E0A0, size: 0x8, addend: 0x0, symName: __ZNSt3__117__compressed_pairImNS_22__unordered_map_hasherINS_12basic_stringIcNS_11char_traitsIcEENS_9allocatorIcEEEENS_17__hash_value_typeIS7_5TableEENS_4hashIS7_EENS_8equal_toIS7_EELb1EEEE6secondB7v160006Ev, symObjAddr: 0xA5E8, symBinAddr: 0x10001132C, symSize: 0x24 }
  - { offsetInCU: 0x33BDB, offset: 0x3E0C5, size: 0x8, addend: 0x0, symName: __ZNSt3__122__compressed_pair_elemINS_22__unordered_map_hasherINS_12basic_stringIcNS_11char_traitsIcEENS_9allocatorIcEEEENS_17__hash_value_typeIS7_5TableEENS_4hashIS7_EENS_8equal_toIS7_EELb1EEELi1ELb1EE5__getB7v160006Ev, symObjAddr: 0xA60C, symBinAddr: 0x100011350, symSize: 0x14 }
  - { offsetInCU: 0x33C00, offset: 0x3E0EA, size: 0x8, addend: 0x0, symName: __ZNKSt3__110unique_ptrIA_PNS_16__hash_node_baseIPNS_11__hash_nodeINS_17__hash_value_typeINS_12basic_stringIcNS_11char_traitsIcEENS_9allocatorIcEEEE5TableEEPvEEEENS_25__bucket_list_deallocatorINS7_ISG_EEEEE11get_deleterB7v160006Ev, symObjAddr: 0xB520, symBinAddr: 0x100011364, symSize: 0x24 }
  - { offsetInCU: 0x33C25, offset: 0x3E10F, size: 0x8, addend: 0x0, symName: __ZNKSt3__125__bucket_list_deallocatorINS_9allocatorIPNS_16__hash_node_baseIPNS_11__hash_nodeINS_17__hash_value_typeINS_12basic_stringIcNS_11char_traitsIcEENS1_IcEEEE5TableEEPvEEEEEEE4sizeB7v160006Ev, symObjAddr: 0xB544, symBinAddr: 0x100011388, symSize: 0x28 }
  - { offsetInCU: 0x33C4A, offset: 0x3E134, size: 0x8, addend: 0x0, symName: __ZNKSt3__117__compressed_pairIPPNS_16__hash_node_baseIPNS_11__hash_nodeINS_17__hash_value_typeINS_12basic_stringIcNS_11char_traitsIcEENS_9allocatorIcEEEE5TableEEPvEEEENS_25__bucket_list_deallocatorINS7_ISG_EEEEE6secondB7v160006Ev, symObjAddr: 0xB56C, symBinAddr: 0x1000113B0, symSize: 0x28 }
  - { offsetInCU: 0x33C6F, offset: 0x3E159, size: 0x8, addend: 0x0, symName: __ZNKSt3__122__compressed_pair_elemINS_25__bucket_list_deallocatorINS_9allocatorIPNS_16__hash_node_baseIPNS_11__hash_nodeINS_17__hash_value_typeINS_12basic_stringIcNS_11char_traitsIcEENS2_IcEEEE5TableEEPvEEEEEEEELi1ELb0EE5__getB7v160006Ev, symObjAddr: 0xB594, symBinAddr: 0x1000113D8, symSize: 0x14 }
  - { offsetInCU: 0x33C94, offset: 0x3E17E, size: 0x8, addend: 0x0, symName: __ZNKSt3__117__compressed_pairImNS_9allocatorIPNS_16__hash_node_baseIPNS_11__hash_nodeINS_17__hash_value_typeINS_12basic_stringIcNS_11char_traitsIcEENS1_IcEEEE5TableEEPvEEEEEEE5firstB7v160006Ev, symObjAddr: 0xB5A8, symBinAddr: 0x1000113EC, symSize: 0x24 }
  - { offsetInCU: 0x33CB9, offset: 0x3E1A3, size: 0x8, addend: 0x0, symName: __ZNKSt3__122__compressed_pair_elemImLi0ELb0EE5__getB7v160006Ev, symObjAddr: 0xB5CC, symBinAddr: 0x100011410, symSize: 0x14 }
  - { offsetInCU: 0x33CDE, offset: 0x3E1C8, size: 0x8, addend: 0x0, symName: __ZNKSt3__117__compressed_pairIPPNS_16__hash_node_baseIPNS_11__hash_nodeINS_17__hash_value_typeINS_12basic_stringIcNS_11char_traitsIcEENS_9allocatorIcEEEE5TableEEPvEEEENS_25__bucket_list_deallocatorINS7_ISG_EEEEE5firstB7v160006Ev, symObjAddr: 0xB5E0, symBinAddr: 0x100011424, symSize: 0x24 }
  - { offsetInCU: 0x33D03, offset: 0x3E1ED, size: 0x8, addend: 0x0, symName: __ZNKSt3__122__compressed_pair_elemIPPNS_16__hash_node_baseIPNS_11__hash_nodeINS_17__hash_value_typeINS_12basic_stringIcNS_11char_traitsIcEENS_9allocatorIcEEEE5TableEEPvEEEELi0ELb0EE5__getB7v160006Ev, symObjAddr: 0xB604, symBinAddr: 0x100011448, symSize: 0x14 }
  - { offsetInCU: 0x33D28, offset: 0x3E212, size: 0x8, addend: 0x0, symName: __ZNSt3__117__compressed_pairIfNS_21__unordered_map_equalINS_12basic_stringIcNS_11char_traitsIcEENS_9allocatorIcEEEENS_17__hash_value_typeIS7_5TableEENS_8equal_toIS7_EENS_4hashIS7_EELb1EEEE6secondB7v160006Ev, symObjAddr: 0xB618, symBinAddr: 0x10001145C, symSize: 0x24 }
  - { offsetInCU: 0x33D4D, offset: 0x3E237, size: 0x8, addend: 0x0, symName: __ZNSt3__122__compressed_pair_elemINS_21__unordered_map_equalINS_12basic_stringIcNS_11char_traitsIcEENS_9allocatorIcEEEENS_17__hash_value_typeIS7_5TableEENS_8equal_toIS7_EENS_4hashIS7_EELb1EEELi1ELb1EE5__getB7v160006Ev, symObjAddr: 0xB63C, symBinAddr: 0x100011480, symSize: 0x14 }
  - { offsetInCU: 0x33D72, offset: 0x3E25C, size: 0x8, addend: 0x0, symName: __ZNKSt3__117__hash_value_typeINS_12basic_stringIcNS_11char_traitsIcEENS_9allocatorIcEEEE5TableE11__get_valueB7v160006Ev, symObjAddr: 0xB684, symBinAddr: 0x100011494, symSize: 0x24 }
  - { offsetInCU: 0x33D97, offset: 0x3E281, size: 0x8, addend: 0x0, symName: __ZNSt3__114pointer_traitsIPNS_16__hash_node_baseIPNS_11__hash_nodeINS_17__hash_value_typeINS_12basic_stringIcNS_11char_traitsIcEENS_9allocatorIcEEEE5TableEEPvEEEEE10pointer_toB7v160006ERSF_, symObjAddr: 0xB8C8, symBinAddr: 0x1000114F0, symSize: 0x14 }
  - { offsetInCU: 0x33DBA, offset: 0x3E2A4, size: 0x8, addend: 0x0, symName: __ZNSt3__115__hash_iteratorIPNS_11__hash_nodeINS_17__hash_value_typeINS_12basic_stringIcNS_11char_traitsIcEENS_9allocatorIcEEEE5TableEEPvEEEC2B7v160006EPNS_16__hash_node_baseISD_EEPKv, symObjAddr: 0xB8DC, symBinAddr: 0x100011504, symSize: 0x24 }
  - { offsetInCU: 0x33E01, offset: 0x3E2EB, size: 0x8, addend: 0x0, symName: __ZNSt3__119__hash_map_iteratorINS_15__hash_iteratorIPNS_11__hash_nodeINS_17__hash_value_typeINS_12basic_stringIcNS_11char_traitsIcEENS_9allocatorIcEEEE5TableEEPvEEEEEC2B7v160006ESF_, symObjAddr: 0xB900, symBinAddr: 0x100011528, symSize: 0x20 }
  - { offsetInCU: 0x33E4D, offset: 0x3E337, size: 0x8, addend: 0x0, symName: __ZNSt3__112__hash_tableINS_17__hash_value_typeINS_12basic_stringIcNS_11char_traitsIcEENS_9allocatorIcEEEE5TableEENS_22__unordered_map_hasherIS7_S9_NS_4hashIS7_EENS_8equal_toIS7_EELb1EEENS_21__unordered_map_equalIS7_S9_SE_SC_Lb1EEENS5_IS9_EEE25__emplace_unique_key_argsIS7_JRKNS_21piecewise_construct_tENS_5tupleIJRKS7_EEENSO_IJEEEEEENS_4pairINS_15__hash_iteratorIPNS_11__hash_nodeIS9_PvEEEEbEERKT_DpOT0_, symObjAddr: 0xB920, symBinAddr: 0x100011548, symSize: 0x4A0 }
  - { offsetInCU: 0x33F57, offset: 0x3E441, size: 0x8, addend: 0x0, symName: __ZNKSt3__115__hash_iteratorIPNS_11__hash_nodeINS_17__hash_value_typeINS_12basic_stringIcNS_11char_traitsIcEENS_9allocatorIcEEEE5TableEEPvEEEptB7v160006Ev, symObjAddr: 0xBDF0, symBinAddr: 0x100011A18, symSize: 0x30 }
  - { offsetInCU: 0x33F7C, offset: 0x3E466, size: 0x8, addend: 0x0, symName: __ZNSt3__117__hash_value_typeINS_12basic_stringIcNS_11char_traitsIcEENS_9allocatorIcEEEE5TableE11__get_valueB7v160006Ev, symObjAddr: 0xBE20, symBinAddr: 0x100011A48, symSize: 0x24 }
  - { offsetInCU: 0x33FA1, offset: 0x3E48B, size: 0x8, addend: 0x0, symName: __ZNSt3__112__hash_tableINS_17__hash_value_typeINS_12basic_stringIcNS_11char_traitsIcEENS_9allocatorIcEEEE5TableEENS_22__unordered_map_hasherIS7_S9_NS_4hashIS7_EENS_8equal_toIS7_EELb1EEENS_21__unordered_map_equalIS7_S9_SE_SC_Lb1EEENS5_IS9_EEE21__construct_node_hashIRKNS_21piecewise_construct_tEJNS_5tupleIJRKS7_EEENSO_IJEEEEEENS_10unique_ptrINS_11__hash_nodeIS9_PvEENS_22__hash_node_destructorINS5_ISW_EEEEEEmOT_DpOT0_, symObjAddr: 0xBE44, symBinAddr: 0x100011A6C, symSize: 0x150 }
  - { offsetInCU: 0x3403D, offset: 0x3E527, size: 0x8, addend: 0x0, symName: __ZNSt3__112__hash_tableINS_17__hash_value_typeINS_12basic_stringIcNS_11char_traitsIcEENS_9allocatorIcEEEE5TableEENS_22__unordered_map_hasherIS7_S9_NS_4hashIS7_EENS_8equal_toIS7_EELb1EEENS_21__unordered_map_equalIS7_S9_SE_SC_Lb1EEENS5_IS9_EEE4sizeB7v160006Ev, symObjAddr: 0xBF94, symBinAddr: 0x100011BBC, symSize: 0x28 }
  - { offsetInCU: 0x34062, offset: 0x3E54C, size: 0x8, addend: 0x0, symName: __ZNSt3__112__hash_tableINS_17__hash_value_typeINS_12basic_stringIcNS_11char_traitsIcEENS_9allocatorIcEEEE5TableEENS_22__unordered_map_hasherIS7_S9_NS_4hashIS7_EENS_8equal_toIS7_EELb1EEENS_21__unordered_map_equalIS7_S9_SE_SC_Lb1EEENS5_IS9_EEE15max_load_factorB7v160006Ev, symObjAddr: 0xBFBC, symBinAddr: 0x100011BE4, symSize: 0x28 }
  - { offsetInCU: 0x34087, offset: 0x3E571, size: 0x8, addend: 0x0, symName: __ZNSt3__112__hash_tableINS_17__hash_value_typeINS_12basic_stringIcNS_11char_traitsIcEENS_9allocatorIcEEEE5TableEENS_22__unordered_map_hasherIS7_S9_NS_4hashIS7_EENS_8equal_toIS7_EELb1EEENS_21__unordered_map_equalIS7_S9_SE_SC_Lb1EEENS5_IS9_EEE15__rehash_uniqueB7v160006Em, symObjAddr: 0xBFE4, symBinAddr: 0x100011C0C, symSize: 0x2C }
  - { offsetInCU: 0x340BB, offset: 0x3E5A5, size: 0x8, addend: 0x0, symName: __Z4ceilB7v160006f, symObjAddr: 0xC060, symBinAddr: 0x100011C88, symSize: 0x18 }
  - { offsetInCU: 0x340EA, offset: 0x3E5D4, size: 0x8, addend: 0x0, symName: __ZNSt3__117__compressed_pairINS_16__hash_node_baseIPNS_11__hash_nodeINS_17__hash_value_typeINS_12basic_stringIcNS_11char_traitsIcEENS_9allocatorIcEEEE5TableEEPvEEEENS7_ISD_EEE5firstB7v160006Ev, symObjAddr: 0xC078, symBinAddr: 0x100011CA0, symSize: 0x24 }
  - { offsetInCU: 0x3410F, offset: 0x3E5F9, size: 0x8, addend: 0x0, symName: __ZNSt3__116__hash_node_baseIPNS_11__hash_nodeINS_17__hash_value_typeINS_12basic_stringIcNS_11char_traitsIcEENS_9allocatorIcEEEE5TableEEPvEEE5__ptrB7v160006Ev, symObjAddr: 0xC09C, symBinAddr: 0x100011CC4, symSize: 0x24 }
  - { offsetInCU: 0x34134, offset: 0x3E61E, size: 0x8, addend: 0x0, symName: __ZNKSt3__110unique_ptrINS_11__hash_nodeINS_17__hash_value_typeINS_12basic_stringIcNS_11char_traitsIcEENS_9allocatorIcEEEE5TableEEPvEENS_22__hash_node_destructorINS6_ISC_EEEEEptB7v160006Ev, symObjAddr: 0xC0C0, symBinAddr: 0x100011CE8, symSize: 0x28 }
  - { offsetInCU: 0x34159, offset: 0x3E643, size: 0x8, addend: 0x0, symName: __ZNKSt3__110unique_ptrINS_11__hash_nodeINS_17__hash_value_typeINS_12basic_stringIcNS_11char_traitsIcEENS_9allocatorIcEEEE5TableEEPvEENS_22__hash_node_destructorINS6_ISC_EEEEE3getB7v160006Ev, symObjAddr: 0xC0E8, symBinAddr: 0x100011D10, symSize: 0x28 }
  - { offsetInCU: 0x3417E, offset: 0x3E668, size: 0x8, addend: 0x0, symName: __ZNSt3__110unique_ptrINS_11__hash_nodeINS_17__hash_value_typeINS_12basic_stringIcNS_11char_traitsIcEENS_9allocatorIcEEEE5TableEEPvEENS_22__hash_node_destructorINS6_ISC_EEEEE7releaseB7v160006Ev, symObjAddr: 0xC110, symBinAddr: 0x100011D38, symSize: 0x44 }
  - { offsetInCU: 0x341B2, offset: 0x3E69C, size: 0x8, addend: 0x0, symName: __ZNSt3__110unique_ptrINS_11__hash_nodeINS_17__hash_value_typeINS_12basic_stringIcNS_11char_traitsIcEENS_9allocatorIcEEEE5TableEEPvEENS_22__hash_node_destructorINS6_ISC_EEEEED1B7v160006Ev, symObjAddr: 0xC154, symBinAddr: 0x100011D7C, symSize: 0x2C }
  - { offsetInCU: 0x341DF, offset: 0x3E6C9, size: 0x8, addend: 0x0, symName: __ZNSt3__14pairINS_15__hash_iteratorIPNS_11__hash_nodeINS_17__hash_value_typeINS_12basic_stringIcNS_11char_traitsIcEENS_9allocatorIcEEEE5TableEEPvEEEEbEC1B7v160006ISF_RbLSC_0EEEOT_OT0_, symObjAddr: 0xC180, symBinAddr: 0x100011DA8, symSize: 0x3C }
  - { offsetInCU: 0x3423B, offset: 0x3E725, size: 0x8, addend: 0x0, symName: __ZNSt3__112__hash_tableINS_17__hash_value_typeINS_12basic_stringIcNS_11char_traitsIcEENS_9allocatorIcEEEE5TableEENS_22__unordered_map_hasherIS7_S9_NS_4hashIS7_EENS_8equal_toIS7_EELb1EEENS_21__unordered_map_equalIS7_S9_SE_SC_Lb1EEENS5_IS9_EEE12__node_allocB7v160006Ev, symObjAddr: 0xC1BC, symBinAddr: 0x100011DE4, symSize: 0x28 }
  - { offsetInCU: 0x34260, offset: 0x3E74A, size: 0x8, addend: 0x0, symName: __ZNSt3__116allocator_traitsINS_9allocatorINS_11__hash_nodeINS_17__hash_value_typeINS_12basic_stringIcNS_11char_traitsIcEENS1_IcEEEE5TableEEPvEEEEE8allocateB7v160006ERSD_m, symObjAddr: 0xC1E4, symBinAddr: 0x100011E0C, symSize: 0x2C }
  - { offsetInCU: 0x34293, offset: 0x3E77D, size: 0x8, addend: 0x0, symName: __ZNSt3__122__hash_node_destructorINS_9allocatorINS_11__hash_nodeINS_17__hash_value_typeINS_12basic_stringIcNS_11char_traitsIcEENS1_IcEEEE5TableEEPvEEEEEC1B7v160006ERSD_b, symObjAddr: 0xC210, symBinAddr: 0x100011E38, symSize: 0x48 }
  - { offsetInCU: 0x342DE, offset: 0x3E7C8, size: 0x8, addend: 0x0, symName: __ZNSt3__110unique_ptrINS_11__hash_nodeINS_17__hash_value_typeINS_12basic_stringIcNS_11char_traitsIcEENS_9allocatorIcEEEE5TableEEPvEENS_22__hash_node_destructorINS6_ISC_EEEEEC1B7v160006ILb1EvEEPSC_NS_16__dependent_typeINS_27__unique_ptr_deleter_sfinaeISF_EEXT_EE20__good_rval_ref_typeE, symObjAddr: 0xC258, symBinAddr: 0x100011E80, symSize: 0x3C }
  - { offsetInCU: 0x3432E, offset: 0x3E818, size: 0x8, addend: 0x0, symName: __ZNSt3__116allocator_traitsINS_9allocatorINS_11__hash_nodeINS_17__hash_value_typeINS_12basic_stringIcNS_11char_traitsIcEENS1_IcEEEE5TableEEPvEEEEE9constructB7v160006INS_4pairIKS8_S9_EEJRKNS_21piecewise_construct_tENS_5tupleIJRSH_EEENSM_IJEEEEvEEvRSD_PT_DpOT0_, symObjAddr: 0xC294, symBinAddr: 0x100011EBC, symSize: 0x44 }
  - { offsetInCU: 0x343AF, offset: 0x3E899, size: 0x8, addend: 0x0, symName: __ZNSt3__122__hash_key_value_typesINS_17__hash_value_typeINS_12basic_stringIcNS_11char_traitsIcEENS_9allocatorIcEEEE5TableEEE9__get_ptrB7v160006ERS9_, symObjAddr: 0xC2D8, symBinAddr: 0x100011F00, symSize: 0x24 }
  - { offsetInCU: 0x343D2, offset: 0x3E8BC, size: 0x8, addend: 0x0, symName: __ZNSt3__110unique_ptrINS_11__hash_nodeINS_17__hash_value_typeINS_12basic_stringIcNS_11char_traitsIcEENS_9allocatorIcEEEE5TableEEPvEENS_22__hash_node_destructorINS6_ISC_EEEEE11get_deleterB7v160006Ev, symObjAddr: 0xC2FC, symBinAddr: 0x100011F24, symSize: 0x24 }
  - { offsetInCU: 0x343F7, offset: 0x3E8E1, size: 0x8, addend: 0x0, symName: __ZNSt3__117__compressed_pairINS_16__hash_node_baseIPNS_11__hash_nodeINS_17__hash_value_typeINS_12basic_stringIcNS_11char_traitsIcEENS_9allocatorIcEEEE5TableEEPvEEEENS7_ISD_EEE6secondB7v160006Ev, symObjAddr: 0xC320, symBinAddr: 0x100011F48, symSize: 0x24 }
  - { offsetInCU: 0x3441C, offset: 0x3E906, size: 0x8, addend: 0x0, symName: __ZNSt3__122__compressed_pair_elemINS_9allocatorINS_11__hash_nodeINS_17__hash_value_typeINS_12basic_stringIcNS_11char_traitsIcEENS1_IcEEEE5TableEEPvEEEELi1ELb1EE5__getB7v160006Ev, symObjAddr: 0xC344, symBinAddr: 0x100011F6C, symSize: 0x14 }
  - { offsetInCU: 0x34441, offset: 0x3E92B, size: 0x8, addend: 0x0, symName: __ZNSt3__19allocatorINS_11__hash_nodeINS_17__hash_value_typeINS_12basic_stringIcNS_11char_traitsIcEENS0_IcEEEE5TableEEPvEEE8allocateB7v160006Em, symObjAddr: 0xC358, symBinAddr: 0x100011F80, symSize: 0x5C }
  - { offsetInCU: 0x3447E, offset: 0x3E968, size: 0x8, addend: 0x0, symName: __ZNSt3__116allocator_traitsINS_9allocatorINS_11__hash_nodeINS_17__hash_value_typeINS_12basic_stringIcNS_11char_traitsIcEENS1_IcEEEE5TableEEPvEEEEE8max_sizeB7v160006ISD_vEEmRKSD_, symObjAddr: 0xC3B4, symBinAddr: 0x100011FDC, symSize: 0x24 }
  - { offsetInCU: 0x344AD, offset: 0x3E997, size: 0x8, addend: 0x0, symName: __ZNKSt3__19allocatorINS_11__hash_nodeINS_17__hash_value_typeINS_12basic_stringIcNS_11char_traitsIcEENS0_IcEEEE5TableEEPvEEE8max_sizeB7v160006Ev, symObjAddr: 0xC3D8, symBinAddr: 0x100012000, symSize: 0x20 }
  - { offsetInCU: 0x344D2, offset: 0x3E9BC, size: 0x8, addend: 0x0, symName: __ZNSt3__122__hash_node_destructorINS_9allocatorINS_11__hash_nodeINS_17__hash_value_typeINS_12basic_stringIcNS_11char_traitsIcEENS1_IcEEEE5TableEEPvEEEEEC2B7v160006ERSD_b, symObjAddr: 0xC3F8, symBinAddr: 0x100012020, symSize: 0x38 }
  - { offsetInCU: 0x34519, offset: 0x3EA03, size: 0x8, addend: 0x0, symName: __ZNSt3__110unique_ptrINS_11__hash_nodeINS_17__hash_value_typeINS_12basic_stringIcNS_11char_traitsIcEENS_9allocatorIcEEEE5TableEEPvEENS_22__hash_node_destructorINS6_ISC_EEEEEC2B7v160006ILb1EvEEPSC_NS_16__dependent_typeINS_27__unique_ptr_deleter_sfinaeISF_EEXT_EE20__good_rval_ref_typeE, symObjAddr: 0xC430, symBinAddr: 0x100012058, symSize: 0x48 }
  - { offsetInCU: 0x34569, offset: 0x3EA53, size: 0x8, addend: 0x0, symName: __ZNSt3__117__compressed_pairIPNS_11__hash_nodeINS_17__hash_value_typeINS_12basic_stringIcNS_11char_traitsIcEENS_9allocatorIcEEEE5TableEEPvEENS_22__hash_node_destructorINS6_ISC_EEEEEC1B7v160006IRSD_SG_EEOT_OT0_, symObjAddr: 0xC478, symBinAddr: 0x1000120A0, symSize: 0x3C }
  - { offsetInCU: 0x345BF, offset: 0x3EAA9, size: 0x8, addend: 0x0, symName: __ZNSt3__117__compressed_pairIPNS_11__hash_nodeINS_17__hash_value_typeINS_12basic_stringIcNS_11char_traitsIcEENS_9allocatorIcEEEE5TableEEPvEENS_22__hash_node_destructorINS6_ISC_EEEEEC2B7v160006IRSD_SG_EEOT_OT0_, symObjAddr: 0xC4B4, symBinAddr: 0x1000120DC, symSize: 0x48 }
  - { offsetInCU: 0x34615, offset: 0x3EAFF, size: 0x8, addend: 0x0, symName: __ZNSt3__122__compressed_pair_elemIPNS_11__hash_nodeINS_17__hash_value_typeINS_12basic_stringIcNS_11char_traitsIcEENS_9allocatorIcEEEE5TableEEPvEELi0ELb0EEC2B7v160006IRSD_vEEOT_, symObjAddr: 0xC4FC, symBinAddr: 0x100012124, symSize: 0x24 }
  - { offsetInCU: 0x34657, offset: 0x3EB41, size: 0x8, addend: 0x0, symName: __ZNSt3__122__compressed_pair_elemINS_22__hash_node_destructorINS_9allocatorINS_11__hash_nodeINS_17__hash_value_typeINS_12basic_stringIcNS_11char_traitsIcEENS2_IcEEEE5TableEEPvEEEEEELi1ELb0EEC2B7v160006ISF_vEEOT_, symObjAddr: 0xC520, symBinAddr: 0x100012148, symSize: 0x24 }
  - { offsetInCU: 0x34699, offset: 0x3EB83, size: 0x8, addend: 0x0, symName: __ZNSt3__19allocatorINS_11__hash_nodeINS_17__hash_value_typeINS_12basic_stringIcNS_11char_traitsIcEENS0_IcEEEE5TableEEPvEEE9constructB7v160006INS_4pairIKS7_S8_EEJRKNS_21piecewise_construct_tENS_5tupleIJRSF_EEENSK_IJEEEEEEvPT_DpOT0_, symObjAddr: 0xC544, symBinAddr: 0x10001216C, symSize: 0x44 }
  - { offsetInCU: 0x34715, offset: 0x3EBFF, size: 0x8, addend: 0x0, symName: __ZNSt3__14pairIKNS_12basic_stringIcNS_11char_traitsIcEENS_9allocatorIcEEEE5TableEC1B7v160006IJRS7_EJEEENS_21piecewise_construct_tENS_5tupleIJDpT_EEENSD_IJDpT0_EEE, symObjAddr: 0xC588, symBinAddr: 0x1000121B0, symSize: 0x3C }
  - { offsetInCU: 0x3477C, offset: 0x3EC66, size: 0x8, addend: 0x0, symName: __ZNSt3__14pairIKNS_12basic_stringIcNS_11char_traitsIcEENS_9allocatorIcEEEE5TableEC1B7v160006IJRS7_EJEJLm0EEJEEENS_21piecewise_construct_tERNS_5tupleIJDpT_EEERNSD_IJDpT0_EEENS_15__tuple_indicesIJXspT1_EEEENSM_IJXspT2_EEEE, symObjAddr: 0xC5C4, symBinAddr: 0x1000121EC, symSize: 0x3C }
  - { offsetInCU: 0x3480F, offset: 0x3ECF9, size: 0x8, addend: 0x0, symName: __ZNSt3__14pairIKNS_12basic_stringIcNS_11char_traitsIcEENS_9allocatorIcEEEE5TableEC2B7v160006IJRS7_EJEJLm0EEJEEENS_21piecewise_construct_tERNS_5tupleIJDpT_EEERNSD_IJDpT0_EEENS_15__tuple_indicesIJXspT1_EEEENSM_IJXspT2_EEEE, symObjAddr: 0xC600, symBinAddr: 0x100012228, symSize: 0x64 }
  - { offsetInCU: 0x348A2, offset: 0x3ED8C, size: 0x8, addend: 0x0, symName: __ZNSt3__112__tuple_leafILm0ERKNS_12basic_stringIcNS_11char_traitsIcEENS_9allocatorIcEEEELb0EE3getB7v160006Ev, symObjAddr: 0xC688, symBinAddr: 0x1000122B0, symSize: 0x18 }
  - { offsetInCU: 0x348C7, offset: 0x3EDB1, size: 0x8, addend: 0x0, symName: __ZNSt3__117__compressed_pairIPNS_11__hash_nodeINS_17__hash_value_typeINS_12basic_stringIcNS_11char_traitsIcEENS_9allocatorIcEEEE5TableEEPvEENS_22__hash_node_destructorINS6_ISC_EEEEE6secondB7v160006Ev, symObjAddr: 0xC6A0, symBinAddr: 0x1000122C8, symSize: 0x28 }
  - { offsetInCU: 0x348EC, offset: 0x3EDD6, size: 0x8, addend: 0x0, symName: __ZNSt3__122__compressed_pair_elemINS_22__hash_node_destructorINS_9allocatorINS_11__hash_nodeINS_17__hash_value_typeINS_12basic_stringIcNS_11char_traitsIcEENS2_IcEEEE5TableEEPvEEEEEELi1ELb0EE5__getB7v160006Ev, symObjAddr: 0xC6C8, symBinAddr: 0x1000122F0, symSize: 0x14 }
  - { offsetInCU: 0x34911, offset: 0x3EDFB, size: 0x8, addend: 0x0, symName: __ZNSt3__117__compressed_pairImNS_22__unordered_map_hasherINS_12basic_stringIcNS_11char_traitsIcEENS_9allocatorIcEEEENS_17__hash_value_typeIS7_5TableEENS_4hashIS7_EENS_8equal_toIS7_EELb1EEEE5firstB7v160006Ev, symObjAddr: 0xC6DC, symBinAddr: 0x100012304, symSize: 0x24 }
  - { offsetInCU: 0x34936, offset: 0x3EE20, size: 0x8, addend: 0x0, symName: __ZNSt3__122__compressed_pair_elemImLi0ELb0EE5__getB7v160006Ev, symObjAddr: 0xC700, symBinAddr: 0x100012328, symSize: 0x14 }
  - { offsetInCU: 0x3495B, offset: 0x3EE45, size: 0x8, addend: 0x0, symName: __ZNSt3__117__compressed_pairIfNS_21__unordered_map_equalINS_12basic_stringIcNS_11char_traitsIcEENS_9allocatorIcEEEENS_17__hash_value_typeIS7_5TableEENS_8equal_toIS7_EENS_4hashIS7_EELb1EEEE5firstB7v160006Ev, symObjAddr: 0xC714, symBinAddr: 0x10001233C, symSize: 0x24 }
  - { offsetInCU: 0x34980, offset: 0x3EE6A, size: 0x8, addend: 0x0, symName: __ZNSt3__122__compressed_pair_elemIfLi0ELb0EE5__getB7v160006Ev, symObjAddr: 0xC738, symBinAddr: 0x100012360, symSize: 0x14 }
  - { offsetInCU: 0x349A5, offset: 0x3EE8F, size: 0x8, addend: 0x0, symName: __ZNSt3__112__hash_tableINS_17__hash_value_typeINS_12basic_stringIcNS_11char_traitsIcEENS_9allocatorIcEEEE5TableEENS_22__unordered_map_hasherIS7_S9_NS_4hashIS7_EENS_8equal_toIS7_EELb1EEENS_21__unordered_map_equalIS7_S9_SE_SC_Lb1EEENS5_IS9_EEE8__rehashILb1EEEvm, symObjAddr: 0xC74C, symBinAddr: 0x100012374, symSize: 0x1A8 }
  - { offsetInCU: 0x349F4, offset: 0x3EEDE, size: 0x8, addend: 0x0, symName: __ZNSt3__112__hash_tableINS_17__hash_value_typeINS_12basic_stringIcNS_11char_traitsIcEENS_9allocatorIcEEEE5TableEENS_22__unordered_map_hasherIS7_S9_NS_4hashIS7_EENS_8equal_toIS7_EELb1EEENS_21__unordered_map_equalIS7_S9_SE_SC_Lb1EEENS5_IS9_EEE11__do_rehashILb1EEEvm, symObjAddr: 0xC8F4, symBinAddr: 0x10001251C, symSize: 0x290 }
  - { offsetInCU: 0x34ADA, offset: 0x3EFC4, size: 0x8, addend: 0x0, symName: __ZNSt3__110unique_ptrIA_PNS_16__hash_node_baseIPNS_11__hash_nodeINS_17__hash_value_typeINS_12basic_stringIcNS_11char_traitsIcEENS_9allocatorIcEEEE5TableEEPvEEEENS_25__bucket_list_deallocatorINS7_ISG_EEEEE11get_deleterB7v160006Ev, symObjAddr: 0xCC00, symBinAddr: 0x100012828, symSize: 0x24 }
  - { offsetInCU: 0x34AFF, offset: 0x3EFE9, size: 0x8, addend: 0x0, symName: __ZNSt3__125__bucket_list_deallocatorINS_9allocatorIPNS_16__hash_node_baseIPNS_11__hash_nodeINS_17__hash_value_typeINS_12basic_stringIcNS_11char_traitsIcEENS1_IcEEEE5TableEEPvEEEEEEE7__allocB7v160006Ev, symObjAddr: 0xCC24, symBinAddr: 0x10001284C, symSize: 0x24 }
  - { offsetInCU: 0x34B24, offset: 0x3F00E, size: 0x8, addend: 0x0, symName: __ZNSt3__110unique_ptrIA_PNS_16__hash_node_baseIPNS_11__hash_nodeINS_17__hash_value_typeINS_12basic_stringIcNS_11char_traitsIcEENS_9allocatorIcEEEE5TableEEPvEEEENS_25__bucket_list_deallocatorINS7_ISG_EEEEE5resetB7v160006IPSG_EENS_9enable_ifIXsr28_CheckArrayPointerConversionIT_EE5valueEvE4typeESP_, symObjAddr: 0xCC48, symBinAddr: 0x100012870, symSize: 0x78 }
  - { offsetInCU: 0x34B70, offset: 0x3F05A, size: 0x8, addend: 0x0, symName: __ZNSt3__116allocator_traitsINS_9allocatorIPNS_16__hash_node_baseIPNS_11__hash_nodeINS_17__hash_value_typeINS_12basic_stringIcNS_11char_traitsIcEENS1_IcEEEE5TableEEPvEEEEEEE8allocateB7v160006ERSH_m, symObjAddr: 0xCCC0, symBinAddr: 0x1000128E8, symSize: 0x2C }
  - { offsetInCU: 0x34BA3, offset: 0x3F08D, size: 0x8, addend: 0x0, symName: __ZNSt3__125__bucket_list_deallocatorINS_9allocatorIPNS_16__hash_node_baseIPNS_11__hash_nodeINS_17__hash_value_typeINS_12basic_stringIcNS_11char_traitsIcEENS1_IcEEEE5TableEEPvEEEEEEE4sizeB7v160006Ev, symObjAddr: 0xCCEC, symBinAddr: 0x100012914, symSize: 0x24 }
  - { offsetInCU: 0x34BC8, offset: 0x3F0B2, size: 0x8, addend: 0x0, symName: __ZNSt3__117__compressed_pairIPPNS_16__hash_node_baseIPNS_11__hash_nodeINS_17__hash_value_typeINS_12basic_stringIcNS_11char_traitsIcEENS_9allocatorIcEEEE5TableEEPvEEEENS_25__bucket_list_deallocatorINS7_ISG_EEEEE6secondB7v160006Ev, symObjAddr: 0xCD10, symBinAddr: 0x100012938, symSize: 0x28 }
  - { offsetInCU: 0x34BED, offset: 0x3F0D7, size: 0x8, addend: 0x0, symName: __ZNSt3__122__compressed_pair_elemINS_25__bucket_list_deallocatorINS_9allocatorIPNS_16__hash_node_baseIPNS_11__hash_nodeINS_17__hash_value_typeINS_12basic_stringIcNS_11char_traitsIcEENS2_IcEEEE5TableEEPvEEEEEEEELi1ELb0EE5__getB7v160006Ev, symObjAddr: 0xCD38, symBinAddr: 0x100012960, symSize: 0x14 }
  - { offsetInCU: 0x34C12, offset: 0x3F0FC, size: 0x8, addend: 0x0, symName: __ZNSt3__117__compressed_pairImNS_9allocatorIPNS_16__hash_node_baseIPNS_11__hash_nodeINS_17__hash_value_typeINS_12basic_stringIcNS_11char_traitsIcEENS1_IcEEEE5TableEEPvEEEEEEE6secondB7v160006Ev, symObjAddr: 0xCD4C, symBinAddr: 0x100012974, symSize: 0x24 }
  - { offsetInCU: 0x34C37, offset: 0x3F121, size: 0x8, addend: 0x0, symName: __ZNSt3__122__compressed_pair_elemINS_9allocatorIPNS_16__hash_node_baseIPNS_11__hash_nodeINS_17__hash_value_typeINS_12basic_stringIcNS_11char_traitsIcEENS1_IcEEEE5TableEEPvEEEEEELi1ELb1EE5__getB7v160006Ev, symObjAddr: 0xCD70, symBinAddr: 0x100012998, symSize: 0x14 }
  - { offsetInCU: 0x34C5C, offset: 0x3F146, size: 0x8, addend: 0x0, symName: __ZNSt3__117__compressed_pairIPPNS_16__hash_node_baseIPNS_11__hash_nodeINS_17__hash_value_typeINS_12basic_stringIcNS_11char_traitsIcEENS_9allocatorIcEEEE5TableEEPvEEEENS_25__bucket_list_deallocatorINS7_ISG_EEEEE5firstB7v160006Ev, symObjAddr: 0xCD84, symBinAddr: 0x1000129AC, symSize: 0x24 }
  - { offsetInCU: 0x34C81, offset: 0x3F16B, size: 0x8, addend: 0x0, symName: __ZNSt3__125__bucket_list_deallocatorINS_9allocatorIPNS_16__hash_node_baseIPNS_11__hash_nodeINS_17__hash_value_typeINS_12basic_stringIcNS_11char_traitsIcEENS1_IcEEEE5TableEEPvEEEEEEEclB7v160006EPSG_, symObjAddr: 0xCDA8, symBinAddr: 0x1000129D0, symSize: 0x58 }
  - { offsetInCU: 0x34CB5, offset: 0x3F19F, size: 0x8, addend: 0x0, symName: __ZNSt3__122__compressed_pair_elemIPPNS_16__hash_node_baseIPNS_11__hash_nodeINS_17__hash_value_typeINS_12basic_stringIcNS_11char_traitsIcEENS_9allocatorIcEEEE5TableEEPvEEEELi0ELb0EE5__getB7v160006Ev, symObjAddr: 0xCE00, symBinAddr: 0x100012A28, symSize: 0x14 }
  - { offsetInCU: 0x34CDA, offset: 0x3F1C4, size: 0x8, addend: 0x0, symName: __ZNSt3__116allocator_traitsINS_9allocatorIPNS_16__hash_node_baseIPNS_11__hash_nodeINS_17__hash_value_typeINS_12basic_stringIcNS_11char_traitsIcEENS1_IcEEEE5TableEEPvEEEEEEE10deallocateB7v160006ERSH_PSG_m, symObjAddr: 0xCE14, symBinAddr: 0x100012A3C, symSize: 0x34 }
  - { offsetInCU: 0x34D1C, offset: 0x3F206, size: 0x8, addend: 0x0, symName: __ZNSt3__19allocatorIPNS_16__hash_node_baseIPNS_11__hash_nodeINS_17__hash_value_typeINS_12basic_stringIcNS_11char_traitsIcEENS0_IcEEEE5TableEEPvEEEEE10deallocateB7v160006EPSF_m, symObjAddr: 0xCE48, symBinAddr: 0x100012A70, symSize: 0x40 }
  - { offsetInCU: 0x34D5D, offset: 0x3F247, size: 0x8, addend: 0x0, symName: __ZNSt3__19allocatorIPNS_16__hash_node_baseIPNS_11__hash_nodeINS_17__hash_value_typeINS_12basic_stringIcNS_11char_traitsIcEENS0_IcEEEE5TableEEPvEEEEE8allocateB7v160006Em, symObjAddr: 0xCE88, symBinAddr: 0x100012AB0, symSize: 0x58 }
  - { offsetInCU: 0x34D9A, offset: 0x3F284, size: 0x8, addend: 0x0, symName: __ZNSt3__116allocator_traitsINS_9allocatorIPNS_16__hash_node_baseIPNS_11__hash_nodeINS_17__hash_value_typeINS_12basic_stringIcNS_11char_traitsIcEENS1_IcEEEE5TableEEPvEEEEEEE8max_sizeB7v160006ISH_vEEmRKSH_, symObjAddr: 0xCEE0, symBinAddr: 0x100012B08, symSize: 0x24 }
  - { offsetInCU: 0x34DC9, offset: 0x3F2B3, size: 0x8, addend: 0x0, symName: __ZNKSt3__19allocatorIPNS_16__hash_node_baseIPNS_11__hash_nodeINS_17__hash_value_typeINS_12basic_stringIcNS_11char_traitsIcEENS0_IcEEEE5TableEEPvEEEEE8max_sizeB7v160006Ev, symObjAddr: 0xCF04, symBinAddr: 0x100012B2C, symSize: 0x14 }
  - { offsetInCU: 0x34DEE, offset: 0x3F2D8, size: 0x8, addend: 0x0, symName: __ZNSt3__117__compressed_pairImNS_9allocatorIPNS_16__hash_node_baseIPNS_11__hash_nodeINS_17__hash_value_typeINS_12basic_stringIcNS_11char_traitsIcEENS1_IcEEEE5TableEEPvEEEEEEE5firstB7v160006Ev, symObjAddr: 0xCF18, symBinAddr: 0x100012B40, symSize: 0x24 }
  - { offsetInCU: 0x34E13, offset: 0x3F2FD, size: 0x8, addend: 0x0, symName: __ZNSt3__122__compressed_pair_elemINS_16__hash_node_baseIPNS_11__hash_nodeINS_17__hash_value_typeINS_12basic_stringIcNS_11char_traitsIcEENS_9allocatorIcEEEE5TableEEPvEEEELi0ELb0EE5__getB7v160006Ev, symObjAddr: 0xCF58, symBinAddr: 0x100012B80, symSize: 0x14 }
  - { offsetInCU: 0x34E38, offset: 0x3F322, size: 0x8, addend: 0x0, symName: __ZNKSt3__117__compressed_pairIPNS_11__hash_nodeINS_17__hash_value_typeINS_12basic_stringIcNS_11char_traitsIcEENS_9allocatorIcEEEE5TableEEPvEENS_22__hash_node_destructorINS6_ISC_EEEEE5firstB7v160006Ev, symObjAddr: 0xCF6C, symBinAddr: 0x100012B94, symSize: 0x24 }
  - { offsetInCU: 0x34E5D, offset: 0x3F347, size: 0x8, addend: 0x0, symName: __ZNKSt3__122__compressed_pair_elemIPNS_11__hash_nodeINS_17__hash_value_typeINS_12basic_stringIcNS_11char_traitsIcEENS_9allocatorIcEEEE5TableEEPvEELi0ELb0EE5__getB7v160006Ev, symObjAddr: 0xCF90, symBinAddr: 0x100012BB8, symSize: 0x14 }
  - { offsetInCU: 0x34E82, offset: 0x3F36C, size: 0x8, addend: 0x0, symName: __ZNSt3__117__compressed_pairIPNS_11__hash_nodeINS_17__hash_value_typeINS_12basic_stringIcNS_11char_traitsIcEENS_9allocatorIcEEEE5TableEEPvEENS_22__hash_node_destructorINS6_ISC_EEEEE5firstB7v160006Ev, symObjAddr: 0xCFA4, symBinAddr: 0x100012BCC, symSize: 0x24 }
  - { offsetInCU: 0x34EA7, offset: 0x3F391, size: 0x8, addend: 0x0, symName: __ZNSt3__122__compressed_pair_elemIPNS_11__hash_nodeINS_17__hash_value_typeINS_12basic_stringIcNS_11char_traitsIcEENS_9allocatorIcEEEE5TableEEPvEELi0ELb0EE5__getB7v160006Ev, symObjAddr: 0xCFC8, symBinAddr: 0x100012BF0, symSize: 0x14 }
  - { offsetInCU: 0x34ECC, offset: 0x3F3B6, size: 0x8, addend: 0x0, symName: __ZNSt3__110unique_ptrINS_11__hash_nodeINS_17__hash_value_typeINS_12basic_stringIcNS_11char_traitsIcEENS_9allocatorIcEEEE5TableEEPvEENS_22__hash_node_destructorINS6_ISC_EEEEED2B7v160006Ev, symObjAddr: 0xCFDC, symBinAddr: 0x100012C04, symSize: 0x30 }
  - { offsetInCU: 0x34EF4, offset: 0x3F3DE, size: 0x8, addend: 0x0, symName: __ZNSt3__110unique_ptrINS_11__hash_nodeINS_17__hash_value_typeINS_12basic_stringIcNS_11char_traitsIcEENS_9allocatorIcEEEE5TableEEPvEENS_22__hash_node_destructorINS6_ISC_EEEEE5resetB7v160006EPSC_, symObjAddr: 0xD00C, symBinAddr: 0x100012C34, symSize: 0x78 }
  - { offsetInCU: 0x34F37, offset: 0x3F421, size: 0x8, addend: 0x0, symName: __ZNSt3__122__hash_node_destructorINS_9allocatorINS_11__hash_nodeINS_17__hash_value_typeINS_12basic_stringIcNS_11char_traitsIcEENS1_IcEEEE5TableEEPvEEEEEclB7v160006EPSC_, symObjAddr: 0xD084, symBinAddr: 0x100012CAC, symSize: 0x98 }
  - { offsetInCU: 0x34F6B, offset: 0x3F455, size: 0x8, addend: 0x0, symName: __ZNSt3__116allocator_traitsINS_9allocatorINS_11__hash_nodeINS_17__hash_value_typeINS_12basic_stringIcNS_11char_traitsIcEENS1_IcEEEE5TableEEPvEEEEE7destroyB7v160006INS_4pairIKS8_S9_EEvvEEvRSD_PT_, symObjAddr: 0xD11C, symBinAddr: 0x100012D44, symSize: 0x28 }
  - { offsetInCU: 0x34FA8, offset: 0x3F492, size: 0x8, addend: 0x0, symName: __ZNSt3__116allocator_traitsINS_9allocatorINS_11__hash_nodeINS_17__hash_value_typeINS_12basic_stringIcNS_11char_traitsIcEENS1_IcEEEE5TableEEPvEEEEE10deallocateB7v160006ERSD_PSC_m, symObjAddr: 0xD144, symBinAddr: 0x100012D6C, symSize: 0x34 }
  - { offsetInCU: 0x34FEA, offset: 0x3F4D4, size: 0x8, addend: 0x0, symName: __ZNSt3__14pairIKNS_12basic_stringIcNS_11char_traitsIcEENS_9allocatorIcEEEE5TableED1Ev, symObjAddr: 0xD178, symBinAddr: 0x100012DA0, symSize: 0x2C }
  - { offsetInCU: 0x35015, offset: 0x3F4FF, size: 0x8, addend: 0x0, symName: __ZNSt3__14pairIKNS_12basic_stringIcNS_11char_traitsIcEENS_9allocatorIcEEEE5TableED2Ev, symObjAddr: 0xD1A4, symBinAddr: 0x100012DCC, symSize: 0x38 }
  - { offsetInCU: 0x35040, offset: 0x3F52A, size: 0x8, addend: 0x0, symName: __ZNSt3__19allocatorINS_11__hash_nodeINS_17__hash_value_typeINS_12basic_stringIcNS_11char_traitsIcEENS0_IcEEEE5TableEEPvEEE10deallocateB7v160006EPSB_m, symObjAddr: 0xD1DC, symBinAddr: 0x100012E04, symSize: 0x44 }
  - { offsetInCU: 0x35081, offset: 0x3F56B, size: 0x8, addend: 0x0, symName: __ZNSt3__14pairINS_15__hash_iteratorIPNS_11__hash_nodeINS_17__hash_value_typeINS_12basic_stringIcNS_11char_traitsIcEENS_9allocatorIcEEEE5TableEEPvEEEEbEC2B7v160006ISF_RbLSC_0EEEOT_OT0_, symObjAddr: 0xD220, symBinAddr: 0x100012E48, symSize: 0x38 }
  - { offsetInCU: 0x350DE, offset: 0x3F5C8, size: 0x8, addend: 0x0, symName: __ZNSt3__15tupleIJRKNS_12basic_stringIcNS_11char_traitsIcEENS_9allocatorIcEEEEEEC1B7v160006INS_4_AndELi0EEES8_, symObjAddr: 0xD258, symBinAddr: 0x100012E80, symSize: 0x34 }
  - { offsetInCU: 0x35125, offset: 0x3F60F, size: 0x8, addend: 0x0, symName: __ZNSt3__15tupleIJRKNS_12basic_stringIcNS_11char_traitsIcEENS_9allocatorIcEEEEEEC2B7v160006INS_4_AndELi0EEES8_, symObjAddr: 0xD28C, symBinAddr: 0x100012EB4, symSize: 0x34 }
  - { offsetInCU: 0x3516C, offset: 0x3F656, size: 0x8, addend: 0x0, symName: __ZNSt3__112__tuple_implINS_15__tuple_indicesIJLm0EEEEJRKNS_12basic_stringIcNS_11char_traitsIcEENS_9allocatorIcEEEEEEC1B7v160006IJLm0EEJSA_EJEJEJSA_EEENS1_IJXspT_EEEENS_13__tuple_typesIJDpT0_EEENS1_IJXspT1_EEEENSE_IJDpT2_EEEDpOT3_, symObjAddr: 0xD2C0, symBinAddr: 0x100012EE8, symSize: 0x34 }
  - { offsetInCU: 0x35204, offset: 0x3F6EE, size: 0x8, addend: 0x0, symName: __ZNSt3__112__tuple_implINS_15__tuple_indicesIJLm0EEEEJRKNS_12basic_stringIcNS_11char_traitsIcEENS_9allocatorIcEEEEEEC2B7v160006IJLm0EEJSA_EJEJEJSA_EEENS1_IJXspT_EEEENS_13__tuple_typesIJDpT0_EEENS1_IJXspT1_EEEENSE_IJDpT2_EEEDpOT3_, symObjAddr: 0xD2F4, symBinAddr: 0x100012F1C, symSize: 0x34 }
  - { offsetInCU: 0x3529C, offset: 0x3F786, size: 0x8, addend: 0x0, symName: __ZNSt3__112__tuple_leafILm0ERKNS_12basic_stringIcNS_11char_traitsIcEENS_9allocatorIcEEEELb0EEC2B7v160006IS8_vEEOT_, symObjAddr: 0xD328, symBinAddr: 0x100012F50, symSize: 0x20 }
  - { offsetInCU: 0x352DF, offset: 0x3F7C9, size: 0x8, addend: 0x0, symName: __ZNSt3__114pointer_traitsIPNS_17__hash_value_typeINS_12basic_stringIcNS_11char_traitsIcEENS_9allocatorIcEEEE5TableEEE10pointer_toB7v160006ERS9_, symObjAddr: 0xD348, symBinAddr: 0x100012F70, symSize: 0x14 }
  - { offsetInCU: 0x35302, offset: 0x3F7EC, size: 0x8, addend: 0x0, symName: __ZNSt3__16vectorINS_12basic_stringIcNS_11char_traitsIcEENS_9allocatorIcEEEENS4_IS6_EEEaSB7v160006ERKS8_, symObjAddr: 0xD394, symBinAddr: 0x100012FBC, symSize: 0x68 }
  - { offsetInCU: 0x35338, offset: 0x3F822, size: 0x8, addend: 0x0, symName: __ZNSt3__16vectorI10ColumnTypeNS_9allocatorIS1_EEEaSB7v160006ERKS4_, symObjAddr: 0xD3FC, symBinAddr: 0x100013024, symSize: 0x68 }
  - { offsetInCU: 0x3536E, offset: 0x3F858, size: 0x8, addend: 0x0, symName: __ZNSt3__16vectorINS0_INS_7variantIJidbNS_12basic_stringIcNS_11char_traitsIcEENS_9allocatorIcEEEEEEENS5_IS8_EEEENS5_ISA_EEEaSB7v160006ERKSC_, symObjAddr: 0xD464, symBinAddr: 0x10001308C, symSize: 0x68 }
  - { offsetInCU: 0x353A4, offset: 0x3F88E, size: 0x8, addend: 0x0, symName: __ZNSt3__113unordered_mapINS_12basic_stringIcNS_11char_traitsIcEENS_9allocatorIcEEEENS_6vectorIjNS4_IjEEEENS_4hashIS6_EENS_8equal_toIS6_EENS4_INS_4pairIKS6_S9_EEEEEaSB7v160006ERKSI_, symObjAddr: 0xD4CC, symBinAddr: 0x1000130F4, symSize: 0x34 }
  - { offsetInCU: 0x353D8, offset: 0x3F8C2, size: 0x8, addend: 0x0, symName: __ZNSt3__13mapINS_7variantIJidbNS_12basic_stringIcNS_11char_traitsIcEENS_9allocatorIcEEEEEEENS_6vectorIjNS5_IjEEEENS_4lessIS8_EENS5_INS_4pairIKS8_SB_EEEEEaSB7v160006ERKSI_, symObjAddr: 0xD500, symBinAddr: 0x100013128, symSize: 0x34 }
  - { offsetInCU: 0x3540C, offset: 0x3F8F6, size: 0x8, addend: 0x0, symName: __ZNSt3__16vectorINS_12basic_stringIcNS_11char_traitsIcEENS_9allocatorIcEEEENS4_IS6_EEE19__copy_assign_allocB7v160006ERKS8_, symObjAddr: 0xD534, symBinAddr: 0x10001315C, symSize: 0x2C }
  - { offsetInCU: 0x35440, offset: 0x3F92A, size: 0x8, addend: 0x0, symName: __ZNSt3__16vectorINS_12basic_stringIcNS_11char_traitsIcEENS_9allocatorIcEEEENS4_IS6_EEE6assignIPS6_Li0EEEvT_SB_, symObjAddr: 0xD560, symBinAddr: 0x100013188, symSize: 0x17C }
  - { offsetInCU: 0x354E0, offset: 0x3F9CA, size: 0x8, addend: 0x0, symName: __ZNSt3__16vectorINS_12basic_stringIcNS_11char_traitsIcEENS_9allocatorIcEEEENS4_IS6_EEE19__copy_assign_allocB7v160006ERKS8_NS_17integral_constantIbLb0EEE, symObjAddr: 0xD6DC, symBinAddr: 0x100013304, symSize: 0x14 }
  - { offsetInCU: 0x3551D, offset: 0x3FA07, size: 0x8, addend: 0x0, symName: __ZNSt3__16vectorINS_12basic_stringIcNS_11char_traitsIcEENS_9allocatorIcEEEENS4_IS6_EEE18__construct_at_endIPS6_Li0EEEvT_SB_m, symObjAddr: 0xD7AC, symBinAddr: 0x1000133D4, symSize: 0x8C }
  - { offsetInCU: 0x35590, offset: 0x3FA7A, size: 0x8, addend: 0x0, symName: __ZNSt3__16vectorINS_12basic_stringIcNS_11char_traitsIcEENS_9allocatorIcEEEENS4_IS6_EEE13__vdeallocateEv, symObjAddr: 0xD838, symBinAddr: 0x100013460, symSize: 0x8C }
  - { offsetInCU: 0x355B7, offset: 0x3FAA1, size: 0x8, addend: 0x0, symName: __ZNSt3__16vectorINS_12basic_stringIcNS_11char_traitsIcEENS_9allocatorIcEEEENS4_IS6_EEE11__vallocateB7v160006Em, symObjAddr: 0xD8C4, symBinAddr: 0x1000134EC, symSize: 0xB4 }
  - { offsetInCU: 0x3561D, offset: 0x3FB07, size: 0x8, addend: 0x0, symName: __ZNKSt3__111__copy_loopINS_17_ClassicAlgPolicyEEclB7v160006IPNS_12basic_stringIcNS_11char_traitsIcEENS_9allocatorIcEEEESA_SA_EENS_4pairIT_T1_EESC_T0_SD_, symObjAddr: 0xDB80, symBinAddr: 0x1000137A8, symSize: 0x88 }
  - { offsetInCU: 0x35687, offset: 0x3FB71, size: 0x8, addend: 0x0, symName: __ZNSt3__118__unwrap_iter_implIPNS_12basic_stringIcNS_11char_traitsIcEENS_9allocatorIcEEEELb1EE8__unwrapB7v160006ES7_, symObjAddr: 0xDCCC, symBinAddr: 0x1000138F4, symSize: 0x24 }
  - { offsetInCU: 0x356AF, offset: 0x3FB99, size: 0x8, addend: 0x0, symName: __ZNSt3__14pairIPNS_12basic_stringIcNS_11char_traitsIcEENS_9allocatorIcEEEES7_EC1B7v160006IS7_S7_LPv0EEEOT_OT0_, symObjAddr: 0xDCF0, symBinAddr: 0x100013918, symSize: 0x3C }
  - { offsetInCU: 0x3570B, offset: 0x3FBF5, size: 0x8, addend: 0x0, symName: __ZNSt3__14pairIPNS_12basic_stringIcNS_11char_traitsIcEENS_9allocatorIcEEEES7_EC2B7v160006IS7_S7_LPv0EEEOT_OT0_, symObjAddr: 0xDD2C, symBinAddr: 0x100013954, symSize: 0x34 }
  - { offsetInCU: 0x35768, offset: 0x3FC52, size: 0x8, addend: 0x0, symName: __ZNSt3__118__unwrap_iter_implIPNS_12basic_stringIcNS_11char_traitsIcEENS_9allocatorIcEEEELb1EE8__rewrapB7v160006ES7_S7_, symObjAddr: 0xDD60, symBinAddr: 0x100013988, symSize: 0x58 }
  - { offsetInCU: 0x35799, offset: 0x3FC83, size: 0x8, addend: 0x0, symName: __ZNSt3__129_AllocatorDestroyRangeReverseINS_9allocatorINS_12basic_stringIcNS_11char_traitsIcEENS1_IcEEEEEEPS6_EC1B7v160006ERS7_RS8_SB_, symObjAddr: 0xDEF8, symBinAddr: 0x100013B20, symSize: 0x44 }
  - { offsetInCU: 0x357EE, offset: 0x3FCD8, size: 0x8, addend: 0x0, symName: __ZNSt3__116allocator_traitsINS_9allocatorINS_12basic_stringIcNS_11char_traitsIcEENS1_IcEEEEEEE9constructB7v160006IS6_JRS6_EvEEvRS7_PT_DpOT0_, symObjAddr: 0xDF3C, symBinAddr: 0x100013B64, symSize: 0x34 }
  - { offsetInCU: 0x35847, offset: 0x3FD31, size: 0x8, addend: 0x0, symName: __ZNSt3__128__exception_guard_exceptionsINS_29_AllocatorDestroyRangeReverseINS_9allocatorINS_12basic_stringIcNS_11char_traitsIcEENS2_IcEEEEEEPS7_EEE10__completeB7v160006Ev, symObjAddr: 0xDF70, symBinAddr: 0x100013B98, symSize: 0x1C }
  - { offsetInCU: 0x3586C, offset: 0x3FD56, size: 0x8, addend: 0x0, symName: __ZNSt3__128__exception_guard_exceptionsINS_29_AllocatorDestroyRangeReverseINS_9allocatorINS_12basic_stringIcNS_11char_traitsIcEENS2_IcEEEEEEPS7_EEED1B7v160006Ev, symObjAddr: 0xDF8C, symBinAddr: 0x100013BB4, symSize: 0x2C }
  - { offsetInCU: 0x35894, offset: 0x3FD7E, size: 0x8, addend: 0x0, symName: __ZNSt3__128__exception_guard_exceptionsINS_29_AllocatorDestroyRangeReverseINS_9allocatorINS_12basic_stringIcNS_11char_traitsIcEENS2_IcEEEEEEPS7_EEEC1B7v160006ESA_, symObjAddr: 0xDFB8, symBinAddr: 0x100013BE0, symSize: 0x34 }
  - { offsetInCU: 0x358CB, offset: 0x3FDB5, size: 0x8, addend: 0x0, symName: __ZNSt3__128__exception_guard_exceptionsINS_29_AllocatorDestroyRangeReverseINS_9allocatorINS_12basic_stringIcNS_11char_traitsIcEENS2_IcEEEEEEPS7_EEEC2B7v160006ESA_, symObjAddr: 0xDFEC, symBinAddr: 0x100013C14, symSize: 0x30 }
  - { offsetInCU: 0x35903, offset: 0x3FDED, size: 0x8, addend: 0x0, symName: __ZNSt3__129_AllocatorDestroyRangeReverseINS_9allocatorINS_12basic_stringIcNS_11char_traitsIcEENS1_IcEEEEEEPS6_EC2B7v160006ERS7_RS8_SB_, symObjAddr: 0xE01C, symBinAddr: 0x100013C44, symSize: 0x38 }
  - { offsetInCU: 0x35959, offset: 0x3FE43, size: 0x8, addend: 0x0, symName: __ZNSt3__19allocatorINS_12basic_stringIcNS_11char_traitsIcEENS0_IcEEEEE9constructB7v160006IS5_JRS5_EEEvPT_DpOT0_, symObjAddr: 0xE054, symBinAddr: 0x100013C7C, symSize: 0x30 }
  - { offsetInCU: 0x359AF, offset: 0x3FE99, size: 0x8, addend: 0x0, symName: __ZNSt3__128__exception_guard_exceptionsINS_29_AllocatorDestroyRangeReverseINS_9allocatorINS_12basic_stringIcNS_11char_traitsIcEENS2_IcEEEEEEPS7_EEED2B7v160006Ev, symObjAddr: 0xE084, symBinAddr: 0x100013CAC, symSize: 0x50 }
  - { offsetInCU: 0x359D7, offset: 0x3FEC1, size: 0x8, addend: 0x0, symName: __ZNKSt3__129_AllocatorDestroyRangeReverseINS_9allocatorINS_12basic_stringIcNS_11char_traitsIcEENS1_IcEEEEEEPS6_EclB7v160006Ev, symObjAddr: 0xE0D4, symBinAddr: 0x100013CFC, symSize: 0x68 }
  - { offsetInCU: 0x359FC, offset: 0x3FEE6, size: 0x8, addend: 0x0, symName: __ZNSt3__16vectorINS_12basic_stringIcNS_11char_traitsIcEENS_9allocatorIcEEEENS4_IS6_EEE5clearB7v160006Ev, symObjAddr: 0xE1AC, symBinAddr: 0x100013DD4, symSize: 0x4C }
  - { offsetInCU: 0x35A30, offset: 0x3FF1A, size: 0x8, addend: 0x0, symName: __ZNSt3__16vectorINS_12basic_stringIcNS_11char_traitsIcEENS_9allocatorIcEEEENS4_IS6_EEE7__clearB7v160006Ev, symObjAddr: 0xE1F8, symBinAddr: 0x100013E20, symSize: 0x28 }
  - { offsetInCU: 0x35A55, offset: 0x3FF3F, size: 0x8, addend: 0x0, symName: __ZNSt3__16vectorI10ColumnTypeNS_9allocatorIS1_EEE19__copy_assign_allocB7v160006ERKS4_, symObjAddr: 0xE220, symBinAddr: 0x100013E48, symSize: 0x2C }
  - { offsetInCU: 0x35A89, offset: 0x3FF73, size: 0x8, addend: 0x0, symName: __ZNSt3__16vectorI10ColumnTypeNS_9allocatorIS1_EEE6assignIPS1_Li0EEEvT_S7_, symObjAddr: 0xE24C, symBinAddr: 0x100013E74, symSize: 0x17C }
  - { offsetInCU: 0x35B29, offset: 0x40013, size: 0x8, addend: 0x0, symName: __ZNSt3__16vectorI10ColumnTypeNS_9allocatorIS1_EEE19__copy_assign_allocB7v160006ERKS4_NS_17integral_constantIbLb0EEE, symObjAddr: 0xE3C8, symBinAddr: 0x100013FF0, symSize: 0x14 }
  - { offsetInCU: 0x35B66, offset: 0x40050, size: 0x8, addend: 0x0, symName: __ZNSt3__16vectorI10ColumnTypeNS_9allocatorIS1_EEE18__construct_at_endIPS1_Li0EEEvT_S7_m, symObjAddr: 0xE498, symBinAddr: 0x1000140C0, symSize: 0x8C }
  - { offsetInCU: 0x35BD9, offset: 0x400C3, size: 0x8, addend: 0x0, symName: __ZNSt3__16vectorI10ColumnTypeNS_9allocatorIS1_EEE13__vdeallocateEv, symObjAddr: 0xE524, symBinAddr: 0x10001414C, symSize: 0x8C }
  - { offsetInCU: 0x35C00, offset: 0x400EA, size: 0x8, addend: 0x0, symName: __ZNSt3__16vectorI10ColumnTypeNS_9allocatorIS1_EEE11__vallocateB7v160006Em, symObjAddr: 0xE5B0, symBinAddr: 0x1000141D8, symSize: 0xAC }
  - { offsetInCU: 0x35C66, offset: 0x40150, size: 0x8, addend: 0x0, symName: __ZNKSt3__114__copy_trivialclB7v160006I10ColumnTypeS2_Li0EEENS_4pairIPT_PT0_EES5_S5_S7_, symObjAddr: 0xE840, symBinAddr: 0x100014468, symSize: 0x48 }
  - { offsetInCU: 0x35CD3, offset: 0x401BD, size: 0x8, addend: 0x0, symName: __ZNSt3__14pairIP10ColumnTypeS2_EC1B7v160006IRS2_S2_LPv0EEEOT_OT0_, symObjAddr: 0xEA00, symBinAddr: 0x100014628, symSize: 0x3C }
  - { offsetInCU: 0x35D2F, offset: 0x40219, size: 0x8, addend: 0x0, symName: __ZNSt3__14pairIP10ColumnTypeS2_EC2B7v160006IRS2_S2_LPv0EEEOT_OT0_, symObjAddr: 0xEA3C, symBinAddr: 0x100014664, symSize: 0x34 }
  - { offsetInCU: 0x35D8C, offset: 0x40276, size: 0x8, addend: 0x0, symName: __ZNSt3__118__unwrap_iter_implIP10ColumnTypeLb1EE8__unwrapB7v160006ES2_, symObjAddr: 0xEA70, symBinAddr: 0x100014698, symSize: 0x24 }
  - { offsetInCU: 0x35DAF, offset: 0x40299, size: 0x8, addend: 0x0, symName: __ZNSt3__14pairIP10ColumnTypeS2_EC1B7v160006IS2_S2_LPv0EEEOT_OT0_, symObjAddr: 0xEA94, symBinAddr: 0x1000146BC, symSize: 0x3C }
  - { offsetInCU: 0x35E0B, offset: 0x402F5, size: 0x8, addend: 0x0, symName: __ZNSt3__14pairIP10ColumnTypeS2_EC2B7v160006IS2_S2_LPv0EEEOT_OT0_, symObjAddr: 0xEAD0, symBinAddr: 0x1000146F8, symSize: 0x34 }
  - { offsetInCU: 0x35E68, offset: 0x40352, size: 0x8, addend: 0x0, symName: __ZNSt3__118__unwrap_iter_implIP10ColumnTypeLb1EE8__rewrapB7v160006ES2_S2_, symObjAddr: 0xEB04, symBinAddr: 0x10001472C, symSize: 0x48 }
  - { offsetInCU: 0x35E99, offset: 0x40383, size: 0x8, addend: 0x0, symName: __ZNSt3__129_AllocatorDestroyRangeReverseINS_9allocatorI10ColumnTypeEEPS2_EC1B7v160006ERS3_RS4_S7_, symObjAddr: 0xEC8C, symBinAddr: 0x1000148B4, symSize: 0x44 }
  - { offsetInCU: 0x35EEE, offset: 0x403D8, size: 0x8, addend: 0x0, symName: __ZNSt3__116allocator_traitsINS_9allocatorI10ColumnTypeEEE9constructB7v160006IS2_JRS2_EvEEvRS3_PT_DpOT0_, symObjAddr: 0xECD0, symBinAddr: 0x1000148F8, symSize: 0x34 }
  - { offsetInCU: 0x35F47, offset: 0x40431, size: 0x8, addend: 0x0, symName: __ZNSt3__128__exception_guard_exceptionsINS_29_AllocatorDestroyRangeReverseINS_9allocatorI10ColumnTypeEEPS3_EEE10__completeB7v160006Ev, symObjAddr: 0xED04, symBinAddr: 0x10001492C, symSize: 0x1C }
  - { offsetInCU: 0x35F6C, offset: 0x40456, size: 0x8, addend: 0x0, symName: __ZNSt3__128__exception_guard_exceptionsINS_29_AllocatorDestroyRangeReverseINS_9allocatorI10ColumnTypeEEPS3_EEED1B7v160006Ev, symObjAddr: 0xED20, symBinAddr: 0x100014948, symSize: 0x2C }
  - { offsetInCU: 0x35F94, offset: 0x4047E, size: 0x8, addend: 0x0, symName: __ZNSt3__128__exception_guard_exceptionsINS_29_AllocatorDestroyRangeReverseINS_9allocatorI10ColumnTypeEEPS3_EEEC1B7v160006ES6_, symObjAddr: 0xED4C, symBinAddr: 0x100014974, symSize: 0x34 }
  - { offsetInCU: 0x35FCB, offset: 0x404B5, size: 0x8, addend: 0x0, symName: __ZNSt3__128__exception_guard_exceptionsINS_29_AllocatorDestroyRangeReverseINS_9allocatorI10ColumnTypeEEPS3_EEEC2B7v160006ES6_, symObjAddr: 0xED80, symBinAddr: 0x1000149A8, symSize: 0x30 }
  - { offsetInCU: 0x36003, offset: 0x404ED, size: 0x8, addend: 0x0, symName: __ZNSt3__129_AllocatorDestroyRangeReverseINS_9allocatorI10ColumnTypeEEPS2_EC2B7v160006ERS3_RS4_S7_, symObjAddr: 0xEDB0, symBinAddr: 0x1000149D8, symSize: 0x38 }
  - { offsetInCU: 0x36059, offset: 0x40543, size: 0x8, addend: 0x0, symName: __ZNSt3__19allocatorI10ColumnTypeE9constructB7v160006IS1_JRS1_EEEvPT_DpOT0_, symObjAddr: 0xEDE8, symBinAddr: 0x100014A10, symSize: 0x28 }
  - { offsetInCU: 0x360AF, offset: 0x40599, size: 0x8, addend: 0x0, symName: __ZNSt3__128__exception_guard_exceptionsINS_29_AllocatorDestroyRangeReverseINS_9allocatorI10ColumnTypeEEPS3_EEED2B7v160006Ev, symObjAddr: 0xEE10, symBinAddr: 0x100014A38, symSize: 0x50 }
  - { offsetInCU: 0x360D7, offset: 0x405C1, size: 0x8, addend: 0x0, symName: __ZNKSt3__129_AllocatorDestroyRangeReverseINS_9allocatorI10ColumnTypeEEPS2_EclB7v160006Ev, symObjAddr: 0xEE60, symBinAddr: 0x100014A88, symSize: 0x68 }
  - { offsetInCU: 0x36101, offset: 0x405EB, size: 0x8, addend: 0x0, symName: __ZNSt3__119__to_address_helperINS_16reverse_iteratorIP10ColumnTypeEEvE6__callB7v160006ERKS4_, symObjAddr: 0xEF5C, symBinAddr: 0x100014B84, symSize: 0x38 }
  - { offsetInCU: 0x36124, offset: 0x4060E, size: 0x8, addend: 0x0, symName: __ZNKSt3__116reverse_iteratorIP10ColumnTypeEptB7v160006Ev, symObjAddr: 0xEF94, symBinAddr: 0x100014BBC, symSize: 0x24 }
  - { offsetInCU: 0x36149, offset: 0x40633, size: 0x8, addend: 0x0, symName: __ZNSt3__16vectorI10ColumnTypeNS_9allocatorIS1_EEE5clearB7v160006Ev, symObjAddr: 0xEFB8, symBinAddr: 0x100014BE0, symSize: 0x4C }
  - { offsetInCU: 0x3617D, offset: 0x40667, size: 0x8, addend: 0x0, symName: __ZNSt3__16vectorI10ColumnTypeNS_9allocatorIS1_EEE7__clearB7v160006Ev, symObjAddr: 0xF004, symBinAddr: 0x100014C2C, symSize: 0x28 }
  - { offsetInCU: 0x361A2, offset: 0x4068C, size: 0x8, addend: 0x0, symName: __ZNSt3__16vectorINS0_INS_7variantIJidbNS_12basic_stringIcNS_11char_traitsIcEENS_9allocatorIcEEEEEEENS5_IS8_EEEENS5_ISA_EEE19__copy_assign_allocB7v160006ERKSC_, symObjAddr: 0xF02C, symBinAddr: 0x100014C54, symSize: 0x2C }
  - { offsetInCU: 0x361D6, offset: 0x406C0, size: 0x8, addend: 0x0, symName: __ZNSt3__16vectorINS0_INS_7variantIJidbNS_12basic_stringIcNS_11char_traitsIcEENS_9allocatorIcEEEEEEENS5_IS8_EEEENS5_ISA_EEE6assignIPSA_Li0EEEvT_SF_, symObjAddr: 0xF058, symBinAddr: 0x100014C80, symSize: 0x17C }
  - { offsetInCU: 0x36276, offset: 0x40760, size: 0x8, addend: 0x0, symName: __ZNSt3__16vectorINS0_INS_7variantIJidbNS_12basic_stringIcNS_11char_traitsIcEENS_9allocatorIcEEEEEEENS5_IS8_EEEENS5_ISA_EEE19__copy_assign_allocB7v160006ERKSC_NS_17integral_constantIbLb0EEE, symObjAddr: 0xF1D4, symBinAddr: 0x100014DFC, symSize: 0x14 }
  - { offsetInCU: 0x362B3, offset: 0x4079D, size: 0x8, addend: 0x0, symName: __ZNKSt3__16vectorINS0_INS_7variantIJidbNS_12basic_stringIcNS_11char_traitsIcEENS_9allocatorIcEEEEEEENS5_IS8_EEEENS5_ISA_EEE8capacityB7v160006Ev, symObjAddr: 0xF214, symBinAddr: 0x100014E3C, symSize: 0x40 }
  - { offsetInCU: 0x362D8, offset: 0x407C2, size: 0x8, addend: 0x0, symName: __ZNKSt3__16vectorINS0_INS_7variantIJidbNS_12basic_stringIcNS_11char_traitsIcEENS_9allocatorIcEEEEEEENS5_IS8_EEEENS5_ISA_EEE4sizeB7v160006Ev, symObjAddr: 0xF254, symBinAddr: 0x100014E7C, symSize: 0x28 }
  - { offsetInCU: 0x362FD, offset: 0x407E7, size: 0x8, addend: 0x0, symName: __ZNSt3__16vectorINS0_INS_7variantIJidbNS_12basic_stringIcNS_11char_traitsIcEENS_9allocatorIcEEEEEEENS5_IS8_EEEENS5_ISA_EEE18__construct_at_endIPSA_Li0EEEvT_SF_m, symObjAddr: 0xF30C, symBinAddr: 0x100014F34, symSize: 0x8C }
  - { offsetInCU: 0x36370, offset: 0x4085A, size: 0x8, addend: 0x0, symName: __ZNSt3__16vectorINS0_INS_7variantIJidbNS_12basic_stringIcNS_11char_traitsIcEENS_9allocatorIcEEEEEEENS5_IS8_EEEENS5_ISA_EEE17__destruct_at_endB7v160006EPSA_, symObjAddr: 0xF398, symBinAddr: 0x100014FC0, symSize: 0x60 }
  - { offsetInCU: 0x363B3, offset: 0x4089D, size: 0x8, addend: 0x0, symName: __ZNSt3__16vectorINS0_INS_7variantIJidbNS_12basic_stringIcNS_11char_traitsIcEENS_9allocatorIcEEEEEEENS5_IS8_EEEENS5_ISA_EEE13__vdeallocateEv, symObjAddr: 0xF3F8, symBinAddr: 0x100015020, symSize: 0x8C }
  - { offsetInCU: 0x363DA, offset: 0x408C4, size: 0x8, addend: 0x0, symName: __ZNSt3__16vectorINS0_INS_7variantIJidbNS_12basic_stringIcNS_11char_traitsIcEENS_9allocatorIcEEEEEEENS5_IS8_EEEENS5_ISA_EEE11__vallocateB7v160006Em, symObjAddr: 0xF484, symBinAddr: 0x1000150AC, symSize: 0xB4 }
  - { offsetInCU: 0x3641D, offset: 0x40907, size: 0x8, addend: 0x0, symName: __ZNKSt3__16vectorINS0_INS_7variantIJidbNS_12basic_stringIcNS_11char_traitsIcEENS_9allocatorIcEEEEEEENS5_IS8_EEEENS5_ISA_EEE11__recommendB7v160006Em, symObjAddr: 0xF538, symBinAddr: 0x100015160, symSize: 0xB4 }
  - { offsetInCU: 0x36471, offset: 0x4095B, size: 0x8, addend: 0x0, symName: __ZNKSt3__16vectorINS0_INS_7variantIJidbNS_12basic_stringIcNS_11char_traitsIcEENS_9allocatorIcEEEEEEENS5_IS8_EEEENS5_ISA_EEE9__end_capB7v160006Ev, symObjAddr: 0xF624, symBinAddr: 0x10001524C, symSize: 0x28 }
  - { offsetInCU: 0x36496, offset: 0x40980, size: 0x8, addend: 0x0, symName: __ZNKSt3__117__compressed_pairIPNS_6vectorINS_7variantIJidbNS_12basic_stringIcNS_11char_traitsIcEENS_9allocatorIcEEEEEEENS6_IS9_EEEENS6_ISB_EEE5firstB7v160006Ev, symObjAddr: 0xF64C, symBinAddr: 0x100015274, symSize: 0x24 }
  - { offsetInCU: 0x364BB, offset: 0x409A5, size: 0x8, addend: 0x0, symName: __ZNKSt3__122__compressed_pair_elemIPNS_6vectorINS_7variantIJidbNS_12basic_stringIcNS_11char_traitsIcEENS_9allocatorIcEEEEEEENS6_IS9_EEEELi0ELb0EE5__getB7v160006Ev, symObjAddr: 0xF670, symBinAddr: 0x100015298, symSize: 0x14 }
  - { offsetInCU: 0x364F9, offset: 0x409E3, size: 0x8, addend: 0x0, symName: __ZNKSt3__111__copy_loopINS_17_ClassicAlgPolicyEEclB7v160006IPNS_6vectorINS_7variantIJidbNS_12basic_stringIcNS_11char_traitsIcEENS_9allocatorIcEEEEEEENS9_ISC_EEEESF_SF_EENS_4pairIT_T1_EESH_T0_SI_, symObjAddr: 0xF850, symBinAddr: 0x100015478, symSize: 0x88 }
  - { offsetInCU: 0x36563, offset: 0x40A4D, size: 0x8, addend: 0x0, symName: __ZNSt3__16vectorINS_7variantIJidbNS_12basic_stringIcNS_11char_traitsIcEENS_9allocatorIcEEEEEEENS5_IS8_EEEaSB7v160006ERKSA_, symObjAddr: 0xF99C, symBinAddr: 0x1000155C4, symSize: 0x68 }
  - { offsetInCU: 0x36599, offset: 0x40A83, size: 0x8, addend: 0x0, symName: __ZNSt3__16vectorINS_7variantIJidbNS_12basic_stringIcNS_11char_traitsIcEENS_9allocatorIcEEEEEEENS5_IS8_EEE19__copy_assign_allocB7v160006ERKSA_, symObjAddr: 0xFA04, symBinAddr: 0x10001562C, symSize: 0x2C }
  - { offsetInCU: 0x365CD, offset: 0x40AB7, size: 0x8, addend: 0x0, symName: __ZNSt3__16vectorINS_7variantIJidbNS_12basic_stringIcNS_11char_traitsIcEENS_9allocatorIcEEEEEEENS5_IS8_EEE6assignIPS8_Li0EEEvT_SD_, symObjAddr: 0xFA30, symBinAddr: 0x100015658, symSize: 0x17C }
  - { offsetInCU: 0x3666D, offset: 0x40B57, size: 0x8, addend: 0x0, symName: __ZNSt3__16vectorINS_7variantIJidbNS_12basic_stringIcNS_11char_traitsIcEENS_9allocatorIcEEEEEEENS5_IS8_EEE19__copy_assign_allocB7v160006ERKSA_NS_17integral_constantIbLb0EEE, symObjAddr: 0xFBAC, symBinAddr: 0x1000157D4, symSize: 0x14 }
  - { offsetInCU: 0x366AA, offset: 0x40B94, size: 0x8, addend: 0x0, symName: __ZNKSt3__16vectorINS_7variantIJidbNS_12basic_stringIcNS_11char_traitsIcEENS_9allocatorIcEEEEEEENS5_IS8_EEE8capacityB7v160006Ev, symObjAddr: 0xFBEC, symBinAddr: 0x100015814, symSize: 0x40 }
  - { offsetInCU: 0x366CF, offset: 0x40BB9, size: 0x8, addend: 0x0, symName: __ZNKSt3__16vectorINS_7variantIJidbNS_12basic_stringIcNS_11char_traitsIcEENS_9allocatorIcEEEEEEENS5_IS8_EEE4sizeB7v160006Ev, symObjAddr: 0xFC2C, symBinAddr: 0x100015854, symSize: 0x28 }
  - { offsetInCU: 0x366F4, offset: 0x40BDE, size: 0x8, addend: 0x0, symName: __ZNSt3__16vectorINS_7variantIJidbNS_12basic_stringIcNS_11char_traitsIcEENS_9allocatorIcEEEEEEENS5_IS8_EEE18__construct_at_endIPS8_Li0EEEvT_SD_m, symObjAddr: 0xFCE4, symBinAddr: 0x10001590C, symSize: 0x8C }
  - { offsetInCU: 0x36767, offset: 0x40C51, size: 0x8, addend: 0x0, symName: __ZNSt3__16vectorINS_7variantIJidbNS_12basic_stringIcNS_11char_traitsIcEENS_9allocatorIcEEEEEEENS5_IS8_EEE17__destruct_at_endB7v160006EPS8_, symObjAddr: 0xFD70, symBinAddr: 0x100015998, symSize: 0x60 }
  - { offsetInCU: 0x367AA, offset: 0x40C94, size: 0x8, addend: 0x0, symName: __ZNSt3__16vectorINS_7variantIJidbNS_12basic_stringIcNS_11char_traitsIcEENS_9allocatorIcEEEEEEENS5_IS8_EEE13__vdeallocateEv, symObjAddr: 0xFDD0, symBinAddr: 0x1000159F8, symSize: 0x8C }
  - { offsetInCU: 0x367D1, offset: 0x40CBB, size: 0x8, addend: 0x0, symName: __ZNSt3__16vectorINS_7variantIJidbNS_12basic_stringIcNS_11char_traitsIcEENS_9allocatorIcEEEEEEENS5_IS8_EEE11__vallocateB7v160006Em, symObjAddr: 0xFE5C, symBinAddr: 0x100015A84, symSize: 0xAC }
  - { offsetInCU: 0x36814, offset: 0x40CFE, size: 0x8, addend: 0x0, symName: __ZNKSt3__16vectorINS_7variantIJidbNS_12basic_stringIcNS_11char_traitsIcEENS_9allocatorIcEEEEEEENS5_IS8_EEE11__recommendB7v160006Em, symObjAddr: 0xFF08, symBinAddr: 0x100015B30, symSize: 0xB4 }
  - { offsetInCU: 0x36868, offset: 0x40D52, size: 0x8, addend: 0x0, symName: __ZNKSt3__16vectorINS_7variantIJidbNS_12basic_stringIcNS_11char_traitsIcEENS_9allocatorIcEEEEEEENS5_IS8_EEE9__end_capB7v160006Ev, symObjAddr: 0xFFF4, symBinAddr: 0x100015C1C, symSize: 0x28 }
  - { offsetInCU: 0x3688D, offset: 0x40D77, size: 0x8, addend: 0x0, symName: __ZNKSt3__117__compressed_pairIPNS_7variantIJidbNS_12basic_stringIcNS_11char_traitsIcEENS_9allocatorIcEEEEEEENS5_IS8_EEE5firstB7v160006Ev, symObjAddr: 0x1001C, symBinAddr: 0x100015C44, symSize: 0x24 }
  - { offsetInCU: 0x368B2, offset: 0x40D9C, size: 0x8, addend: 0x0, symName: __ZNKSt3__122__compressed_pair_elemIPNS_7variantIJidbNS_12basic_stringIcNS_11char_traitsIcEENS_9allocatorIcEEEEEEELi0ELb0EE5__getB7v160006Ev, symObjAddr: 0x10040, symBinAddr: 0x100015C68, symSize: 0x14 }
  - { offsetInCU: 0x368F0, offset: 0x40DDA, size: 0x8, addend: 0x0, symName: __ZNKSt3__111__copy_loopINS_17_ClassicAlgPolicyEEclB7v160006IPNS_7variantIJidbNS_12basic_stringIcNS_11char_traitsIcEENS_9allocatorIcEEEEEEESC_SC_EENS_4pairIT_T1_EESE_T0_SF_, symObjAddr: 0x10218, symBinAddr: 0x100015E40, symSize: 0x88 }
  - { offsetInCU: 0x3695A, offset: 0x40E44, size: 0x8, addend: 0x0, symName: __ZNSt3__17variantIJidbNS_12basic_stringIcNS_11char_traitsIcEENS_9allocatorIcEEEEEEaSERKS7_, symObjAddr: 0x10364, symBinAddr: 0x100015F8C, symSize: 0x34 }
  - { offsetInCU: 0x3698B, offset: 0x40E75, size: 0x8, addend: 0x0, symName: __ZNSt3__116__variant_detail6__implIJidbNS_12basic_stringIcNS_11char_traitsIcEENS_9allocatorIcEEEEEEaSERKS8_, symObjAddr: 0x10398, symBinAddr: 0x100015FC0, symSize: 0x34 }
  - { offsetInCU: 0x369BC, offset: 0x40EA6, size: 0x8, addend: 0x0, symName: __ZNSt3__116__variant_detail17__copy_assignmentINS0_8__traitsIJidbNS_12basic_stringIcNS_11char_traitsIcEENS_9allocatorIcEEEEEEELNS0_6_TraitE1EEaSERKSB_, symObjAddr: 0x103CC, symBinAddr: 0x100015FF4, symSize: 0x34 }
  - { offsetInCU: 0x369F5, offset: 0x40EDF, size: 0x8, addend: 0x0, symName: __ZNSt3__116__variant_detail12__assignmentINS0_8__traitsIJidbNS_12basic_stringIcNS_11char_traitsIcEENS_9allocatorIcEEEEEEEE16__generic_assignB7v160006IRKNS0_17__copy_assignmentIS9_LNS0_6_TraitE1EEEEEvOT_, symObjAddr: 0x10400, symBinAddr: 0x100016028, symSize: 0x88 }
  - { offsetInCU: 0x36AF3, offset: 0x40FDD, size: 0x8, addend: 0x0, symName: __ZNKSt3__116__variant_detail6__baseILNS0_6_TraitE1EJidbNS_12basic_stringIcNS_11char_traitsIcEENS_9allocatorIcEEEEEE22valueless_by_exceptionB7v160006Ev, symObjAddr: 0x10488, symBinAddr: 0x1000160B0, symSize: 0x30 }
  - { offsetInCU: 0x36B18, offset: 0x41002, size: 0x8, addend: 0x0, symName: __ZNSt3__116__variant_detail6__dtorINS0_8__traitsIJidbNS_12basic_stringIcNS_11char_traitsIcEENS_9allocatorIcEEEEEEELNS0_6_TraitE1EE9__destroyB7v160006Ev, symObjAddr: 0x104B8, symBinAddr: 0x1000160E0, symSize: 0x54 }
  - { offsetInCU: 0x36BC8, offset: 0x410B2, size: 0x8, addend: 0x0, symName: __ZNSt3__116__variant_detail12__visitation6__base14__visit_alt_atB7v160006IZNS0_12__assignmentINS0_8__traitsIJidbNS_12basic_stringIcNS_11char_traitsIcEENS_9allocatorIcEEEEEEEE16__generic_assignB7v160006IRKNS0_17__copy_assignmentISC_LNS0_6_TraitE1EEEEEvOT_EUlRSK_OT0_E_JRSD_SJ_EEEDcmSL_DpOT0_, symObjAddr: 0x1050C, symBinAddr: 0x100016134, symSize: 0x84 }
  - { offsetInCU: 0x36C42, offset: 0x4112C, size: 0x8, addend: 0x0, symName: __ZNKSt3__116__variant_detail6__baseILNS0_6_TraitE1EJidbNS_12basic_stringIcNS_11char_traitsIcEENS_9allocatorIcEEEEEE5indexB7v160006Ev, symObjAddr: 0x10590, symBinAddr: 0x1000161B8, symSize: 0x4C }
  - { offsetInCU: 0x36C6C, offset: 0x41156, size: 0x8, addend: 0x0, symName: __ZNSt3__116__variant_detail12__visitation6__base11__visit_altB7v160006IZNS0_6__dtorINS0_8__traitsIJidbNS_12basic_stringIcNS_11char_traitsIcEENS_9allocatorIcEEEEEEELNS0_6_TraitE1EE9__destroyB7v160006EvEUlRT_E_JRSE_EEEDcOSF_DpOT0_, symObjAddr: 0x105DC, symBinAddr: 0x100016204, symSize: 0x7C }
  - { offsetInCU: 0x36CC8, offset: 0x411B2, size: 0x8, addend: 0x0, symName: __ZNSt3__116__variant_detail12__visitation6__base12__dispatcherIJLm0EEE10__dispatchB7v160006IOZNS0_6__dtorINS0_8__traitsIJidbNS_12basic_stringIcNS_11char_traitsIcEENS_9allocatorIcEEEEEEELNS0_6_TraitE1EE9__destroyB7v160006EvEUlRT_E_JRNS0_6__baseILSF_1EJidbSD_EEEEEEDcSH_DpT0_, symObjAddr: 0x10658, symBinAddr: 0x100016280, symSize: 0x3C }
  - { offsetInCU: 0x36D10, offset: 0x411FA, size: 0x8, addend: 0x0, symName: __ZNSt3__116__variant_detail12__visitation6__base12__dispatcherIJLm1EEE10__dispatchB7v160006IOZNS0_6__dtorINS0_8__traitsIJidbNS_12basic_stringIcNS_11char_traitsIcEENS_9allocatorIcEEEEEEELNS0_6_TraitE1EE9__destroyB7v160006EvEUlRT_E_JRNS0_6__baseILSF_1EJidbSD_EEEEEEDcSH_DpT0_, symObjAddr: 0x10694, symBinAddr: 0x1000162BC, symSize: 0x3C }
  - { offsetInCU: 0x36D58, offset: 0x41242, size: 0x8, addend: 0x0, symName: __ZNSt3__116__variant_detail12__visitation6__base12__dispatcherIJLm2EEE10__dispatchB7v160006IOZNS0_6__dtorINS0_8__traitsIJidbNS_12basic_stringIcNS_11char_traitsIcEENS_9allocatorIcEEEEEEELNS0_6_TraitE1EE9__destroyB7v160006EvEUlRT_E_JRNS0_6__baseILSF_1EJidbSD_EEEEEEDcSH_DpT0_, symObjAddr: 0x106D0, symBinAddr: 0x1000162F8, symSize: 0x3C }
  - { offsetInCU: 0x36DA0, offset: 0x4128A, size: 0x8, addend: 0x0, symName: __ZNSt3__116__variant_detail12__visitation6__base12__dispatcherIJLm3EEE10__dispatchB7v160006IOZNS0_6__dtorINS0_8__traitsIJidbNS_12basic_stringIcNS_11char_traitsIcEENS_9allocatorIcEEEEEEELNS0_6_TraitE1EE9__destroyB7v160006EvEUlRT_E_JRNS0_6__baseILSF_1EJidbSD_EEEEEEDcSH_DpT0_, symObjAddr: 0x1070C, symBinAddr: 0x100016334, symSize: 0x3C }
  - { offsetInCU: 0x36E1E, offset: 0x41308, size: 0x8, addend: 0x0, symName: __ZNSt3__116__variant_detail12__visitation6__base4__atB7v160006IPFvOZNS0_6__dtorINS0_8__traitsIJidbNS_12basic_stringIcNS_11char_traitsIcEENS_9allocatorIcEEEEEEELNS0_6_TraitE1EE9__destroyB7v160006EvEUlRT_E_RNS0_6__baseILSD_1EJidbSB_EEEELm4EJEEEODaRKNS_8__farrayISF_XT0_EEEmDpT1_, symObjAddr: 0x10748, symBinAddr: 0x100016370, symSize: 0x30 }
  - { offsetInCU: 0x36E6A, offset: 0x41354, size: 0x8, addend: 0x0, symName: __ZNRSt3__116__variant_detail6__baseILNS0_6_TraitE1EJidbNS_12basic_stringIcNS_11char_traitsIcEENS_9allocatorIcEEEEEE9__as_baseB7v160006Ev, symObjAddr: 0x10778, symBinAddr: 0x1000163A0, symSize: 0x14 }
  - { offsetInCU: 0x36E94, offset: 0x4137E, size: 0x8, addend: 0x0, symName: __ZNSt3__116__variant_detail8__access6__base9__get_altB7v160006ILm0ERNS0_6__baseILNS0_6_TraitE1EJidbNS_12basic_stringIcNS_11char_traitsIcEENS_9allocatorIcEEEEEEEEEODaOT0_, symObjAddr: 0x107B8, symBinAddr: 0x1000163E0, symSize: 0x24 }
  - { offsetInCU: 0x36ED5, offset: 0x413BF, size: 0x8, addend: 0x0, symName: __ZZNSt3__116__variant_detail6__dtorINS0_8__traitsIJidbNS_12basic_stringIcNS_11char_traitsIcEENS_9allocatorIcEEEEEEELNS0_6_TraitE1EE9__destroyB7v160006EvENKUlRT_E_clINS0_5__altILm0EiEEEEDaSD_, symObjAddr: 0x107DC, symBinAddr: 0x100016404, symSize: 0x14 }
  - { offsetInCU: 0x36F16, offset: 0x41400, size: 0x8, addend: 0x0, symName: __ZNSt3__116__variant_detail8__access7__union9__get_altB7v160006IRNS0_7__unionILNS0_6_TraitE1ELm0EJidbNS_12basic_stringIcNS_11char_traitsIcEENS_9allocatorIcEEEEEEEEEODaOT_NS_16in_place_index_tILm0EEE, symObjAddr: 0x107F0, symBinAddr: 0x100016418, symSize: 0x14 }
  - { offsetInCU: 0x36F54, offset: 0x4143E, size: 0x8, addend: 0x0, symName: __ZNSt3__116__variant_detail8__access6__base9__get_altB7v160006ILm1ERNS0_6__baseILNS0_6_TraitE1EJidbNS_12basic_stringIcNS_11char_traitsIcEENS_9allocatorIcEEEEEEEEEODaOT0_, symObjAddr: 0x10830, symBinAddr: 0x100016458, symSize: 0x24 }
  - { offsetInCU: 0x36F8B, offset: 0x41475, size: 0x8, addend: 0x0, symName: __ZZNSt3__116__variant_detail6__dtorINS0_8__traitsIJidbNS_12basic_stringIcNS_11char_traitsIcEENS_9allocatorIcEEEEEEELNS0_6_TraitE1EE9__destroyB7v160006EvENKUlRT_E_clINS0_5__altILm1EdEEEEDaSD_, symObjAddr: 0x10854, symBinAddr: 0x10001647C, symSize: 0x14 }
  - { offsetInCU: 0x36FCC, offset: 0x414B6, size: 0x8, addend: 0x0, symName: __ZNSt3__116__variant_detail8__access7__union9__get_altB7v160006IRNS0_7__unionILNS0_6_TraitE1ELm0EJidbNS_12basic_stringIcNS_11char_traitsIcEENS_9allocatorIcEEEEEEELm1EEEODaOT_NS_16in_place_index_tIXT0_EEE, symObjAddr: 0x10868, symBinAddr: 0x100016490, symSize: 0x24 }
  - { offsetInCU: 0x3700F, offset: 0x414F9, size: 0x8, addend: 0x0, symName: __ZNSt3__116__variant_detail8__access7__union9__get_altB7v160006IRNS0_7__unionILNS0_6_TraitE1ELm1EJdbNS_12basic_stringIcNS_11char_traitsIcEENS_9allocatorIcEEEEEEEEEODaOT_NS_16in_place_index_tILm0EEE, symObjAddr: 0x1088C, symBinAddr: 0x1000164B4, symSize: 0x14 }
  - { offsetInCU: 0x3704D, offset: 0x41537, size: 0x8, addend: 0x0, symName: __ZNSt3__116__variant_detail8__access6__base9__get_altB7v160006ILm2ERNS0_6__baseILNS0_6_TraitE1EJidbNS_12basic_stringIcNS_11char_traitsIcEENS_9allocatorIcEEEEEEEEEODaOT0_, symObjAddr: 0x108CC, symBinAddr: 0x1000164F4, symSize: 0x24 }
  - { offsetInCU: 0x37084, offset: 0x4156E, size: 0x8, addend: 0x0, symName: __ZZNSt3__116__variant_detail6__dtorINS0_8__traitsIJidbNS_12basic_stringIcNS_11char_traitsIcEENS_9allocatorIcEEEEEEELNS0_6_TraitE1EE9__destroyB7v160006EvENKUlRT_E_clINS0_5__altILm2EbEEEEDaSD_, symObjAddr: 0x108F0, symBinAddr: 0x100016518, symSize: 0x14 }
  - { offsetInCU: 0x370C5, offset: 0x415AF, size: 0x8, addend: 0x0, symName: __ZNSt3__116__variant_detail8__access7__union9__get_altB7v160006IRNS0_7__unionILNS0_6_TraitE1ELm0EJidbNS_12basic_stringIcNS_11char_traitsIcEENS_9allocatorIcEEEEEEELm2EEEODaOT_NS_16in_place_index_tIXT0_EEE, symObjAddr: 0x10904, symBinAddr: 0x10001652C, symSize: 0x24 }
  - { offsetInCU: 0x37108, offset: 0x415F2, size: 0x8, addend: 0x0, symName: __ZNSt3__116__variant_detail8__access7__union9__get_altB7v160006IRNS0_7__unionILNS0_6_TraitE1ELm1EJdbNS_12basic_stringIcNS_11char_traitsIcEENS_9allocatorIcEEEEEEELm1EEEODaOT_NS_16in_place_index_tIXT0_EEE, symObjAddr: 0x10928, symBinAddr: 0x100016550, symSize: 0x24 }
  - { offsetInCU: 0x3714B, offset: 0x41635, size: 0x8, addend: 0x0, symName: __ZNSt3__116__variant_detail8__access7__union9__get_altB7v160006IRNS0_7__unionILNS0_6_TraitE1ELm2EJbNS_12basic_stringIcNS_11char_traitsIcEENS_9allocatorIcEEEEEEEEEODaOT_NS_16in_place_index_tILm0EEE, symObjAddr: 0x1094C, symBinAddr: 0x100016574, symSize: 0x14 }
  - { offsetInCU: 0x37189, offset: 0x41673, size: 0x8, addend: 0x0, symName: __ZNSt3__116__variant_detail8__access6__base9__get_altB7v160006ILm3ERNS0_6__baseILNS0_6_TraitE1EJidbNS_12basic_stringIcNS_11char_traitsIcEENS_9allocatorIcEEEEEEEEEODaOT0_, symObjAddr: 0x1098C, symBinAddr: 0x1000165B4, symSize: 0x24 }
  - { offsetInCU: 0x371C0, offset: 0x416AA, size: 0x8, addend: 0x0, symName: __ZZNSt3__116__variant_detail6__dtorINS0_8__traitsIJidbNS_12basic_stringIcNS_11char_traitsIcEENS_9allocatorIcEEEEEEELNS0_6_TraitE1EE9__destroyB7v160006EvENKUlRT_E_clINS0_5__altILm3ES8_EEEEDaSD_, symObjAddr: 0x109B0, symBinAddr: 0x1000165D8, symSize: 0x28 }
  - { offsetInCU: 0x37205, offset: 0x416EF, size: 0x8, addend: 0x0, symName: __ZNSt3__116__variant_detail5__altILm3ENS_12basic_stringIcNS_11char_traitsIcEENS_9allocatorIcEEEEED1Ev, symObjAddr: 0x109D8, symBinAddr: 0x100016600, symSize: 0x2C }
  - { offsetInCU: 0x37231, offset: 0x4171B, size: 0x8, addend: 0x0, symName: __ZNSt3__116__variant_detail5__altILm3ENS_12basic_stringIcNS_11char_traitsIcEENS_9allocatorIcEEEEED2Ev, symObjAddr: 0x10A04, symBinAddr: 0x10001662C, symSize: 0x2C }
  - { offsetInCU: 0x3725D, offset: 0x41747, size: 0x8, addend: 0x0, symName: __ZNSt3__116__variant_detail8__access7__union9__get_altB7v160006IRNS0_7__unionILNS0_6_TraitE1ELm0EJidbNS_12basic_stringIcNS_11char_traitsIcEENS_9allocatorIcEEEEEEELm3EEEODaOT_NS_16in_place_index_tIXT0_EEE, symObjAddr: 0x10A30, symBinAddr: 0x100016658, symSize: 0x24 }
  - { offsetInCU: 0x372A0, offset: 0x4178A, size: 0x8, addend: 0x0, symName: __ZNSt3__116__variant_detail8__access7__union9__get_altB7v160006IRNS0_7__unionILNS0_6_TraitE1ELm1EJdbNS_12basic_stringIcNS_11char_traitsIcEENS_9allocatorIcEEEEEEELm2EEEODaOT_NS_16in_place_index_tIXT0_EEE, symObjAddr: 0x10A54, symBinAddr: 0x10001667C, symSize: 0x24 }
  - { offsetInCU: 0x372E3, offset: 0x417CD, size: 0x8, addend: 0x0, symName: __ZNSt3__116__variant_detail8__access7__union9__get_altB7v160006IRNS0_7__unionILNS0_6_TraitE1ELm2EJbNS_12basic_stringIcNS_11char_traitsIcEENS_9allocatorIcEEEEEEELm1EEEODaOT_NS_16in_place_index_tIXT0_EEE, symObjAddr: 0x10A78, symBinAddr: 0x1000166A0, symSize: 0x24 }
  - { offsetInCU: 0x37326, offset: 0x41810, size: 0x8, addend: 0x0, symName: __ZNSt3__116__variant_detail8__access7__union9__get_altB7v160006IRNS0_7__unionILNS0_6_TraitE1ELm3EJNS_12basic_stringIcNS_11char_traitsIcEENS_9allocatorIcEEEEEEEEEODaOT_NS_16in_place_index_tILm0EEE, symObjAddr: 0x10A9C, symBinAddr: 0x1000166C4, symSize: 0x14 }
  - { offsetInCU: 0x3735F, offset: 0x41849, size: 0x8, addend: 0x0, symName: __ZNSt3__116__variant_detail12__visitation6__base4__atB7v160006IPFvOZNS0_6__dtorINS0_8__traitsIJidbNS_12basic_stringIcNS_11char_traitsIcEENS_9allocatorIcEEEEEEELNS0_6_TraitE1EE9__destroyB7v160006EvEUlRT_E_RNS0_6__baseILSD_1EJidbSB_EEEEEERKSF_SP_, symObjAddr: 0x10AB0, symBinAddr: 0x1000166D8, symSize: 0x14 }
  - { offsetInCU: 0x3738C, offset: 0x41876, size: 0x8, addend: 0x0, symName: __ZNKSt3__18__farrayIPFvOZNS_16__variant_detail6__dtorINS1_8__traitsIJidbNS_12basic_stringIcNS_11char_traitsIcEENS_9allocatorIcEEEEEEELNS1_6_TraitE1EE9__destroyB7v160006EvEUlRT_E_RNS1_6__baseILSB_1EJidbS9_EEEELm4EEixB7v160006Em, symObjAddr: 0x10AC4, symBinAddr: 0x1000166EC, symSize: 0x20 }
  - { offsetInCU: 0x373C5, offset: 0x418AF, size: 0x8, addend: 0x0, symName: __ZNSt3__116__variant_detail12__visitation6__base12__dispatcherIJLm0ELm0EEE10__dispatchB7v160006IOZNS0_12__assignmentINS0_8__traitsIJidbNS_12basic_stringIcNS_11char_traitsIcEENS_9allocatorIcEEEEEEEE16__generic_assignB7v160006IRKNS0_17__copy_assignmentISE_LNS0_6_TraitE1EEEEEvOT_EUlRSM_OT0_E_JRNS0_6__baseILSI_1EJidbSD_EEERKSU_EEEDcSM_DpT0_, symObjAddr: 0x10AE4, symBinAddr: 0x10001670C, symSize: 0x50 }
  - { offsetInCU: 0x37421, offset: 0x4190B, size: 0x8, addend: 0x0, symName: __ZNSt3__116__variant_detail12__visitation6__base12__dispatcherIJLm1ELm1EEE10__dispatchB7v160006IOZNS0_12__assignmentINS0_8__traitsIJidbNS_12basic_stringIcNS_11char_traitsIcEENS_9allocatorIcEEEEEEEE16__generic_assignB7v160006IRKNS0_17__copy_assignmentISE_LNS0_6_TraitE1EEEEEvOT_EUlRSM_OT0_E_JRNS0_6__baseILSI_1EJidbSD_EEERKSU_EEEDcSM_DpT0_, symObjAddr: 0x10B34, symBinAddr: 0x10001675C, symSize: 0x50 }
  - { offsetInCU: 0x3747D, offset: 0x41967, size: 0x8, addend: 0x0, symName: __ZNSt3__116__variant_detail12__visitation6__base12__dispatcherIJLm2ELm2EEE10__dispatchB7v160006IOZNS0_12__assignmentINS0_8__traitsIJidbNS_12basic_stringIcNS_11char_traitsIcEENS_9allocatorIcEEEEEEEE16__generic_assignB7v160006IRKNS0_17__copy_assignmentISE_LNS0_6_TraitE1EEEEEvOT_EUlRSM_OT0_E_JRNS0_6__baseILSI_1EJidbSD_EEERKSU_EEEDcSM_DpT0_, symObjAddr: 0x10B84, symBinAddr: 0x1000167AC, symSize: 0x50 }
  - { offsetInCU: 0x374D9, offset: 0x419C3, size: 0x8, addend: 0x0, symName: __ZNSt3__116__variant_detail12__visitation6__base12__dispatcherIJLm3ELm3EEE10__dispatchB7v160006IOZNS0_12__assignmentINS0_8__traitsIJidbNS_12basic_stringIcNS_11char_traitsIcEENS_9allocatorIcEEEEEEEE16__generic_assignB7v160006IRKNS0_17__copy_assignmentISE_LNS0_6_TraitE1EEEEEvOT_EUlRSM_OT0_E_JRNS0_6__baseILSI_1EJidbSD_EEERKSU_EEEDcSM_DpT0_, symObjAddr: 0x10BD4, symBinAddr: 0x1000167FC, symSize: 0x50 }
  - { offsetInCU: 0x3756B, offset: 0x41A55, size: 0x8, addend: 0x0, symName: __ZNKSt3__18__farrayIPFvOZNS_16__variant_detail12__assignmentINS1_8__traitsIJidbNS_12basic_stringIcNS_11char_traitsIcEENS_9allocatorIcEEEEEEEE16__generic_assignB7v160006IRKNS1_17__copy_assignmentISA_LNS1_6_TraitE1EEEEEvOT_EUlRSI_OT0_E_RNS1_6__baseILSE_1EJidbS9_EEERKSQ_ELm4EEixB7v160006Em, symObjAddr: 0x10C24, symBinAddr: 0x10001684C, symSize: 0x20 }
  - { offsetInCU: 0x3759F, offset: 0x41A89, size: 0x8, addend: 0x0, symName: __ZNKRSt3__116__variant_detail6__baseILNS0_6_TraitE1EJidbNS_12basic_stringIcNS_11char_traitsIcEENS_9allocatorIcEEEEEE9__as_baseB7v160006Ev, symObjAddr: 0x10C44, symBinAddr: 0x10001686C, symSize: 0x14 }
  - { offsetInCU: 0x375CE, offset: 0x41AB8, size: 0x8, addend: 0x0, symName: __ZNSt3__116__variant_detail8__access6__base9__get_altB7v160006ILm0ERKNS0_6__baseILNS0_6_TraitE1EJidbNS_12basic_stringIcNS_11char_traitsIcEENS_9allocatorIcEEEEEEEEEODaOT0_, symObjAddr: 0x10C8C, symBinAddr: 0x1000168B4, symSize: 0x24 }
  - { offsetInCU: 0x3760F, offset: 0x41AF9, size: 0x8, addend: 0x0, symName: __ZZNSt3__116__variant_detail12__assignmentINS0_8__traitsIJidbNS_12basic_stringIcNS_11char_traitsIcEENS_9allocatorIcEEEEEEEE16__generic_assignB7v160006IRKNS0_17__copy_assignmentIS9_LNS0_6_TraitE1EEEEEvOT_ENKUlRSH_OT0_E_clINS0_5__altILm0EiEERKSP_EEDaSJ_SL_, symObjAddr: 0x10CB0, symBinAddr: 0x1000168D8, symSize: 0x38 }
  - { offsetInCU: 0x3766C, offset: 0x41B56, size: 0x8, addend: 0x0, symName: __ZNSt3__116__variant_detail12__assignmentINS0_8__traitsIJidbNS_12basic_stringIcNS_11char_traitsIcEENS_9allocatorIcEEEEEEEE12__assign_altB7v160006ILm0EiRKiEEvRNS0_5__altIXT_ET0_EEOT1_, symObjAddr: 0x10CE8, symBinAddr: 0x100016910, symSize: 0x70 }
  - { offsetInCU: 0x3773B, offset: 0x41C25, size: 0x8, addend: 0x0, symName: __ZZNSt3__116__variant_detail12__assignmentINS0_8__traitsIJidbNS_12basic_stringIcNS_11char_traitsIcEENS_9allocatorIcEEEEEEEE12__assign_altB7v160006ILm0EiRKiEEvRNS0_5__altIXT_ET0_EEOT1_ENKUt_clENS_17integral_constantIbLb1EEE, symObjAddr: 0x10D58, symBinAddr: 0x100016980, symSize: 0x2C }
  - { offsetInCU: 0x3776F, offset: 0x41C59, size: 0x8, addend: 0x0, symName: __ZNSt3__116__variant_detail12__assignmentINS0_8__traitsIJidbNS_12basic_stringIcNS_11char_traitsIcEENS_9allocatorIcEEEEEEEE9__emplaceB7v160006ILm0EJRKiEEERDaDpOT0_, symObjAddr: 0x10D84, symBinAddr: 0x1000169AC, symSize: 0x4C }
  - { offsetInCU: 0x377C8, offset: 0x41CB2, size: 0x8, addend: 0x0, symName: __ZNSt3__116__variant_detail6__ctorINS0_8__traitsIJidbNS_12basic_stringIcNS_11char_traitsIcEENS_9allocatorIcEEEEEEEE15__construct_altB7v160006ILm0EiJRKiEEERT0_RNS0_5__altIXT_ESE_EEDpOT1_, symObjAddr: 0x10DD0, symBinAddr: 0x1000169F8, symSize: 0x30 }
  - { offsetInCU: 0x3781A, offset: 0x41D04, size: 0x8, addend: 0x0, symName: __ZNSt3__116__variant_detail8__access6__base9__get_altB7v160006ILm0ERNS0_12__assignmentINS0_8__traitsIJidbNS_12basic_stringIcNS_11char_traitsIcEENS_9allocatorIcEEEEEEEEEEEODaOT0_, symObjAddr: 0x10E00, symBinAddr: 0x100016A28, symSize: 0x24 }
  - { offsetInCU: 0x37856, offset: 0x41D40, size: 0x8, addend: 0x0, symName: __ZNSt3__116__variant_detail5__altILm0EiEC1B7v160006IJRKiEEENS_10in_place_tEDpOT_, symObjAddr: 0x10E24, symBinAddr: 0x100016A4C, symSize: 0x34 }
  - { offsetInCU: 0x378A5, offset: 0x41D8F, size: 0x8, addend: 0x0, symName: __ZNSt3__116__variant_detail5__altILm0EiEC2B7v160006IJRKiEEENS_10in_place_tEDpOT_, symObjAddr: 0x10E58, symBinAddr: 0x100016A80, symSize: 0x24 }
  - { offsetInCU: 0x378F5, offset: 0x41DDF, size: 0x8, addend: 0x0, symName: __ZNSt3__116__variant_detail8__access7__union9__get_altB7v160006IRKNS0_7__unionILNS0_6_TraitE1ELm0EJidbNS_12basic_stringIcNS_11char_traitsIcEENS_9allocatorIcEEEEEEEEEODaOT_NS_16in_place_index_tILm0EEE, symObjAddr: 0x10E7C, symBinAddr: 0x100016AA4, symSize: 0x14 }
  - { offsetInCU: 0x37938, offset: 0x41E22, size: 0x8, addend: 0x0, symName: __ZNSt3__116__variant_detail8__access6__base9__get_altB7v160006ILm1ERKNS0_6__baseILNS0_6_TraitE1EJidbNS_12basic_stringIcNS_11char_traitsIcEENS_9allocatorIcEEEEEEEEEODaOT0_, symObjAddr: 0x10EC4, symBinAddr: 0x100016AEC, symSize: 0x24 }
  - { offsetInCU: 0x3796F, offset: 0x41E59, size: 0x8, addend: 0x0, symName: __ZZNSt3__116__variant_detail12__assignmentINS0_8__traitsIJidbNS_12basic_stringIcNS_11char_traitsIcEENS_9allocatorIcEEEEEEEE16__generic_assignB7v160006IRKNS0_17__copy_assignmentIS9_LNS0_6_TraitE1EEEEEvOT_ENKUlRSH_OT0_E_clINS0_5__altILm1EdEERKSP_EEDaSJ_SL_, symObjAddr: 0x10EE8, symBinAddr: 0x100016B10, symSize: 0x38 }
  - { offsetInCU: 0x379D1, offset: 0x41EBB, size: 0x8, addend: 0x0, symName: __ZNSt3__116__variant_detail12__assignmentINS0_8__traitsIJidbNS_12basic_stringIcNS_11char_traitsIcEENS_9allocatorIcEEEEEEEE12__assign_altB7v160006ILm1EdRKdEEvRNS0_5__altIXT_ET0_EEOT1_, symObjAddr: 0x10F20, symBinAddr: 0x100016B48, symSize: 0x70 }
  - { offsetInCU: 0x37AA0, offset: 0x41F8A, size: 0x8, addend: 0x0, symName: __ZZNSt3__116__variant_detail12__assignmentINS0_8__traitsIJidbNS_12basic_stringIcNS_11char_traitsIcEENS_9allocatorIcEEEEEEEE12__assign_altB7v160006ILm1EdRKdEEvRNS0_5__altIXT_ET0_EEOT1_ENKUt_clENS_17integral_constantIbLb1EEE, symObjAddr: 0x10F90, symBinAddr: 0x100016BB8, symSize: 0x2C }
  - { offsetInCU: 0x37AD4, offset: 0x41FBE, size: 0x8, addend: 0x0, symName: __ZNSt3__116__variant_detail12__assignmentINS0_8__traitsIJidbNS_12basic_stringIcNS_11char_traitsIcEENS_9allocatorIcEEEEEEEE9__emplaceB7v160006ILm1EJRKdEEERDaDpOT0_, symObjAddr: 0x10FBC, symBinAddr: 0x100016BE4, symSize: 0x50 }
  - { offsetInCU: 0x37B2D, offset: 0x42017, size: 0x8, addend: 0x0, symName: __ZNSt3__116__variant_detail6__ctorINS0_8__traitsIJidbNS_12basic_stringIcNS_11char_traitsIcEENS_9allocatorIcEEEEEEEE15__construct_altB7v160006ILm1EdJRKdEEERT0_RNS0_5__altIXT_ESE_EEDpOT1_, symObjAddr: 0x1100C, symBinAddr: 0x100016C34, symSize: 0x30 }
  - { offsetInCU: 0x37B7F, offset: 0x42069, size: 0x8, addend: 0x0, symName: __ZNSt3__116__variant_detail8__access6__base9__get_altB7v160006ILm1ERNS0_12__assignmentINS0_8__traitsIJidbNS_12basic_stringIcNS_11char_traitsIcEENS_9allocatorIcEEEEEEEEEEEODaOT0_, symObjAddr: 0x1103C, symBinAddr: 0x100016C64, symSize: 0x24 }
  - { offsetInCU: 0x37BBB, offset: 0x420A5, size: 0x8, addend: 0x0, symName: __ZNSt3__116__variant_detail5__altILm1EdEC1B7v160006IJRKdEEENS_10in_place_tEDpOT_, symObjAddr: 0x11060, symBinAddr: 0x100016C88, symSize: 0x34 }
  - { offsetInCU: 0x37C0A, offset: 0x420F4, size: 0x8, addend: 0x0, symName: __ZNSt3__116__variant_detail5__altILm1EdEC2B7v160006IJRKdEEENS_10in_place_tEDpOT_, symObjAddr: 0x11094, symBinAddr: 0x100016CBC, symSize: 0x24 }
  - { offsetInCU: 0x37C5A, offset: 0x42144, size: 0x8, addend: 0x0, symName: __ZNSt3__116__variant_detail8__access7__union9__get_altB7v160006IRKNS0_7__unionILNS0_6_TraitE1ELm0EJidbNS_12basic_stringIcNS_11char_traitsIcEENS_9allocatorIcEEEEEEELm1EEEODaOT_NS_16in_place_index_tIXT0_EEE, symObjAddr: 0x110B8, symBinAddr: 0x100016CE0, symSize: 0x24 }
  - { offsetInCU: 0x37C9D, offset: 0x42187, size: 0x8, addend: 0x0, symName: __ZNSt3__116__variant_detail8__access7__union9__get_altB7v160006IRKNS0_7__unionILNS0_6_TraitE1ELm1EJdbNS_12basic_stringIcNS_11char_traitsIcEENS_9allocatorIcEEEEEEEEEODaOT_NS_16in_place_index_tILm0EEE, symObjAddr: 0x110DC, symBinAddr: 0x100016D04, symSize: 0x14 }
  - { offsetInCU: 0x37CE0, offset: 0x421CA, size: 0x8, addend: 0x0, symName: __ZNSt3__116__variant_detail8__access6__base9__get_altB7v160006ILm2ERKNS0_6__baseILNS0_6_TraitE1EJidbNS_12basic_stringIcNS_11char_traitsIcEENS_9allocatorIcEEEEEEEEEODaOT0_, symObjAddr: 0x11124, symBinAddr: 0x100016D4C, symSize: 0x24 }
  - { offsetInCU: 0x37D17, offset: 0x42201, size: 0x8, addend: 0x0, symName: __ZZNSt3__116__variant_detail12__assignmentINS0_8__traitsIJidbNS_12basic_stringIcNS_11char_traitsIcEENS_9allocatorIcEEEEEEEE16__generic_assignB7v160006IRKNS0_17__copy_assignmentIS9_LNS0_6_TraitE1EEEEEvOT_ENKUlRSH_OT0_E_clINS0_5__altILm2EbEERKSP_EEDaSJ_SL_, symObjAddr: 0x11148, symBinAddr: 0x100016D70, symSize: 0x38 }
  - { offsetInCU: 0x37D74, offset: 0x4225E, size: 0x8, addend: 0x0, symName: __ZNSt3__116__variant_detail12__assignmentINS0_8__traitsIJidbNS_12basic_stringIcNS_11char_traitsIcEENS_9allocatorIcEEEEEEEE12__assign_altB7v160006ILm2EbRKbEEvRNS0_5__altIXT_ET0_EEOT1_, symObjAddr: 0x11180, symBinAddr: 0x100016DA8, symSize: 0x74 }
  - { offsetInCU: 0x37E43, offset: 0x4232D, size: 0x8, addend: 0x0, symName: __ZZNSt3__116__variant_detail12__assignmentINS0_8__traitsIJidbNS_12basic_stringIcNS_11char_traitsIcEENS_9allocatorIcEEEEEEEE12__assign_altB7v160006ILm2EbRKbEEvRNS0_5__altIXT_ET0_EEOT1_ENKUt_clENS_17integral_constantIbLb1EEE, symObjAddr: 0x111F4, symBinAddr: 0x100016E1C, symSize: 0x2C }
  - { offsetInCU: 0x37E77, offset: 0x42361, size: 0x8, addend: 0x0, symName: __ZNSt3__116__variant_detail12__assignmentINS0_8__traitsIJidbNS_12basic_stringIcNS_11char_traitsIcEENS_9allocatorIcEEEEEEEE9__emplaceB7v160006ILm2EJRKbEEERDaDpOT0_, symObjAddr: 0x11220, symBinAddr: 0x100016E48, symSize: 0x50 }
  - { offsetInCU: 0x37ED0, offset: 0x423BA, size: 0x8, addend: 0x0, symName: __ZNSt3__116__variant_detail6__ctorINS0_8__traitsIJidbNS_12basic_stringIcNS_11char_traitsIcEENS_9allocatorIcEEEEEEEE15__construct_altB7v160006ILm2EbJRKbEEERT0_RNS0_5__altIXT_ESE_EEDpOT1_, symObjAddr: 0x11270, symBinAddr: 0x100016E98, symSize: 0x30 }
  - { offsetInCU: 0x37F22, offset: 0x4240C, size: 0x8, addend: 0x0, symName: __ZNSt3__116__variant_detail8__access6__base9__get_altB7v160006ILm2ERNS0_12__assignmentINS0_8__traitsIJidbNS_12basic_stringIcNS_11char_traitsIcEENS_9allocatorIcEEEEEEEEEEEODaOT0_, symObjAddr: 0x112A0, symBinAddr: 0x100016EC8, symSize: 0x24 }
  - { offsetInCU: 0x37F5E, offset: 0x42448, size: 0x8, addend: 0x0, symName: __ZNSt3__116__variant_detail5__altILm2EbEC1B7v160006IJRKbEEENS_10in_place_tEDpOT_, symObjAddr: 0x112C4, symBinAddr: 0x100016EEC, symSize: 0x34 }
  - { offsetInCU: 0x37FAD, offset: 0x42497, size: 0x8, addend: 0x0, symName: __ZNSt3__116__variant_detail5__altILm2EbEC2B7v160006IJRKbEEENS_10in_place_tEDpOT_, symObjAddr: 0x112F8, symBinAddr: 0x100016F20, symSize: 0x28 }
  - { offsetInCU: 0x37FFD, offset: 0x424E7, size: 0x8, addend: 0x0, symName: __ZNSt3__116__variant_detail8__access7__union9__get_altB7v160006IRKNS0_7__unionILNS0_6_TraitE1ELm0EJidbNS_12basic_stringIcNS_11char_traitsIcEENS_9allocatorIcEEEEEEELm2EEEODaOT_NS_16in_place_index_tIXT0_EEE, symObjAddr: 0x11320, symBinAddr: 0x100016F48, symSize: 0x24 }
  - { offsetInCU: 0x38040, offset: 0x4252A, size: 0x8, addend: 0x0, symName: __ZNSt3__116__variant_detail8__access7__union9__get_altB7v160006IRKNS0_7__unionILNS0_6_TraitE1ELm1EJdbNS_12basic_stringIcNS_11char_traitsIcEENS_9allocatorIcEEEEEEELm1EEEODaOT_NS_16in_place_index_tIXT0_EEE, symObjAddr: 0x11344, symBinAddr: 0x100016F6C, symSize: 0x24 }
  - { offsetInCU: 0x38083, offset: 0x4256D, size: 0x8, addend: 0x0, symName: __ZNSt3__116__variant_detail8__access7__union9__get_altB7v160006IRKNS0_7__unionILNS0_6_TraitE1ELm2EJbNS_12basic_stringIcNS_11char_traitsIcEENS_9allocatorIcEEEEEEEEEODaOT_NS_16in_place_index_tILm0EEE, symObjAddr: 0x11368, symBinAddr: 0x100016F90, symSize: 0x14 }
  - { offsetInCU: 0x380C6, offset: 0x425B0, size: 0x8, addend: 0x0, symName: __ZNSt3__116__variant_detail8__access6__base9__get_altB7v160006ILm3ERKNS0_6__baseILNS0_6_TraitE1EJidbNS_12basic_stringIcNS_11char_traitsIcEENS_9allocatorIcEEEEEEEEEODaOT0_, symObjAddr: 0x113B0, symBinAddr: 0x100016FD8, symSize: 0x24 }
  - { offsetInCU: 0x380FD, offset: 0x425E7, size: 0x8, addend: 0x0, symName: __ZZNSt3__116__variant_detail12__assignmentINS0_8__traitsIJidbNS_12basic_stringIcNS_11char_traitsIcEENS_9allocatorIcEEEEEEEE16__generic_assignB7v160006IRKNS0_17__copy_assignmentIS9_LNS0_6_TraitE1EEEEEvOT_ENKUlRSH_OT0_E_clINS0_5__altILm3ES8_EERKSP_EEDaSJ_SL_, symObjAddr: 0x113D4, symBinAddr: 0x100016FFC, symSize: 0x38 }
  - { offsetInCU: 0x38155, offset: 0x4263F, size: 0x8, addend: 0x0, symName: __ZNSt3__116__variant_detail12__assignmentINS0_8__traitsIJidbNS_12basic_stringIcNS_11char_traitsIcEENS_9allocatorIcEEEEEEEE12__assign_altB7v160006ILm3ES8_RKS8_EEvRNS0_5__altIXT_ET0_EEOT1_, symObjAddr: 0x1140C, symBinAddr: 0x100017034, symSize: 0x6C }
  - { offsetInCU: 0x38224, offset: 0x4270E, size: 0x8, addend: 0x0, symName: __ZZNSt3__116__variant_detail12__assignmentINS0_8__traitsIJidbNS_12basic_stringIcNS_11char_traitsIcEENS_9allocatorIcEEEEEEEE12__assign_altB7v160006ILm3ES8_RKS8_EEvRNS0_5__altIXT_ET0_EEOT1_ENKUt_clENS_17integral_constantIbLb0EEE, symObjAddr: 0x11478, symBinAddr: 0x1000170A0, symSize: 0x70 }
  - { offsetInCU: 0x38258, offset: 0x42742, size: 0x8, addend: 0x0, symName: __ZNSt3__116__variant_detail12__assignmentINS0_8__traitsIJidbNS_12basic_stringIcNS_11char_traitsIcEENS_9allocatorIcEEEEEEEE9__emplaceB7v160006ILm3EJS8_EEERDaDpOT0_, symObjAddr: 0x114E8, symBinAddr: 0x100017110, symSize: 0x50 }
  - { offsetInCU: 0x382B1, offset: 0x4279B, size: 0x8, addend: 0x0, symName: __ZNSt3__116__variant_detail6__ctorINS0_8__traitsIJidbNS_12basic_stringIcNS_11char_traitsIcEENS_9allocatorIcEEEEEEEE15__construct_altB7v160006ILm3ES8_JS8_EEERT0_RNS0_5__altIXT_ESC_EEDpOT1_, symObjAddr: 0x11538, symBinAddr: 0x100017160, symSize: 0x30 }
  - { offsetInCU: 0x38303, offset: 0x427ED, size: 0x8, addend: 0x0, symName: __ZNSt3__116__variant_detail8__access6__base9__get_altB7v160006ILm3ERNS0_12__assignmentINS0_8__traitsIJidbNS_12basic_stringIcNS_11char_traitsIcEENS_9allocatorIcEEEEEEEEEEEODaOT0_, symObjAddr: 0x11568, symBinAddr: 0x100017190, symSize: 0x24 }
  - { offsetInCU: 0x3833A, offset: 0x42824, size: 0x8, addend: 0x0, symName: __ZNSt3__116__variant_detail5__altILm3ENS_12basic_stringIcNS_11char_traitsIcEENS_9allocatorIcEEEEEC1B7v160006IJS7_EEENS_10in_place_tEDpOT_, symObjAddr: 0x1158C, symBinAddr: 0x1000171B4, symSize: 0x34 }
  - { offsetInCU: 0x38389, offset: 0x42873, size: 0x8, addend: 0x0, symName: __ZNSt3__116__variant_detail5__altILm3ENS_12basic_stringIcNS_11char_traitsIcEENS_9allocatorIcEEEEEC2B7v160006IJS7_EEENS_10in_place_tEDpOT_, symObjAddr: 0x115C0, symBinAddr: 0x1000171E8, symSize: 0x34 }
  - { offsetInCU: 0x383D8, offset: 0x428C2, size: 0x8, addend: 0x0, symName: __ZNSt3__116__variant_detail8__access7__union9__get_altB7v160006IRKNS0_7__unionILNS0_6_TraitE1ELm0EJidbNS_12basic_stringIcNS_11char_traitsIcEENS_9allocatorIcEEEEEEELm3EEEODaOT_NS_16in_place_index_tIXT0_EEE, symObjAddr: 0x115F4, symBinAddr: 0x10001721C, symSize: 0x24 }
  - { offsetInCU: 0x3841B, offset: 0x42905, size: 0x8, addend: 0x0, symName: __ZNSt3__116__variant_detail8__access7__union9__get_altB7v160006IRKNS0_7__unionILNS0_6_TraitE1ELm1EJdbNS_12basic_stringIcNS_11char_traitsIcEENS_9allocatorIcEEEEEEELm2EEEODaOT_NS_16in_place_index_tIXT0_EEE, symObjAddr: 0x11618, symBinAddr: 0x100017240, symSize: 0x24 }
  - { offsetInCU: 0x3845E, offset: 0x42948, size: 0x8, addend: 0x0, symName: __ZNSt3__116__variant_detail8__access7__union9__get_altB7v160006IRKNS0_7__unionILNS0_6_TraitE1ELm2EJbNS_12basic_stringIcNS_11char_traitsIcEENS_9allocatorIcEEEEEEELm1EEEODaOT_NS_16in_place_index_tIXT0_EEE, symObjAddr: 0x1163C, symBinAddr: 0x100017264, symSize: 0x24 }
  - { offsetInCU: 0x384A1, offset: 0x4298B, size: 0x8, addend: 0x0, symName: __ZNSt3__116__variant_detail8__access7__union9__get_altB7v160006IRKNS0_7__unionILNS0_6_TraitE1ELm3EJNS_12basic_stringIcNS_11char_traitsIcEENS_9allocatorIcEEEEEEEEEODaOT_NS_16in_place_index_tILm0EEE, symObjAddr: 0x11660, symBinAddr: 0x100017288, symSize: 0x14 }
  - { offsetInCU: 0x384DA, offset: 0x429C4, size: 0x8, addend: 0x0, symName: __ZNSt3__118__unwrap_iter_implIPNS_7variantIJidbNS_12basic_stringIcNS_11char_traitsIcEENS_9allocatorIcEEEEEEELb1EE8__unwrapB7v160006ES9_, symObjAddr: 0x11674, symBinAddr: 0x10001729C, symSize: 0x24 }
  - { offsetInCU: 0x38502, offset: 0x429EC, size: 0x8, addend: 0x0, symName: __ZNSt3__14pairIPNS_7variantIJidbNS_12basic_stringIcNS_11char_traitsIcEENS_9allocatorIcEEEEEEES9_EC1B7v160006IS9_S9_LPv0EEEOT_OT0_, symObjAddr: 0x116AC, symBinAddr: 0x1000172D4, symSize: 0x3C }
  - { offsetInCU: 0x3855E, offset: 0x42A48, size: 0x8, addend: 0x0, symName: __ZNSt3__14pairIPNS_7variantIJidbNS_12basic_stringIcNS_11char_traitsIcEENS_9allocatorIcEEEEEEES9_EC2B7v160006IS9_S9_LPv0EEEOT_OT0_, symObjAddr: 0x116E8, symBinAddr: 0x100017310, symSize: 0x34 }
  - { offsetInCU: 0x385BB, offset: 0x42AA5, size: 0x8, addend: 0x0, symName: __ZNSt3__118__unwrap_iter_implIPNS_7variantIJidbNS_12basic_stringIcNS_11char_traitsIcEENS_9allocatorIcEEEEEEELb1EE8__rewrapB7v160006ES9_S9_, symObjAddr: 0x1171C, symBinAddr: 0x100017344, symSize: 0x50 }
  - { offsetInCU: 0x38605, offset: 0x42AEF, size: 0x8, addend: 0x0, symName: __ZNSt3__16vectorINS_7variantIJidbNS_12basic_stringIcNS_11char_traitsIcEENS_9allocatorIcEEEEEEENS5_IS8_EEE21_ConstructTransactionC1B7v160006ERSA_m, symObjAddr: 0x1176C, symBinAddr: 0x100017394, symSize: 0x3C }
  - { offsetInCU: 0x3864B, offset: 0x42B35, size: 0x8, addend: 0x0, symName: __ZNSt3__16vectorINS_7variantIJidbNS_12basic_stringIcNS_11char_traitsIcEENS_9allocatorIcEEEEEEENS5_IS8_EEE7__allocB7v160006Ev, symObjAddr: 0x1189C, symBinAddr: 0x1000174C4, symSize: 0x28 }
  - { offsetInCU: 0x38670, offset: 0x42B5A, size: 0x8, addend: 0x0, symName: __ZNSt3__16vectorINS_7variantIJidbNS_12basic_stringIcNS_11char_traitsIcEENS_9allocatorIcEEEEEEENS5_IS8_EEE21_ConstructTransactionD1B7v160006Ev, symObjAddr: 0x118C4, symBinAddr: 0x1000174EC, symSize: 0x2C }
  - { offsetInCU: 0x38698, offset: 0x42B82, size: 0x8, addend: 0x0, symName: __ZNSt3__16vectorINS_7variantIJidbNS_12basic_stringIcNS_11char_traitsIcEENS_9allocatorIcEEEEEEENS5_IS8_EEE21_ConstructTransactionC2B7v160006ERSA_m, symObjAddr: 0x118F0, symBinAddr: 0x100017518, symSize: 0x44 }
  - { offsetInCU: 0x386DF, offset: 0x42BC9, size: 0x8, addend: 0x0, symName: __ZNSt3__129_AllocatorDestroyRangeReverseINS_9allocatorINS_7variantIJidbNS_12basic_stringIcNS_11char_traitsIcEENS1_IcEEEEEEEEEPS8_EC1B7v160006ERS9_RSA_SD_, symObjAddr: 0x11980, symBinAddr: 0x1000175A8, symSize: 0x44 }
  - { offsetInCU: 0x38734, offset: 0x42C1E, size: 0x8, addend: 0x0, symName: __ZNSt3__116allocator_traitsINS_9allocatorINS_7variantIJidbNS_12basic_stringIcNS_11char_traitsIcEENS1_IcEEEEEEEEEE9constructB7v160006IS8_JRS8_EvEEvRS9_PT_DpOT0_, symObjAddr: 0x119C4, symBinAddr: 0x1000175EC, symSize: 0x34 }
  - { offsetInCU: 0x3878D, offset: 0x42C77, size: 0x8, addend: 0x0, symName: __ZNSt3__128__exception_guard_exceptionsINS_29_AllocatorDestroyRangeReverseINS_9allocatorINS_7variantIJidbNS_12basic_stringIcNS_11char_traitsIcEENS2_IcEEEEEEEEEPS9_EEE10__completeB7v160006Ev, symObjAddr: 0x119F8, symBinAddr: 0x100017620, symSize: 0x1C }
  - { offsetInCU: 0x387B2, offset: 0x42C9C, size: 0x8, addend: 0x0, symName: __ZNSt3__128__exception_guard_exceptionsINS_29_AllocatorDestroyRangeReverseINS_9allocatorINS_7variantIJidbNS_12basic_stringIcNS_11char_traitsIcEENS2_IcEEEEEEEEEPS9_EEED1B7v160006Ev, symObjAddr: 0x11A14, symBinAddr: 0x10001763C, symSize: 0x2C }
  - { offsetInCU: 0x387DA, offset: 0x42CC4, size: 0x8, addend: 0x0, symName: __ZNSt3__128__exception_guard_exceptionsINS_29_AllocatorDestroyRangeReverseINS_9allocatorINS_7variantIJidbNS_12basic_stringIcNS_11char_traitsIcEENS2_IcEEEEEEEEEPS9_EEEC1B7v160006ESC_, symObjAddr: 0x11A40, symBinAddr: 0x100017668, symSize: 0x34 }
  - { offsetInCU: 0x38811, offset: 0x42CFB, size: 0x8, addend: 0x0, symName: __ZNSt3__128__exception_guard_exceptionsINS_29_AllocatorDestroyRangeReverseINS_9allocatorINS_7variantIJidbNS_12basic_stringIcNS_11char_traitsIcEENS2_IcEEEEEEEEEPS9_EEEC2B7v160006ESC_, symObjAddr: 0x11A74, symBinAddr: 0x10001769C, symSize: 0x30 }
  - { offsetInCU: 0x38849, offset: 0x42D33, size: 0x8, addend: 0x0, symName: __ZNSt3__129_AllocatorDestroyRangeReverseINS_9allocatorINS_7variantIJidbNS_12basic_stringIcNS_11char_traitsIcEENS1_IcEEEEEEEEEPS8_EC2B7v160006ERS9_RSA_SD_, symObjAddr: 0x11AA4, symBinAddr: 0x1000176CC, symSize: 0x38 }
  - { offsetInCU: 0x3889F, offset: 0x42D89, size: 0x8, addend: 0x0, symName: __ZNSt3__19allocatorINS_7variantIJidbNS_12basic_stringIcNS_11char_traitsIcEENS0_IcEEEEEEEE9constructB7v160006IS7_JRS7_EEEvPT_DpOT0_, symObjAddr: 0x11ADC, symBinAddr: 0x100017704, symSize: 0x30 }
  - { offsetInCU: 0x388F5, offset: 0x42DDF, size: 0x8, addend: 0x0, symName: __ZNSt3__17variantIJidbNS_12basic_stringIcNS_11char_traitsIcEENS_9allocatorIcEEEEEEC1ERKS7_, symObjAddr: 0x11B0C, symBinAddr: 0x100017734, symSize: 0x34 }
  - { offsetInCU: 0x38929, offset: 0x42E13, size: 0x8, addend: 0x0, symName: __ZNSt3__17variantIJidbNS_12basic_stringIcNS_11char_traitsIcEENS_9allocatorIcEEEEEEC2ERKS7_, symObjAddr: 0x11B40, symBinAddr: 0x100017768, symSize: 0x34 }
  - { offsetInCU: 0x3895D, offset: 0x42E47, size: 0x8, addend: 0x0, symName: __ZNSt3__116__variant_detail6__implIJidbNS_12basic_stringIcNS_11char_traitsIcEENS_9allocatorIcEEEEEEC1ERKS8_, symObjAddr: 0x11B74, symBinAddr: 0x10001779C, symSize: 0x34 }
  - { offsetInCU: 0x38991, offset: 0x42E7B, size: 0x8, addend: 0x0, symName: __ZNSt3__116__variant_detail6__implIJidbNS_12basic_stringIcNS_11char_traitsIcEENS_9allocatorIcEEEEEEC2ERKS8_, symObjAddr: 0x11BA8, symBinAddr: 0x1000177D0, symSize: 0x34 }
  - { offsetInCU: 0x389C5, offset: 0x42EAF, size: 0x8, addend: 0x0, symName: __ZNSt3__116__variant_detail17__copy_assignmentINS0_8__traitsIJidbNS_12basic_stringIcNS_11char_traitsIcEENS_9allocatorIcEEEEEEELNS0_6_TraitE1EEC2ERKSB_, symObjAddr: 0x11BDC, symBinAddr: 0x100017804, symSize: 0x34 }
  - { offsetInCU: 0x389F9, offset: 0x42EE3, size: 0x8, addend: 0x0, symName: __ZNSt3__116__variant_detail17__move_assignmentINS0_8__traitsIJidbNS_12basic_stringIcNS_11char_traitsIcEENS_9allocatorIcEEEEEEELNS0_6_TraitE1EEC2ERKSB_, symObjAddr: 0x11C10, symBinAddr: 0x100017838, symSize: 0x34 }
  - { offsetInCU: 0x38A37, offset: 0x42F21, size: 0x8, addend: 0x0, symName: __ZNSt3__116__variant_detail12__assignmentINS0_8__traitsIJidbNS_12basic_stringIcNS_11char_traitsIcEENS_9allocatorIcEEEEEEEEC2ERKSA_, symObjAddr: 0x11C44, symBinAddr: 0x10001786C, symSize: 0x34 }
  - { offsetInCU: 0x38A6C, offset: 0x42F56, size: 0x8, addend: 0x0, symName: __ZNSt3__116__variant_detail18__copy_constructorINS0_8__traitsIJidbNS_12basic_stringIcNS_11char_traitsIcEENS_9allocatorIcEEEEEEELNS0_6_TraitE1EEC2ERKSB_, symObjAddr: 0x11C78, symBinAddr: 0x1000178A0, symSize: 0x64 }
  - { offsetInCU: 0x38AA3, offset: 0x42F8D, size: 0x8, addend: 0x0, symName: __ZNSt3__116__variant_detail18__copy_constructorINS0_8__traitsIJidbNS_12basic_stringIcNS_11char_traitsIcEENS_9allocatorIcEEEEEEELNS0_6_TraitE1EECI2NS0_6__baseILSA_1EJidbS8_EEEENS0_13__valueless_tE, symObjAddr: 0x11CDC, symBinAddr: 0x100017904, symSize: 0x2C }
  - { offsetInCU: 0x38ADD, offset: 0x42FC7, size: 0x8, addend: 0x0, symName: __ZNSt3__116__variant_detail6__ctorINS0_8__traitsIJidbNS_12basic_stringIcNS_11char_traitsIcEENS_9allocatorIcEEEEEEEE19__generic_constructB7v160006IRKNS0_18__copy_constructorIS9_LNS0_6_TraitE1EEEEEvRSA_OT_, symObjAddr: 0x11D08, symBinAddr: 0x100017930, symSize: 0x68 }
  - { offsetInCU: 0x38BCD, offset: 0x430B7, size: 0x8, addend: 0x0, symName: __ZNSt3__116__variant_detail18__copy_constructorINS0_8__traitsIJidbNS_12basic_stringIcNS_11char_traitsIcEENS_9allocatorIcEEEEEEELNS0_6_TraitE1EED2Ev, symObjAddr: 0x11D70, symBinAddr: 0x100017998, symSize: 0x2C }
  - { offsetInCU: 0x38BF5, offset: 0x430DF, size: 0x8, addend: 0x0, symName: __ZNSt3__116__variant_detail18__move_constructorINS0_8__traitsIJidbNS_12basic_stringIcNS_11char_traitsIcEENS_9allocatorIcEEEEEEELNS0_6_TraitE1EECI2NS0_6__baseILSA_1EJidbS8_EEEENS0_13__valueless_tE, symObjAddr: 0x11D9C, symBinAddr: 0x1000179C4, symSize: 0x2C }
  - { offsetInCU: 0x38C2F, offset: 0x43119, size: 0x8, addend: 0x0, symName: __ZNSt3__116__variant_detail6__ctorINS0_8__traitsIJidbNS_12basic_stringIcNS_11char_traitsIcEENS_9allocatorIcEEEEEEEECI2NS0_6__baseILNS0_6_TraitE1EJidbS8_EEEENS0_13__valueless_tE, symObjAddr: 0x11DC8, symBinAddr: 0x1000179F0, symSize: 0x2C }
  - { offsetInCU: 0x38C64, offset: 0x4314E, size: 0x8, addend: 0x0, symName: __ZNSt3__116__variant_detail6__dtorINS0_8__traitsIJidbNS_12basic_stringIcNS_11char_traitsIcEENS_9allocatorIcEEEEEEELNS0_6_TraitE1EECI2NS0_6__baseILSA_1EJidbS8_EEEENS0_13__valueless_tE, symObjAddr: 0x11DF4, symBinAddr: 0x100017A1C, symSize: 0x2C }
  - { offsetInCU: 0x38C99, offset: 0x43183, size: 0x8, addend: 0x0, symName: __ZNSt3__116__variant_detail6__baseILNS0_6_TraitE1EJidbNS_12basic_stringIcNS_11char_traitsIcEENS_9allocatorIcEEEEEEC2B7v160006ENS0_13__valueless_tE, symObjAddr: 0x11E20, symBinAddr: 0x100017A48, symSize: 0x34 }
  - { offsetInCU: 0x38CD0, offset: 0x431BA, size: 0x8, addend: 0x0, symName: __ZNSt3__116__variant_detail7__unionILNS0_6_TraitE1ELm0EJidbNS_12basic_stringIcNS_11char_traitsIcEENS_9allocatorIcEEEEEEC1B7v160006ENS0_13__valueless_tE, symObjAddr: 0x11E54, symBinAddr: 0x100017A7C, symSize: 0x2C }
  - { offsetInCU: 0x38D04, offset: 0x431EE, size: 0x8, addend: 0x0, symName: __ZNSt3__116__variant_detail7__unionILNS0_6_TraitE1ELm0EJidbNS_12basic_stringIcNS_11char_traitsIcEENS_9allocatorIcEEEEEEC2B7v160006ENS0_13__valueless_tE, symObjAddr: 0x11E80, symBinAddr: 0x100017AA8, symSize: 0x18 }
  - { offsetInCU: 0x38D3E, offset: 0x43228, size: 0x8, addend: 0x0, symName: __ZNSt3__116__variant_detail12__visitation6__base14__visit_alt_atB7v160006IZNS0_6__ctorINS0_8__traitsIJidbNS_12basic_stringIcNS_11char_traitsIcEENS_9allocatorIcEEEEEEEE19__generic_constructB7v160006IRKNS0_18__copy_constructorISC_LNS0_6_TraitE1EEEEEvRSD_OT_EUlRSL_OT0_E_JSK_SJ_EEEDcmSM_DpOT0_, symObjAddr: 0x11E98, symBinAddr: 0x100017AC0, symSize: 0x84 }
  - { offsetInCU: 0x38DB8, offset: 0x432A2, size: 0x8, addend: 0x0, symName: __ZNSt3__116__variant_detail12__visitation6__base12__dispatcherIJLm0ELm0EEE10__dispatchB7v160006IOZNS0_6__ctorINS0_8__traitsIJidbNS_12basic_stringIcNS_11char_traitsIcEENS_9allocatorIcEEEEEEEE19__generic_constructB7v160006IRKNS0_18__copy_constructorISE_LNS0_6_TraitE1EEEEEvRSF_OT_EUlRSN_OT0_E_JRNS0_6__baseILSI_1EJidbSD_EEERKSV_EEEDcSN_DpT0_, symObjAddr: 0x11F1C, symBinAddr: 0x100017B44, symSize: 0x50 }
  - { offsetInCU: 0x38E14, offset: 0x432FE, size: 0x8, addend: 0x0, symName: __ZNSt3__116__variant_detail12__visitation6__base12__dispatcherIJLm1ELm1EEE10__dispatchB7v160006IOZNS0_6__ctorINS0_8__traitsIJidbNS_12basic_stringIcNS_11char_traitsIcEENS_9allocatorIcEEEEEEEE19__generic_constructB7v160006IRKNS0_18__copy_constructorISE_LNS0_6_TraitE1EEEEEvRSF_OT_EUlRSN_OT0_E_JRNS0_6__baseILSI_1EJidbSD_EEERKSV_EEEDcSN_DpT0_, symObjAddr: 0x11F6C, symBinAddr: 0x100017B94, symSize: 0x50 }
  - { offsetInCU: 0x38E70, offset: 0x4335A, size: 0x8, addend: 0x0, symName: __ZNSt3__116__variant_detail12__visitation6__base12__dispatcherIJLm2ELm2EEE10__dispatchB7v160006IOZNS0_6__ctorINS0_8__traitsIJidbNS_12basic_stringIcNS_11char_traitsIcEENS_9allocatorIcEEEEEEEE19__generic_constructB7v160006IRKNS0_18__copy_constructorISE_LNS0_6_TraitE1EEEEEvRSF_OT_EUlRSN_OT0_E_JRNS0_6__baseILSI_1EJidbSD_EEERKSV_EEEDcSN_DpT0_, symObjAddr: 0x11FBC, symBinAddr: 0x100017BE4, symSize: 0x50 }
  - { offsetInCU: 0x38ECC, offset: 0x433B6, size: 0x8, addend: 0x0, symName: __ZNSt3__116__variant_detail12__visitation6__base12__dispatcherIJLm3ELm3EEE10__dispatchB7v160006IOZNS0_6__ctorINS0_8__traitsIJidbNS_12basic_stringIcNS_11char_traitsIcEENS_9allocatorIcEEEEEEEE19__generic_constructB7v160006IRKNS0_18__copy_constructorISE_LNS0_6_TraitE1EEEEEvRSF_OT_EUlRSN_OT0_E_JRNS0_6__baseILSI_1EJidbSD_EEERKSV_EEEDcSN_DpT0_, symObjAddr: 0x1200C, symBinAddr: 0x100017C34, symSize: 0x50 }
  - { offsetInCU: 0x38F5E, offset: 0x43448, size: 0x8, addend: 0x0, symName: __ZNKSt3__18__farrayIPFvOZNS_16__variant_detail6__ctorINS1_8__traitsIJidbNS_12basic_stringIcNS_11char_traitsIcEENS_9allocatorIcEEEEEEEE19__generic_constructB7v160006IRKNS1_18__copy_constructorISA_LNS1_6_TraitE1EEEEEvRSB_OT_EUlRSJ_OT0_E_RNS1_6__baseILSE_1EJidbS9_EEERKSR_ELm4EEixB7v160006Em, symObjAddr: 0x1205C, symBinAddr: 0x100017C84, symSize: 0x20 }
  - { offsetInCU: 0x38F9C, offset: 0x43486, size: 0x8, addend: 0x0, symName: __ZZNSt3__116__variant_detail6__ctorINS0_8__traitsIJidbNS_12basic_stringIcNS_11char_traitsIcEENS_9allocatorIcEEEEEEEE19__generic_constructB7v160006IRKNS0_18__copy_constructorIS9_LNS0_6_TraitE1EEEEEvRSA_OT_ENKUlRSI_OT0_E_clINS0_5__altILm0EiEERKSQ_EEDaSK_SM_, symObjAddr: 0x120B0, symBinAddr: 0x100017CD8, symSize: 0x30 }
  - { offsetInCU: 0x38FF4, offset: 0x434DE, size: 0x8, addend: 0x0, symName: __ZZNSt3__116__variant_detail6__ctorINS0_8__traitsIJidbNS_12basic_stringIcNS_11char_traitsIcEENS_9allocatorIcEEEEEEEE19__generic_constructB7v160006IRKNS0_18__copy_constructorIS9_LNS0_6_TraitE1EEEEEvRSA_OT_ENKUlRSI_OT0_E_clINS0_5__altILm1EdEERKSQ_EEDaSK_SM_, symObjAddr: 0x12114, symBinAddr: 0x100017D3C, symSize: 0x30 }
  - { offsetInCU: 0x3904C, offset: 0x43536, size: 0x8, addend: 0x0, symName: __ZZNSt3__116__variant_detail6__ctorINS0_8__traitsIJidbNS_12basic_stringIcNS_11char_traitsIcEENS_9allocatorIcEEEEEEEE19__generic_constructB7v160006IRKNS0_18__copy_constructorIS9_LNS0_6_TraitE1EEEEEvRSA_OT_ENKUlRSI_OT0_E_clINS0_5__altILm2EbEERKSQ_EEDaSK_SM_, symObjAddr: 0x12178, symBinAddr: 0x100017DA0, symSize: 0x30 }
  - { offsetInCU: 0x390A4, offset: 0x4358E, size: 0x8, addend: 0x0, symName: __ZZNSt3__116__variant_detail6__ctorINS0_8__traitsIJidbNS_12basic_stringIcNS_11char_traitsIcEENS_9allocatorIcEEEEEEEE19__generic_constructB7v160006IRKNS0_18__copy_constructorIS9_LNS0_6_TraitE1EEEEEvRSA_OT_ENKUlRSI_OT0_E_clINS0_5__altILm3ES8_EERKSQ_EEDaSK_SM_, symObjAddr: 0x121DC, symBinAddr: 0x100017E04, symSize: 0x30 }
  - { offsetInCU: 0x390FC, offset: 0x435E6, size: 0x8, addend: 0x0, symName: __ZNSt3__116__variant_detail6__ctorINS0_8__traitsIJidbNS_12basic_stringIcNS_11char_traitsIcEENS_9allocatorIcEEEEEEEE15__construct_altB7v160006ILm3ES8_JRKS8_EEERT0_RNS0_5__altIXT_ESE_EEDpOT1_, symObjAddr: 0x1220C, symBinAddr: 0x100017E34, symSize: 0x30 }
  - { offsetInCU: 0x3914E, offset: 0x43638, size: 0x8, addend: 0x0, symName: __ZNSt3__116__variant_detail5__altILm3ENS_12basic_stringIcNS_11char_traitsIcEENS_9allocatorIcEEEEEC1B7v160006IJRKS7_EEENS_10in_place_tEDpOT_, symObjAddr: 0x1223C, symBinAddr: 0x100017E64, symSize: 0x34 }
  - { offsetInCU: 0x3919D, offset: 0x43687, size: 0x8, addend: 0x0, symName: __ZNSt3__116__variant_detail5__altILm3ENS_12basic_stringIcNS_11char_traitsIcEENS_9allocatorIcEEEEEC2B7v160006IJRKS7_EEENS_10in_place_tEDpOT_, symObjAddr: 0x12270, symBinAddr: 0x100017E98, symSize: 0x34 }
  - { offsetInCU: 0x391EC, offset: 0x436D6, size: 0x8, addend: 0x0, symName: __ZNSt3__116__variant_detail18__move_constructorINS0_8__traitsIJidbNS_12basic_stringIcNS_11char_traitsIcEENS_9allocatorIcEEEEEEELNS0_6_TraitE1EED2Ev, symObjAddr: 0x122A4, symBinAddr: 0x100017ECC, symSize: 0x2C }
  - { offsetInCU: 0x39214, offset: 0x436FE, size: 0x8, addend: 0x0, symName: __ZNSt3__116__variant_detail6__ctorINS0_8__traitsIJidbNS_12basic_stringIcNS_11char_traitsIcEENS_9allocatorIcEEEEEEEED2Ev, symObjAddr: 0x122D0, symBinAddr: 0x100017EF8, symSize: 0x2C }
  - { offsetInCU: 0x39240, offset: 0x4372A, size: 0x8, addend: 0x0, symName: __ZNSt3__116__variant_detail6__dtorINS0_8__traitsIJidbNS_12basic_stringIcNS_11char_traitsIcEENS_9allocatorIcEEEEEEELNS0_6_TraitE1EED2Ev, symObjAddr: 0x122FC, symBinAddr: 0x100017F24, symSize: 0x34 }
  - { offsetInCU: 0x39268, offset: 0x43752, size: 0x8, addend: 0x0, symName: __ZNSt3__116__variant_detail6__baseILNS0_6_TraitE1EJidbNS_12basic_stringIcNS_11char_traitsIcEENS_9allocatorIcEEEEEED2Ev, symObjAddr: 0x12330, symBinAddr: 0x100017F58, symSize: 0x2C }
  - { offsetInCU: 0x39294, offset: 0x4377E, size: 0x8, addend: 0x0, symName: __ZNSt3__116__variant_detail7__unionILNS0_6_TraitE1ELm0EJidbNS_12basic_stringIcNS_11char_traitsIcEENS_9allocatorIcEEEEEED1Ev, symObjAddr: 0x1235C, symBinAddr: 0x100017F84, symSize: 0x2C }
  - { offsetInCU: 0x392BC, offset: 0x437A6, size: 0x8, addend: 0x0, symName: __ZNSt3__116__variant_detail7__unionILNS0_6_TraitE1ELm0EJidbNS_12basic_stringIcNS_11char_traitsIcEENS_9allocatorIcEEEEEED2Ev, symObjAddr: 0x12388, symBinAddr: 0x100017FB0, symSize: 0x14 }
  - { offsetInCU: 0x392E5, offset: 0x437CF, size: 0x8, addend: 0x0, symName: __ZNSt3__128__exception_guard_exceptionsINS_29_AllocatorDestroyRangeReverseINS_9allocatorINS_7variantIJidbNS_12basic_stringIcNS_11char_traitsIcEENS2_IcEEEEEEEEEPS9_EEED2B7v160006Ev, symObjAddr: 0x1239C, symBinAddr: 0x100017FC4, symSize: 0x50 }
  - { offsetInCU: 0x3930D, offset: 0x437F7, size: 0x8, addend: 0x0, symName: __ZNKSt3__129_AllocatorDestroyRangeReverseINS_9allocatorINS_7variantIJidbNS_12basic_stringIcNS_11char_traitsIcEENS1_IcEEEEEEEEEPS8_EclB7v160006Ev, symObjAddr: 0x123EC, symBinAddr: 0x100018014, symSize: 0x68 }
  - { offsetInCU: 0x39332, offset: 0x4381C, size: 0x8, addend: 0x0, symName: __ZNSt3__116reverse_iteratorIPNS_7variantIJidbNS_12basic_stringIcNS_11char_traitsIcEENS_9allocatorIcEEEEEEEEC1B7v160006ES9_, symObjAddr: 0x124C4, symBinAddr: 0x1000180EC, symSize: 0x34 }
  - { offsetInCU: 0x39368, offset: 0x43852, size: 0x8, addend: 0x0, symName: __ZNSt3__116allocator_traitsINS_9allocatorINS_7variantIJidbNS_12basic_stringIcNS_11char_traitsIcEENS1_IcEEEEEEEEEE7destroyB7v160006IS8_vEEvRS9_PT_, symObjAddr: 0x12540, symBinAddr: 0x100018168, symSize: 0x2C }
  - { offsetInCU: 0x393A6, offset: 0x43890, size: 0x8, addend: 0x0, symName: __ZNSt3__116reverse_iteratorIPNS_7variantIJidbNS_12basic_stringIcNS_11char_traitsIcEENS_9allocatorIcEEEEEEEEppB7v160006Ev, symObjAddr: 0x12590, symBinAddr: 0x1000181B8, symSize: 0x20 }
  - { offsetInCU: 0x393CB, offset: 0x438B5, size: 0x8, addend: 0x0, symName: __ZNKSt3__116reverse_iteratorIPNS_7variantIJidbNS_12basic_stringIcNS_11char_traitsIcEENS_9allocatorIcEEEEEEEE4baseB7v160006Ev, symObjAddr: 0x125B0, symBinAddr: 0x1000181D8, symSize: 0x18 }
  - { offsetInCU: 0x393F0, offset: 0x438DA, size: 0x8, addend: 0x0, symName: __ZNSt3__19allocatorINS_7variantIJidbNS_12basic_stringIcNS_11char_traitsIcEENS0_IcEEEEEEEE7destroyB7v160006EPS7_, symObjAddr: 0x125C8, symBinAddr: 0x1000181F0, symSize: 0x28 }
  - { offsetInCU: 0x39423, offset: 0x4390D, size: 0x8, addend: 0x0, symName: __ZNSt3__17variantIJidbNS_12basic_stringIcNS_11char_traitsIcEENS_9allocatorIcEEEEEED1Ev, symObjAddr: 0x125F0, symBinAddr: 0x100018218, symSize: 0x2C }
  - { offsetInCU: 0x3944B, offset: 0x43935, size: 0x8, addend: 0x0, symName: __ZNSt3__17variantIJidbNS_12basic_stringIcNS_11char_traitsIcEENS_9allocatorIcEEEEEED2Ev, symObjAddr: 0x1261C, symBinAddr: 0x100018244, symSize: 0x2C }
  - { offsetInCU: 0x39473, offset: 0x4395D, size: 0x8, addend: 0x0, symName: __ZNSt3__116__variant_detail6__implIJidbNS_12basic_stringIcNS_11char_traitsIcEENS_9allocatorIcEEEEEED1Ev, symObjAddr: 0x12648, symBinAddr: 0x100018270, symSize: 0x2C }
  - { offsetInCU: 0x3949F, offset: 0x43989, size: 0x8, addend: 0x0, symName: __ZNSt3__116__variant_detail6__implIJidbNS_12basic_stringIcNS_11char_traitsIcEENS_9allocatorIcEEEEEED2Ev, symObjAddr: 0x12674, symBinAddr: 0x10001829C, symSize: 0x2C }
  - { offsetInCU: 0x394CB, offset: 0x439B5, size: 0x8, addend: 0x0, symName: __ZNSt3__116__variant_detail17__copy_assignmentINS0_8__traitsIJidbNS_12basic_stringIcNS_11char_traitsIcEENS_9allocatorIcEEEEEEELNS0_6_TraitE1EED2Ev, symObjAddr: 0x126A0, symBinAddr: 0x1000182C8, symSize: 0x2C }
  - { offsetInCU: 0x394F3, offset: 0x439DD, size: 0x8, addend: 0x0, symName: __ZNSt3__116__variant_detail17__move_assignmentINS0_8__traitsIJidbNS_12basic_stringIcNS_11char_traitsIcEENS_9allocatorIcEEEEEEELNS0_6_TraitE1EED2Ev, symObjAddr: 0x126CC, symBinAddr: 0x1000182F4, symSize: 0x2C }
  - { offsetInCU: 0x3951B, offset: 0x43A05, size: 0x8, addend: 0x0, symName: __ZNSt3__116__variant_detail12__assignmentINS0_8__traitsIJidbNS_12basic_stringIcNS_11char_traitsIcEENS_9allocatorIcEEEEEEEED2Ev, symObjAddr: 0x126F8, symBinAddr: 0x100018320, symSize: 0x2C }
  - { offsetInCU: 0x3954C, offset: 0x43A36, size: 0x8, addend: 0x0, symName: __ZNSt3__119__to_address_helperINS_16reverse_iteratorIPNS_7variantIJidbNS_12basic_stringIcNS_11char_traitsIcEENS_9allocatorIcEEEEEEEEEvE6__callB7v160006ERKSB_, symObjAddr: 0x12724, symBinAddr: 0x10001834C, symSize: 0x38 }
  - { offsetInCU: 0x3956F, offset: 0x43A59, size: 0x8, addend: 0x0, symName: __ZNKSt3__116reverse_iteratorIPNS_7variantIJidbNS_12basic_stringIcNS_11char_traitsIcEENS_9allocatorIcEEEEEEEEptB7v160006Ev, symObjAddr: 0x1275C, symBinAddr: 0x100018384, symSize: 0x24 }
  - { offsetInCU: 0x39594, offset: 0x43A7E, size: 0x8, addend: 0x0, symName: __ZNKSt3__116reverse_iteratorIPNS_7variantIJidbNS_12basic_stringIcNS_11char_traitsIcEENS_9allocatorIcEEEEEEEEdeB7v160006Ev, symObjAddr: 0x12780, symBinAddr: 0x1000183A8, symSize: 0x28 }
  - { offsetInCU: 0x395C7, offset: 0x43AB1, size: 0x8, addend: 0x0, symName: __ZNSt3__116reverse_iteratorIPNS_7variantIJidbNS_12basic_stringIcNS_11char_traitsIcEENS_9allocatorIcEEEEEEEEC2B7v160006ES9_, symObjAddr: 0x127A8, symBinAddr: 0x1000183D0, symSize: 0x28 }
  - { offsetInCU: 0x395FE, offset: 0x43AE8, size: 0x8, addend: 0x0, symName: __ZNSt3__117__compressed_pairIPNS_7variantIJidbNS_12basic_stringIcNS_11char_traitsIcEENS_9allocatorIcEEEEEEENS5_IS8_EEE6secondB7v160006Ev, symObjAddr: 0x127D0, symBinAddr: 0x1000183F8, symSize: 0x24 }
  - { offsetInCU: 0x39623, offset: 0x43B0D, size: 0x8, addend: 0x0, symName: __ZNSt3__122__compressed_pair_elemINS_9allocatorINS_7variantIJidbNS_12basic_stringIcNS_11char_traitsIcEENS1_IcEEEEEEEEELi1ELb1EE5__getB7v160006Ev, symObjAddr: 0x127F4, symBinAddr: 0x10001841C, symSize: 0x14 }
  - { offsetInCU: 0x39648, offset: 0x43B32, size: 0x8, addend: 0x0, symName: __ZNSt3__16vectorINS_7variantIJidbNS_12basic_stringIcNS_11char_traitsIcEENS_9allocatorIcEEEEEEENS5_IS8_EEE21_ConstructTransactionD2B7v160006Ev, symObjAddr: 0x12808, symBinAddr: 0x100018430, symSize: 0x20 }
  - { offsetInCU: 0x39671, offset: 0x43B5B, size: 0x8, addend: 0x0, symName: __ZNSt3__16vectorINS_7variantIJidbNS_12basic_stringIcNS_11char_traitsIcEENS_9allocatorIcEEEEEEENS5_IS8_EEE27__invalidate_iterators_pastB7v160006EPS8_, symObjAddr: 0x12828, symBinAddr: 0x100018450, symSize: 0x14 }
  - { offsetInCU: 0x396A7, offset: 0x43B91, size: 0x8, addend: 0x0, symName: __ZNSt3__16vectorINS_7variantIJidbNS_12basic_stringIcNS_11char_traitsIcEENS_9allocatorIcEEEEEEENS5_IS8_EEE22__base_destruct_at_endB7v160006EPS8_, symObjAddr: 0x1283C, symBinAddr: 0x100018464, symSize: 0x8C }
  - { offsetInCU: 0x396EA, offset: 0x43BD4, size: 0x8, addend: 0x0, symName: __ZNKSt3__16vectorINS_7variantIJidbNS_12basic_stringIcNS_11char_traitsIcEENS_9allocatorIcEEEEEEENS5_IS8_EEE17__annotate_shrinkB7v160006Em, symObjAddr: 0x128C8, symBinAddr: 0x1000184F0, symSize: 0xB4 }
  - { offsetInCU: 0x3971E, offset: 0x43C08, size: 0x8, addend: 0x0, symName: __ZNKSt3__16vectorINS_7variantIJidbNS_12basic_stringIcNS_11char_traitsIcEENS_9allocatorIcEEEEEEENS5_IS8_EEE31__annotate_contiguous_containerB7v160006EPKvSC_SC_SC_, symObjAddr: 0x1297C, symBinAddr: 0x1000185A4, symSize: 0x20 }
  - { offsetInCU: 0x39773, offset: 0x43C5D, size: 0x8, addend: 0x0, symName: __ZNKSt3__16vectorINS_7variantIJidbNS_12basic_stringIcNS_11char_traitsIcEENS_9allocatorIcEEEEEEENS5_IS8_EEE4dataB7v160006Ev, symObjAddr: 0x1299C, symBinAddr: 0x1000185C4, symSize: 0x28 }
  - { offsetInCU: 0x39798, offset: 0x43C82, size: 0x8, addend: 0x0, symName: __ZNSt3__16vectorINS_7variantIJidbNS_12basic_stringIcNS_11char_traitsIcEENS_9allocatorIcEEEEEEENS5_IS8_EEE5clearB7v160006Ev, symObjAddr: 0x129C4, symBinAddr: 0x1000185EC, symSize: 0x54 }
  - { offsetInCU: 0x397CC, offset: 0x43CB6, size: 0x8, addend: 0x0, symName: __ZNSt3__116allocator_traitsINS_9allocatorINS_7variantIJidbNS_12basic_stringIcNS_11char_traitsIcEENS1_IcEEEEEEEEEE10deallocateB7v160006ERS9_PS8_m, symObjAddr: 0x12A18, symBinAddr: 0x100018640, symSize: 0x34 }
  - { offsetInCU: 0x3980E, offset: 0x43CF8, size: 0x8, addend: 0x0, symName: __ZNSt3__16vectorINS_7variantIJidbNS_12basic_stringIcNS_11char_traitsIcEENS_9allocatorIcEEEEEEENS5_IS8_EEE9__end_capB7v160006Ev, symObjAddr: 0x12A4C, symBinAddr: 0x100018674, symSize: 0x28 }
  - { offsetInCU: 0x39833, offset: 0x43D1D, size: 0x8, addend: 0x0, symName: __ZNSt3__16vectorINS_7variantIJidbNS_12basic_stringIcNS_11char_traitsIcEENS_9allocatorIcEEEEEEENS5_IS8_EEE7__clearB7v160006Ev, symObjAddr: 0x12A74, symBinAddr: 0x10001869C, symSize: 0x28 }
  - { offsetInCU: 0x39858, offset: 0x43D42, size: 0x8, addend: 0x0, symName: __ZNSt3__19allocatorINS_7variantIJidbNS_12basic_stringIcNS_11char_traitsIcEENS0_IcEEEEEEEE10deallocateB7v160006EPS7_m, symObjAddr: 0x12A9C, symBinAddr: 0x1000186C4, symSize: 0x40 }
  - { offsetInCU: 0x39899, offset: 0x43D83, size: 0x8, addend: 0x0, symName: __ZNSt3__117__compressed_pairIPNS_7variantIJidbNS_12basic_stringIcNS_11char_traitsIcEENS_9allocatorIcEEEEEEENS5_IS8_EEE5firstB7v160006Ev, symObjAddr: 0x12ADC, symBinAddr: 0x100018704, symSize: 0x24 }
  - { offsetInCU: 0x398BE, offset: 0x43DA8, size: 0x8, addend: 0x0, symName: __ZNSt3__122__compressed_pair_elemIPNS_7variantIJidbNS_12basic_stringIcNS_11char_traitsIcEENS_9allocatorIcEEEEEEELi0ELb0EE5__getB7v160006Ev, symObjAddr: 0x12B00, symBinAddr: 0x100018728, symSize: 0x14 }
  - { offsetInCU: 0x398E3, offset: 0x43DCD, size: 0x8, addend: 0x0, symName: __ZNKSt3__16vectorINS_7variantIJidbNS_12basic_stringIcNS_11char_traitsIcEENS_9allocatorIcEEEEEEENS5_IS8_EEE8max_sizeEv, symObjAddr: 0x12B14, symBinAddr: 0x10001873C, symSize: 0x60 }
  - { offsetInCU: 0x3990A, offset: 0x43DF4, size: 0x8, addend: 0x0, symName: __ZNKSt3__16vectorINS_7variantIJidbNS_12basic_stringIcNS_11char_traitsIcEENS_9allocatorIcEEEEEEENS5_IS8_EEE20__throw_length_errorB7v160006Ev, symObjAddr: 0x12B74, symBinAddr: 0x10001879C, symSize: 0x1C }
  - { offsetInCU: 0x3992F, offset: 0x43E19, size: 0x8, addend: 0x0, symName: __ZNKSt3__16vectorINS_7variantIJidbNS_12basic_stringIcNS_11char_traitsIcEENS_9allocatorIcEEEEEEENS5_IS8_EEE14__annotate_newB7v160006Em, symObjAddr: 0x12BD0, symBinAddr: 0x1000187F8, symSize: 0xAC }
  - { offsetInCU: 0x3996D, offset: 0x43E57, size: 0x8, addend: 0x0, symName: __ZNSt3__116allocator_traitsINS_9allocatorINS_7variantIJidbNS_12basic_stringIcNS_11char_traitsIcEENS1_IcEEEEEEEEEE8max_sizeB7v160006IS9_vEEmRKS9_, symObjAddr: 0x12C7C, symBinAddr: 0x1000188A4, symSize: 0x24 }
  - { offsetInCU: 0x3999C, offset: 0x43E86, size: 0x8, addend: 0x0, symName: __ZNKSt3__16vectorINS_7variantIJidbNS_12basic_stringIcNS_11char_traitsIcEENS_9allocatorIcEEEEEEENS5_IS8_EEE7__allocB7v160006Ev, symObjAddr: 0x12CA0, symBinAddr: 0x1000188C8, symSize: 0x28 }
  - { offsetInCU: 0x399C1, offset: 0x43EAB, size: 0x8, addend: 0x0, symName: __ZNKSt3__19allocatorINS_7variantIJidbNS_12basic_stringIcNS_11char_traitsIcEENS0_IcEEEEEEEE8max_sizeB7v160006Ev, symObjAddr: 0x12CC8, symBinAddr: 0x1000188F0, symSize: 0x14 }
  - { offsetInCU: 0x399E6, offset: 0x43ED0, size: 0x8, addend: 0x0, symName: __ZNKSt3__117__compressed_pairIPNS_7variantIJidbNS_12basic_stringIcNS_11char_traitsIcEENS_9allocatorIcEEEEEEENS5_IS8_EEE6secondB7v160006Ev, symObjAddr: 0x12CDC, symBinAddr: 0x100018904, symSize: 0x24 }
  - { offsetInCU: 0x39A0B, offset: 0x43EF5, size: 0x8, addend: 0x0, symName: __ZNKSt3__122__compressed_pair_elemINS_9allocatorINS_7variantIJidbNS_12basic_stringIcNS_11char_traitsIcEENS1_IcEEEEEEEEELi1ELb1EE5__getB7v160006Ev, symObjAddr: 0x12D00, symBinAddr: 0x100018928, symSize: 0x14 }
  - { offsetInCU: 0x39A30, offset: 0x43F1A, size: 0x8, addend: 0x0, symName: __ZNSt3__19allocatorINS_7variantIJidbNS_12basic_stringIcNS_11char_traitsIcEENS0_IcEEEEEEEE8allocateB7v160006Em, symObjAddr: 0x12D14, symBinAddr: 0x10001893C, symSize: 0x58 }
  - { offsetInCU: 0x39A63, offset: 0x43F4D, size: 0x8, addend: 0x0, symName: __ZNSt3__118__unwrap_iter_implIPNS_6vectorINS_7variantIJidbNS_12basic_stringIcNS_11char_traitsIcEENS_9allocatorIcEEEEEEENS6_IS9_EEEELb1EE8__unwrapB7v160006ESC_, symObjAddr: 0x12D6C, symBinAddr: 0x100018994, symSize: 0x24 }
  - { offsetInCU: 0x39A8B, offset: 0x43F75, size: 0x8, addend: 0x0, symName: __ZNSt3__14pairIPNS_6vectorINS_7variantIJidbNS_12basic_stringIcNS_11char_traitsIcEENS_9allocatorIcEEEEEEENS6_IS9_EEEESC_EC1B7v160006ISC_SC_LPv0EEEOT_OT0_, symObjAddr: 0x12DA4, symBinAddr: 0x1000189CC, symSize: 0x3C }
  - { offsetInCU: 0x39AE7, offset: 0x43FD1, size: 0x8, addend: 0x0, symName: __ZNSt3__14pairIPNS_6vectorINS_7variantIJidbNS_12basic_stringIcNS_11char_traitsIcEENS_9allocatorIcEEEEEEENS6_IS9_EEEESC_EC2B7v160006ISC_SC_LPv0EEEOT_OT0_, symObjAddr: 0x12DE0, symBinAddr: 0x100018A08, symSize: 0x34 }
  - { offsetInCU: 0x39B44, offset: 0x4402E, size: 0x8, addend: 0x0, symName: __ZNSt3__118__unwrap_iter_implIPNS_6vectorINS_7variantIJidbNS_12basic_stringIcNS_11char_traitsIcEENS_9allocatorIcEEEEEEENS6_IS9_EEEELb1EE8__rewrapB7v160006ESC_SC_, symObjAddr: 0x12E14, symBinAddr: 0x100018A3C, symSize: 0x58 }
  - { offsetInCU: 0x39B8E, offset: 0x44078, size: 0x8, addend: 0x0, symName: __ZNSt3__16vectorINS0_INS_7variantIJidbNS_12basic_stringIcNS_11char_traitsIcEENS_9allocatorIcEEEEEEENS5_IS8_EEEENS5_ISA_EEE21_ConstructTransactionC1B7v160006ERSC_m, symObjAddr: 0x12E6C, symBinAddr: 0x100018A94, symSize: 0x3C }
  - { offsetInCU: 0x39BD4, offset: 0x440BE, size: 0x8, addend: 0x0, symName: __ZNSt3__16vectorINS0_INS_7variantIJidbNS_12basic_stringIcNS_11char_traitsIcEENS_9allocatorIcEEEEEEENS5_IS8_EEEENS5_ISA_EEE7__allocB7v160006Ev, symObjAddr: 0x12F9C, symBinAddr: 0x100018BC4, symSize: 0x28 }
  - { offsetInCU: 0x39BF9, offset: 0x440E3, size: 0x8, addend: 0x0, symName: __ZNSt3__16vectorINS0_INS_7variantIJidbNS_12basic_stringIcNS_11char_traitsIcEENS_9allocatorIcEEEEEEENS5_IS8_EEEENS5_ISA_EEE21_ConstructTransactionD1B7v160006Ev, symObjAddr: 0x12FC4, symBinAddr: 0x100018BEC, symSize: 0x2C }
  - { offsetInCU: 0x39C21, offset: 0x4410B, size: 0x8, addend: 0x0, symName: __ZNSt3__16vectorINS0_INS_7variantIJidbNS_12basic_stringIcNS_11char_traitsIcEENS_9allocatorIcEEEEEEENS5_IS8_EEEENS5_ISA_EEE21_ConstructTransactionC2B7v160006ERSC_m, symObjAddr: 0x12FF0, symBinAddr: 0x100018C18, symSize: 0x4C }
  - { offsetInCU: 0x39C68, offset: 0x44152, size: 0x8, addend: 0x0, symName: __ZNSt3__129_AllocatorDestroyRangeReverseINS_9allocatorINS_6vectorINS_7variantIJidbNS_12basic_stringIcNS_11char_traitsIcEENS1_IcEEEEEEENS1_IS9_EEEEEEPSB_EC1B7v160006ERSC_RSD_SG_, symObjAddr: 0x13088, symBinAddr: 0x100018CB0, symSize: 0x44 }
  - { offsetInCU: 0x39CBD, offset: 0x441A7, size: 0x8, addend: 0x0, symName: __ZNSt3__116allocator_traitsINS_9allocatorINS_6vectorINS_7variantIJidbNS_12basic_stringIcNS_11char_traitsIcEENS1_IcEEEEEEENS1_IS9_EEEEEEE9constructB7v160006ISB_JRSB_EvEEvRSC_PT_DpOT0_, symObjAddr: 0x130CC, symBinAddr: 0x100018CF4, symSize: 0x34 }
  - { offsetInCU: 0x39D16, offset: 0x44200, size: 0x8, addend: 0x0, symName: __ZNSt3__128__exception_guard_exceptionsINS_29_AllocatorDestroyRangeReverseINS_9allocatorINS_6vectorINS_7variantIJidbNS_12basic_stringIcNS_11char_traitsIcEENS2_IcEEEEEEENS2_ISA_EEEEEEPSC_EEE10__completeB7v160006Ev, symObjAddr: 0x13100, symBinAddr: 0x100018D28, symSize: 0x1C }
  - { offsetInCU: 0x39D3B, offset: 0x44225, size: 0x8, addend: 0x0, symName: __ZNSt3__128__exception_guard_exceptionsINS_29_AllocatorDestroyRangeReverseINS_9allocatorINS_6vectorINS_7variantIJidbNS_12basic_stringIcNS_11char_traitsIcEENS2_IcEEEEEEENS2_ISA_EEEEEEPSC_EEED1B7v160006Ev, symObjAddr: 0x1311C, symBinAddr: 0x100018D44, symSize: 0x2C }
  - { offsetInCU: 0x39D63, offset: 0x4424D, size: 0x8, addend: 0x0, symName: __ZNSt3__128__exception_guard_exceptionsINS_29_AllocatorDestroyRangeReverseINS_9allocatorINS_6vectorINS_7variantIJidbNS_12basic_stringIcNS_11char_traitsIcEENS2_IcEEEEEEENS2_ISA_EEEEEEPSC_EEEC1B7v160006ESF_, symObjAddr: 0x13148, symBinAddr: 0x100018D70, symSize: 0x34 }
  - { offsetInCU: 0x39D9A, offset: 0x44284, size: 0x8, addend: 0x0, symName: __ZNSt3__128__exception_guard_exceptionsINS_29_AllocatorDestroyRangeReverseINS_9allocatorINS_6vectorINS_7variantIJidbNS_12basic_stringIcNS_11char_traitsIcEENS2_IcEEEEEEENS2_ISA_EEEEEEPSC_EEEC2B7v160006ESF_, symObjAddr: 0x1317C, symBinAddr: 0x100018DA4, symSize: 0x30 }
  - { offsetInCU: 0x39DD2, offset: 0x442BC, size: 0x8, addend: 0x0, symName: __ZNSt3__129_AllocatorDestroyRangeReverseINS_9allocatorINS_6vectorINS_7variantIJidbNS_12basic_stringIcNS_11char_traitsIcEENS1_IcEEEEEEENS1_IS9_EEEEEEPSB_EC2B7v160006ERSC_RSD_SG_, symObjAddr: 0x131AC, symBinAddr: 0x100018DD4, symSize: 0x38 }
  - { offsetInCU: 0x39E28, offset: 0x44312, size: 0x8, addend: 0x0, symName: __ZNSt3__19allocatorINS_6vectorINS_7variantIJidbNS_12basic_stringIcNS_11char_traitsIcEENS0_IcEEEEEEENS0_IS8_EEEEE9constructB7v160006ISA_JRSA_EEEvPT_DpOT0_, symObjAddr: 0x131E4, symBinAddr: 0x100018E0C, symSize: 0x30 }
  - { offsetInCU: 0x39E7E, offset: 0x44368, size: 0x8, addend: 0x0, symName: __ZNSt3__16vectorINS_7variantIJidbNS_12basic_stringIcNS_11char_traitsIcEENS_9allocatorIcEEEEEEENS5_IS8_EEEC1ERKSA_, symObjAddr: 0x13214, symBinAddr: 0x100018E3C, symSize: 0x34 }
  - { offsetInCU: 0x39EB8, offset: 0x443A2, size: 0x8, addend: 0x0, symName: __ZNSt3__16vectorINS_7variantIJidbNS_12basic_stringIcNS_11char_traitsIcEENS_9allocatorIcEEEEEEENS5_IS8_EEEC2ERKSA_, symObjAddr: 0x13248, symBinAddr: 0x100018E70, symSize: 0x114 }
  - { offsetInCU: 0x39F16, offset: 0x44400, size: 0x8, addend: 0x0, symName: __ZNSt3__116allocator_traitsINS_9allocatorINS_7variantIJidbNS_12basic_stringIcNS_11char_traitsIcEENS1_IcEEEEEEEEEE37select_on_container_copy_constructionB7v160006IS9_vvEES9_RKS9_, symObjAddr: 0x1335C, symBinAddr: 0x100018F84, symSize: 0x10 }
  - { offsetInCU: 0x39F4C, offset: 0x44436, size: 0x8, addend: 0x0, symName: __ZNSt3__117__compressed_pairIPNS_7variantIJidbNS_12basic_stringIcNS_11char_traitsIcEENS_9allocatorIcEEEEEEENS5_IS8_EEEC1B7v160006IDnSA_EEOT_OT0_, symObjAddr: 0x1336C, symBinAddr: 0x100018F94, symSize: 0x3C }
  - { offsetInCU: 0x39FA2, offset: 0x4448C, size: 0x8, addend: 0x0, symName: __ZNSt3__16vectorINS_7variantIJidbNS_12basic_stringIcNS_11char_traitsIcEENS_9allocatorIcEEEEEEENS5_IS8_EEE16__destroy_vectorC1ERSA_, symObjAddr: 0x133E8, symBinAddr: 0x100019010, symSize: 0x34 }
  - { offsetInCU: 0x39FD9, offset: 0x444C3, size: 0x8, addend: 0x0, symName: __ZNSt3__128__exception_guard_exceptionsINS_6vectorINS_7variantIJidbNS_12basic_stringIcNS_11char_traitsIcEENS_9allocatorIcEEEEEEENS6_IS9_EEE16__destroy_vectorEE10__completeB7v160006Ev, symObjAddr: 0x1342C, symBinAddr: 0x100019054, symSize: 0x1C }
  - { offsetInCU: 0x39FFE, offset: 0x444E8, size: 0x8, addend: 0x0, symName: __ZNSt3__128__exception_guard_exceptionsINS_6vectorINS_7variantIJidbNS_12basic_stringIcNS_11char_traitsIcEENS_9allocatorIcEEEEEEENS6_IS9_EEE16__destroy_vectorEED1B7v160006Ev, symObjAddr: 0x13448, symBinAddr: 0x100019070, symSize: 0x2C }
  - { offsetInCU: 0x3A026, offset: 0x44510, size: 0x8, addend: 0x0, symName: __ZNSt3__117__compressed_pairIPNS_7variantIJidbNS_12basic_stringIcNS_11char_traitsIcEENS_9allocatorIcEEEEEEENS5_IS8_EEEC2B7v160006IDnSA_EEOT_OT0_, symObjAddr: 0x13474, symBinAddr: 0x10001909C, symSize: 0x44 }
  - { offsetInCU: 0x3A07C, offset: 0x44566, size: 0x8, addend: 0x0, symName: __ZNSt3__122__compressed_pair_elemIPNS_7variantIJidbNS_12basic_stringIcNS_11char_traitsIcEENS_9allocatorIcEEEEEEELi0ELb0EEC2B7v160006IDnvEEOT_, symObjAddr: 0x134B8, symBinAddr: 0x1000190E0, symSize: 0x1C }
  - { offsetInCU: 0x3A0BE, offset: 0x445A8, size: 0x8, addend: 0x0, symName: __ZNSt3__122__compressed_pair_elemINS_9allocatorINS_7variantIJidbNS_12basic_stringIcNS_11char_traitsIcEENS1_IcEEEEEEEEELi1ELb1EEC2B7v160006IS9_vEEOT_, symObjAddr: 0x134D4, symBinAddr: 0x1000190FC, symSize: 0x18 }
  - { offsetInCU: 0x3A100, offset: 0x445EA, size: 0x8, addend: 0x0, symName: __ZNSt3__128__exception_guard_exceptionsINS_6vectorINS_7variantIJidbNS_12basic_stringIcNS_11char_traitsIcEENS_9allocatorIcEEEEEEENS6_IS9_EEE16__destroy_vectorEEC1B7v160006ESC_, symObjAddr: 0x134EC, symBinAddr: 0x100019114, symSize: 0x34 }
  - { offsetInCU: 0x3A136, offset: 0x44620, size: 0x8, addend: 0x0, symName: __ZNSt3__128__exception_guard_exceptionsINS_6vectorINS_7variantIJidbNS_12basic_stringIcNS_11char_traitsIcEENS_9allocatorIcEEEEEEENS6_IS9_EEE16__destroy_vectorEEC2B7v160006ESC_, symObjAddr: 0x13520, symBinAddr: 0x100019148, symSize: 0x24 }
  - { offsetInCU: 0x3A16D, offset: 0x44657, size: 0x8, addend: 0x0, symName: __ZNSt3__16vectorINS_7variantIJidbNS_12basic_stringIcNS_11char_traitsIcEENS_9allocatorIcEEEEEEENS5_IS8_EEE16__destroy_vectorC2ERSA_, symObjAddr: 0x13544, symBinAddr: 0x10001916C, symSize: 0x20 }
  - { offsetInCU: 0x3A1A5, offset: 0x4468F, size: 0x8, addend: 0x0, symName: __ZNSt3__128__exception_guard_exceptionsINS_6vectorINS_7variantIJidbNS_12basic_stringIcNS_11char_traitsIcEENS_9allocatorIcEEEEEEENS6_IS9_EEE16__destroy_vectorEED2B7v160006Ev, symObjAddr: 0x13564, symBinAddr: 0x10001918C, symSize: 0x50 }
  - { offsetInCU: 0x3A1CD, offset: 0x446B7, size: 0x8, addend: 0x0, symName: __ZNSt3__16vectorINS_7variantIJidbNS_12basic_stringIcNS_11char_traitsIcEENS_9allocatorIcEEEEEEENS5_IS8_EEE16__destroy_vectorclB7v160006Ev, symObjAddr: 0x135B4, symBinAddr: 0x1000191DC, symSize: 0x9C }
  - { offsetInCU: 0x3A1F2, offset: 0x446DC, size: 0x8, addend: 0x0, symName: __ZNKSt3__16vectorINS_7variantIJidbNS_12basic_stringIcNS_11char_traitsIcEENS_9allocatorIcEEEEEEENS5_IS8_EEE17__annotate_deleteB7v160006Ev, symObjAddr: 0x13650, symBinAddr: 0x100019278, symSize: 0xB8 }
  - { offsetInCU: 0x3A217, offset: 0x44701, size: 0x8, addend: 0x0, symName: __ZNSt3__128__exception_guard_exceptionsINS_29_AllocatorDestroyRangeReverseINS_9allocatorINS_6vectorINS_7variantIJidbNS_12basic_stringIcNS_11char_traitsIcEENS2_IcEEEEEEENS2_ISA_EEEEEEPSC_EEED2B7v160006Ev, symObjAddr: 0x13718, symBinAddr: 0x100019340, symSize: 0x50 }
  - { offsetInCU: 0x3A23F, offset: 0x44729, size: 0x8, addend: 0x0, symName: __ZNKSt3__129_AllocatorDestroyRangeReverseINS_9allocatorINS_6vectorINS_7variantIJidbNS_12basic_stringIcNS_11char_traitsIcEENS1_IcEEEEEEENS1_IS9_EEEEEEPSB_EclB7v160006Ev, symObjAddr: 0x13768, symBinAddr: 0x100019390, symSize: 0x68 }
  - { offsetInCU: 0x3A264, offset: 0x4474E, size: 0x8, addend: 0x0, symName: __ZNSt3__116reverse_iteratorIPNS_6vectorINS_7variantIJidbNS_12basic_stringIcNS_11char_traitsIcEENS_9allocatorIcEEEEEEENS6_IS9_EEEEEC1B7v160006ESC_, symObjAddr: 0x13840, symBinAddr: 0x100019468, symSize: 0x34 }
  - { offsetInCU: 0x3A29A, offset: 0x44784, size: 0x8, addend: 0x0, symName: __ZNSt3__116allocator_traitsINS_9allocatorINS_6vectorINS_7variantIJidbNS_12basic_stringIcNS_11char_traitsIcEENS1_IcEEEEEEENS1_IS9_EEEEEEE7destroyB7v160006ISB_vEEvRSC_PT_, symObjAddr: 0x138BC, symBinAddr: 0x1000194E4, symSize: 0x2C }
  - { offsetInCU: 0x3A2D8, offset: 0x447C2, size: 0x8, addend: 0x0, symName: __ZNSt3__116reverse_iteratorIPNS_6vectorINS_7variantIJidbNS_12basic_stringIcNS_11char_traitsIcEENS_9allocatorIcEEEEEEENS6_IS9_EEEEEppB7v160006Ev, symObjAddr: 0x1390C, symBinAddr: 0x100019534, symSize: 0x20 }
  - { offsetInCU: 0x3A2FD, offset: 0x447E7, size: 0x8, addend: 0x0, symName: __ZNKSt3__116reverse_iteratorIPNS_6vectorINS_7variantIJidbNS_12basic_stringIcNS_11char_traitsIcEENS_9allocatorIcEEEEEEENS6_IS9_EEEEE4baseB7v160006Ev, symObjAddr: 0x1392C, symBinAddr: 0x100019554, symSize: 0x18 }
  - { offsetInCU: 0x3A322, offset: 0x4480C, size: 0x8, addend: 0x0, symName: __ZNSt3__19allocatorINS_6vectorINS_7variantIJidbNS_12basic_stringIcNS_11char_traitsIcEENS0_IcEEEEEEENS0_IS8_EEEEE7destroyB7v160006EPSA_, symObjAddr: 0x13944, symBinAddr: 0x10001956C, symSize: 0x28 }
  - { offsetInCU: 0x3A355, offset: 0x4483F, size: 0x8, addend: 0x0, symName: __ZNSt3__16vectorINS_7variantIJidbNS_12basic_stringIcNS_11char_traitsIcEENS_9allocatorIcEEEEEEENS5_IS8_EEED1B7v160006Ev, symObjAddr: 0x1396C, symBinAddr: 0x100019594, symSize: 0x2C }
  - { offsetInCU: 0x3A37D, offset: 0x44867, size: 0x8, addend: 0x0, symName: __ZNSt3__16vectorINS_7variantIJidbNS_12basic_stringIcNS_11char_traitsIcEENS_9allocatorIcEEEEEEENS5_IS8_EEED2B7v160006Ev, symObjAddr: 0x13998, symBinAddr: 0x1000195C0, symSize: 0x44 }
  - { offsetInCU: 0x3A3AA, offset: 0x44894, size: 0x8, addend: 0x0, symName: __ZNSt3__119__to_address_helperINS_16reverse_iteratorIPNS_6vectorINS_7variantIJidbNS_12basic_stringIcNS_11char_traitsIcEENS_9allocatorIcEEEEEEENS7_ISA_EEEEEEvE6__callB7v160006ERKSE_, symObjAddr: 0x139DC, symBinAddr: 0x100019604, symSize: 0x38 }
  - { offsetInCU: 0x3A3CD, offset: 0x448B7, size: 0x8, addend: 0x0, symName: __ZNKSt3__116reverse_iteratorIPNS_6vectorINS_7variantIJidbNS_12basic_stringIcNS_11char_traitsIcEENS_9allocatorIcEEEEEEENS6_IS9_EEEEEptB7v160006Ev, symObjAddr: 0x13A14, symBinAddr: 0x10001963C, symSize: 0x24 }
  - { offsetInCU: 0x3A3F2, offset: 0x448DC, size: 0x8, addend: 0x0, symName: __ZNKSt3__116reverse_iteratorIPNS_6vectorINS_7variantIJidbNS_12basic_stringIcNS_11char_traitsIcEENS_9allocatorIcEEEEEEENS6_IS9_EEEEEdeB7v160006Ev, symObjAddr: 0x13A38, symBinAddr: 0x100019660, symSize: 0x28 }
  - { offsetInCU: 0x3A425, offset: 0x4490F, size: 0x8, addend: 0x0, symName: __ZNSt3__116reverse_iteratorIPNS_6vectorINS_7variantIJidbNS_12basic_stringIcNS_11char_traitsIcEENS_9allocatorIcEEEEEEENS6_IS9_EEEEEC2B7v160006ESC_, symObjAddr: 0x13A60, symBinAddr: 0x100019688, symSize: 0x28 }
  - { offsetInCU: 0x3A45C, offset: 0x44946, size: 0x8, addend: 0x0, symName: __ZNSt3__117__compressed_pairIPNS_6vectorINS_7variantIJidbNS_12basic_stringIcNS_11char_traitsIcEENS_9allocatorIcEEEEEEENS6_IS9_EEEENS6_ISB_EEE6secondB7v160006Ev, symObjAddr: 0x13A88, symBinAddr: 0x1000196B0, symSize: 0x24 }
  - { offsetInCU: 0x3A481, offset: 0x4496B, size: 0x8, addend: 0x0, symName: __ZNSt3__122__compressed_pair_elemINS_9allocatorINS_6vectorINS_7variantIJidbNS_12basic_stringIcNS_11char_traitsIcEENS1_IcEEEEEEENS1_IS9_EEEEEELi1ELb1EE5__getB7v160006Ev, symObjAddr: 0x13AAC, symBinAddr: 0x1000196D4, symSize: 0x14 }
  - { offsetInCU: 0x3A4A6, offset: 0x44990, size: 0x8, addend: 0x0, symName: __ZNSt3__16vectorINS0_INS_7variantIJidbNS_12basic_stringIcNS_11char_traitsIcEENS_9allocatorIcEEEEEEENS5_IS8_EEEENS5_ISA_EEE21_ConstructTransactionD2B7v160006Ev, symObjAddr: 0x13AC0, symBinAddr: 0x1000196E8, symSize: 0x20 }
  - { offsetInCU: 0x3A4CF, offset: 0x449B9, size: 0x8, addend: 0x0, symName: __ZNSt3__16vectorINS0_INS_7variantIJidbNS_12basic_stringIcNS_11char_traitsIcEENS_9allocatorIcEEEEEEENS5_IS8_EEEENS5_ISA_EEE27__invalidate_iterators_pastB7v160006EPSA_, symObjAddr: 0x13AE0, symBinAddr: 0x100019708, symSize: 0x14 }
  - { offsetInCU: 0x3A505, offset: 0x449EF, size: 0x8, addend: 0x0, symName: __ZNSt3__16vectorINS0_INS_7variantIJidbNS_12basic_stringIcNS_11char_traitsIcEENS_9allocatorIcEEEEEEENS5_IS8_EEEENS5_ISA_EEE22__base_destruct_at_endB7v160006EPSA_, symObjAddr: 0x13AF4, symBinAddr: 0x10001971C, symSize: 0x8C }
  - { offsetInCU: 0x3A548, offset: 0x44A32, size: 0x8, addend: 0x0, symName: __ZNKSt3__16vectorINS0_INS_7variantIJidbNS_12basic_stringIcNS_11char_traitsIcEENS_9allocatorIcEEEEEEENS5_IS8_EEEENS5_ISA_EEE17__annotate_shrinkB7v160006Em, symObjAddr: 0x13B80, symBinAddr: 0x1000197A8, symSize: 0xD0 }
  - { offsetInCU: 0x3A57C, offset: 0x44A66, size: 0x8, addend: 0x0, symName: __ZNKSt3__16vectorINS0_INS_7variantIJidbNS_12basic_stringIcNS_11char_traitsIcEENS_9allocatorIcEEEEEEENS5_IS8_EEEENS5_ISA_EEE31__annotate_contiguous_containerB7v160006EPKvSE_SE_SE_, symObjAddr: 0x13C50, symBinAddr: 0x100019878, symSize: 0x20 }
  - { offsetInCU: 0x3A5D1, offset: 0x44ABB, size: 0x8, addend: 0x0, symName: __ZNKSt3__16vectorINS0_INS_7variantIJidbNS_12basic_stringIcNS_11char_traitsIcEENS_9allocatorIcEEEEEEENS5_IS8_EEEENS5_ISA_EEE4dataB7v160006Ev, symObjAddr: 0x13C70, symBinAddr: 0x100019898, symSize: 0x28 }
  - { offsetInCU: 0x3A5F6, offset: 0x44AE0, size: 0x8, addend: 0x0, symName: __ZNSt3__16vectorINS0_INS_7variantIJidbNS_12basic_stringIcNS_11char_traitsIcEENS_9allocatorIcEEEEEEENS5_IS8_EEEENS5_ISA_EEE5clearB7v160006Ev, symObjAddr: 0x13C98, symBinAddr: 0x1000198C0, symSize: 0x54 }
  - { offsetInCU: 0x3A62A, offset: 0x44B14, size: 0x8, addend: 0x0, symName: __ZNSt3__116allocator_traitsINS_9allocatorINS_6vectorINS_7variantIJidbNS_12basic_stringIcNS_11char_traitsIcEENS1_IcEEEEEEENS1_IS9_EEEEEEE10deallocateB7v160006ERSC_PSB_m, symObjAddr: 0x13CEC, symBinAddr: 0x100019914, symSize: 0x34 }
  - { offsetInCU: 0x3A66C, offset: 0x44B56, size: 0x8, addend: 0x0, symName: __ZNSt3__16vectorINS0_INS_7variantIJidbNS_12basic_stringIcNS_11char_traitsIcEENS_9allocatorIcEEEEEEENS5_IS8_EEEENS5_ISA_EEE9__end_capB7v160006Ev, symObjAddr: 0x13D20, symBinAddr: 0x100019948, symSize: 0x28 }
  - { offsetInCU: 0x3A691, offset: 0x44B7B, size: 0x8, addend: 0x0, symName: __ZNSt3__16vectorINS0_INS_7variantIJidbNS_12basic_stringIcNS_11char_traitsIcEENS_9allocatorIcEEEEEEENS5_IS8_EEEENS5_ISA_EEE7__clearB7v160006Ev, symObjAddr: 0x13D48, symBinAddr: 0x100019970, symSize: 0x28 }
  - { offsetInCU: 0x3A6B6, offset: 0x44BA0, size: 0x8, addend: 0x0, symName: __ZNSt3__19allocatorINS_6vectorINS_7variantIJidbNS_12basic_stringIcNS_11char_traitsIcEENS0_IcEEEEEEENS0_IS8_EEEEE10deallocateB7v160006EPSA_m, symObjAddr: 0x13D70, symBinAddr: 0x100019998, symSize: 0x44 }
  - { offsetInCU: 0x3A6F7, offset: 0x44BE1, size: 0x8, addend: 0x0, symName: __ZNSt3__117__compressed_pairIPNS_6vectorINS_7variantIJidbNS_12basic_stringIcNS_11char_traitsIcEENS_9allocatorIcEEEEEEENS6_IS9_EEEENS6_ISB_EEE5firstB7v160006Ev, symObjAddr: 0x13DB4, symBinAddr: 0x1000199DC, symSize: 0x24 }
  - { offsetInCU: 0x3A71C, offset: 0x44C06, size: 0x8, addend: 0x0, symName: __ZNSt3__122__compressed_pair_elemIPNS_6vectorINS_7variantIJidbNS_12basic_stringIcNS_11char_traitsIcEENS_9allocatorIcEEEEEEENS6_IS9_EEEELi0ELb0EE5__getB7v160006Ev, symObjAddr: 0x13DD8, symBinAddr: 0x100019A00, symSize: 0x14 }
  - { offsetInCU: 0x3A741, offset: 0x44C2B, size: 0x8, addend: 0x0, symName: __ZNKSt3__16vectorINS0_INS_7variantIJidbNS_12basic_stringIcNS_11char_traitsIcEENS_9allocatorIcEEEEEEENS5_IS8_EEEENS5_ISA_EEE8max_sizeEv, symObjAddr: 0x13DEC, symBinAddr: 0x100019A14, symSize: 0x60 }
  - { offsetInCU: 0x3A768, offset: 0x44C52, size: 0x8, addend: 0x0, symName: __ZNKSt3__16vectorINS0_INS_7variantIJidbNS_12basic_stringIcNS_11char_traitsIcEENS_9allocatorIcEEEEEEENS5_IS8_EEEENS5_ISA_EEE20__throw_length_errorB7v160006Ev, symObjAddr: 0x13E4C, symBinAddr: 0x100019A74, symSize: 0x1C }
  - { offsetInCU: 0x3A78D, offset: 0x44C77, size: 0x8, addend: 0x0, symName: __ZNKSt3__16vectorINS0_INS_7variantIJidbNS_12basic_stringIcNS_11char_traitsIcEENS_9allocatorIcEEEEEEENS5_IS8_EEEENS5_ISA_EEE14__annotate_newB7v160006Em, symObjAddr: 0x13EA8, symBinAddr: 0x100019AD0, symSize: 0xC8 }
  - { offsetInCU: 0x3A7CB, offset: 0x44CB5, size: 0x8, addend: 0x0, symName: __ZNSt3__116allocator_traitsINS_9allocatorINS_6vectorINS_7variantIJidbNS_12basic_stringIcNS_11char_traitsIcEENS1_IcEEEEEEENS1_IS9_EEEEEEE8max_sizeB7v160006ISC_vEEmRKSC_, symObjAddr: 0x13F70, symBinAddr: 0x100019B98, symSize: 0x24 }
  - { offsetInCU: 0x3A7FA, offset: 0x44CE4, size: 0x8, addend: 0x0, symName: __ZNKSt3__16vectorINS0_INS_7variantIJidbNS_12basic_stringIcNS_11char_traitsIcEENS_9allocatorIcEEEEEEENS5_IS8_EEEENS5_ISA_EEE7__allocB7v160006Ev, symObjAddr: 0x13F94, symBinAddr: 0x100019BBC, symSize: 0x28 }
  - { offsetInCU: 0x3A81F, offset: 0x44D09, size: 0x8, addend: 0x0, symName: __ZNKSt3__19allocatorINS_6vectorINS_7variantIJidbNS_12basic_stringIcNS_11char_traitsIcEENS0_IcEEEEEEENS0_IS8_EEEEE8max_sizeB7v160006Ev, symObjAddr: 0x13FBC, symBinAddr: 0x100019BE4, symSize: 0x18 }
  - { offsetInCU: 0x3A844, offset: 0x44D2E, size: 0x8, addend: 0x0, symName: __ZNKSt3__117__compressed_pairIPNS_6vectorINS_7variantIJidbNS_12basic_stringIcNS_11char_traitsIcEENS_9allocatorIcEEEEEEENS6_IS9_EEEENS6_ISB_EEE6secondB7v160006Ev, symObjAddr: 0x13FD4, symBinAddr: 0x100019BFC, symSize: 0x24 }
  - { offsetInCU: 0x3A869, offset: 0x44D53, size: 0x8, addend: 0x0, symName: __ZNKSt3__122__compressed_pair_elemINS_9allocatorINS_6vectorINS_7variantIJidbNS_12basic_stringIcNS_11char_traitsIcEENS1_IcEEEEEEENS1_IS9_EEEEEELi1ELb1EE5__getB7v160006Ev, symObjAddr: 0x13FF8, symBinAddr: 0x100019C20, symSize: 0x14 }
  - { offsetInCU: 0x3A88E, offset: 0x44D78, size: 0x8, addend: 0x0, symName: __ZNSt3__19allocatorINS_6vectorINS_7variantIJidbNS_12basic_stringIcNS_11char_traitsIcEENS0_IcEEEEEEENS0_IS8_EEEEE8allocateB7v160006Em, symObjAddr: 0x1400C, symBinAddr: 0x100019C34, symSize: 0x5C }
  - { offsetInCU: 0x3A8C1, offset: 0x44DAB, size: 0x8, addend: 0x0, symName: __ZNSt3__112__hash_tableINS_17__hash_value_typeINS_12basic_stringIcNS_11char_traitsIcEENS_9allocatorIcEEEENS_6vectorIjNS5_IjEEEEEENS_22__unordered_map_hasherIS7_SB_NS_4hashIS7_EENS_8equal_toIS7_EELb1EEENS_21__unordered_map_equalIS7_SB_SG_SE_Lb1EEENS5_ISB_EEEaSERKSL_, symObjAddr: 0x14068, symBinAddr: 0x100019C90, symSize: 0xB8 }
  - { offsetInCU: 0x3A8F7, offset: 0x44DE1, size: 0x8, addend: 0x0, symName: __ZNSt3__112__hash_tableINS_17__hash_value_typeINS_12basic_stringIcNS_11char_traitsIcEENS_9allocatorIcEEEENS_6vectorIjNS5_IjEEEEEENS_22__unordered_map_hasherIS7_SB_NS_4hashIS7_EENS_8equal_toIS7_EELb1EEENS_21__unordered_map_equalIS7_SB_SG_SE_Lb1EEENS5_ISB_EEE19__copy_assign_allocB7v160006ERKSL_, symObjAddr: 0x14120, symBinAddr: 0x100019D48, symSize: 0x2C }
  - { offsetInCU: 0x3A92B, offset: 0x44E15, size: 0x8, addend: 0x0, symName: __ZNKSt3__112__hash_tableINS_17__hash_value_typeINS_12basic_stringIcNS_11char_traitsIcEENS_9allocatorIcEEEENS_6vectorIjNS5_IjEEEEEENS_22__unordered_map_hasherIS7_SB_NS_4hashIS7_EENS_8equal_toIS7_EELb1EEENS_21__unordered_map_equalIS7_SB_SG_SE_Lb1EEENS5_ISB_EEE13hash_functionB7v160006Ev, symObjAddr: 0x1414C, symBinAddr: 0x100019D74, symSize: 0x28 }
  - { offsetInCU: 0x3A950, offset: 0x44E3A, size: 0x8, addend: 0x0, symName: __ZNSt3__112__hash_tableINS_17__hash_value_typeINS_12basic_stringIcNS_11char_traitsIcEENS_9allocatorIcEEEENS_6vectorIjNS5_IjEEEEEENS_22__unordered_map_hasherIS7_SB_NS_4hashIS7_EENS_8equal_toIS7_EELb1EEENS_21__unordered_map_equalIS7_SB_SG_SE_Lb1EEENS5_ISB_EEE13hash_functionB7v160006Ev, symObjAddr: 0x14174, symBinAddr: 0x100019D9C, symSize: 0x28 }
  - { offsetInCU: 0x3A975, offset: 0x44E5F, size: 0x8, addend: 0x0, symName: __ZNKSt3__112__hash_tableINS_17__hash_value_typeINS_12basic_stringIcNS_11char_traitsIcEENS_9allocatorIcEEEENS_6vectorIjNS5_IjEEEEEENS_22__unordered_map_hasherIS7_SB_NS_4hashIS7_EENS_8equal_toIS7_EELb1EEENS_21__unordered_map_equalIS7_SB_SG_SE_Lb1EEENS5_ISB_EEE6key_eqB7v160006Ev, symObjAddr: 0x1419C, symBinAddr: 0x100019DC4, symSize: 0x28 }
  - { offsetInCU: 0x3A99A, offset: 0x44E84, size: 0x8, addend: 0x0, symName: __ZNSt3__112__hash_tableINS_17__hash_value_typeINS_12basic_stringIcNS_11char_traitsIcEENS_9allocatorIcEEEENS_6vectorIjNS5_IjEEEEEENS_22__unordered_map_hasherIS7_SB_NS_4hashIS7_EENS_8equal_toIS7_EELb1EEENS_21__unordered_map_equalIS7_SB_SG_SE_Lb1EEENS5_ISB_EEE6key_eqB7v160006Ev, symObjAddr: 0x141C4, symBinAddr: 0x100019DEC, symSize: 0x28 }
  - { offsetInCU: 0x3A9BF, offset: 0x44EA9, size: 0x8, addend: 0x0, symName: __ZNKSt3__112__hash_tableINS_17__hash_value_typeINS_12basic_stringIcNS_11char_traitsIcEENS_9allocatorIcEEEENS_6vectorIjNS5_IjEEEEEENS_22__unordered_map_hasherIS7_SB_NS_4hashIS7_EENS_8equal_toIS7_EELb1EEENS_21__unordered_map_equalIS7_SB_SG_SE_Lb1EEENS5_ISB_EEE15max_load_factorB7v160006Ev, symObjAddr: 0x141EC, symBinAddr: 0x100019E14, symSize: 0x2C }
  - { offsetInCU: 0x3A9E4, offset: 0x44ECE, size: 0x8, addend: 0x0, symName: __ZNSt3__112__hash_tableINS_17__hash_value_typeINS_12basic_stringIcNS_11char_traitsIcEENS_9allocatorIcEEEENS_6vectorIjNS5_IjEEEEEENS_22__unordered_map_hasherIS7_SB_NS_4hashIS7_EENS_8equal_toIS7_EELb1EEENS_21__unordered_map_equalIS7_SB_SG_SE_Lb1EEENS5_ISB_EEE15max_load_factorB7v160006Ev, symObjAddr: 0x14218, symBinAddr: 0x100019E40, symSize: 0x28 }
  - { offsetInCU: 0x3AA09, offset: 0x44EF3, size: 0x8, addend: 0x0, symName: __ZNSt3__112__hash_tableINS_17__hash_value_typeINS_12basic_stringIcNS_11char_traitsIcEENS_9allocatorIcEEEENS_6vectorIjNS5_IjEEEEEENS_22__unordered_map_hasherIS7_SB_NS_4hashIS7_EENS_8equal_toIS7_EELb1EEENS_21__unordered_map_equalIS7_SB_SG_SE_Lb1EEENS5_ISB_EEE14__assign_multiINS_21__hash_const_iteratorIPNS_11__hash_nodeISB_PvEEEEEEvT_ST_, symObjAddr: 0x14240, symBinAddr: 0x100019E68, symSize: 0x1B8 }
  - { offsetInCU: 0x3AA8A, offset: 0x44F74, size: 0x8, addend: 0x0, symName: __ZNKSt3__112__hash_tableINS_17__hash_value_typeINS_12basic_stringIcNS_11char_traitsIcEENS_9allocatorIcEEEENS_6vectorIjNS5_IjEEEEEENS_22__unordered_map_hasherIS7_SB_NS_4hashIS7_EENS_8equal_toIS7_EELb1EEENS_21__unordered_map_equalIS7_SB_SG_SE_Lb1EEENS5_ISB_EEE5beginEv, symObjAddr: 0x143F8, symBinAddr: 0x10001A020, symSize: 0x40 }
  - { offsetInCU: 0x3AAB1, offset: 0x44F9B, size: 0x8, addend: 0x0, symName: __ZNKSt3__112__hash_tableINS_17__hash_value_typeINS_12basic_stringIcNS_11char_traitsIcEENS_9allocatorIcEEEENS_6vectorIjNS5_IjEEEEEENS_22__unordered_map_hasherIS7_SB_NS_4hashIS7_EENS_8equal_toIS7_EELb1EEENS_21__unordered_map_equalIS7_SB_SG_SE_Lb1EEENS5_ISB_EEE3endEv, symObjAddr: 0x14438, symBinAddr: 0x10001A060, symSize: 0x30 }
  - { offsetInCU: 0x3AAD8, offset: 0x44FC2, size: 0x8, addend: 0x0, symName: __ZNSt3__112__hash_tableINS_17__hash_value_typeINS_12basic_stringIcNS_11char_traitsIcEENS_9allocatorIcEEEENS_6vectorIjNS5_IjEEEEEENS_22__unordered_map_hasherIS7_SB_NS_4hashIS7_EENS_8equal_toIS7_EELb1EEENS_21__unordered_map_equalIS7_SB_SG_SE_Lb1EEENS5_ISB_EEE19__copy_assign_allocB7v160006ERKSL_NS_17integral_constantIbLb0EEE, symObjAddr: 0x14468, symBinAddr: 0x10001A090, symSize: 0x14 }
  - { offsetInCU: 0x3AB15, offset: 0x44FFF, size: 0x8, addend: 0x0, symName: __ZNKSt3__117__compressed_pairImNS_22__unordered_map_hasherINS_12basic_stringIcNS_11char_traitsIcEENS_9allocatorIcEEEENS_17__hash_value_typeIS7_NS_6vectorIjNS5_IjEEEEEENS_4hashIS7_EENS_8equal_toIS7_EELb1EEEE6secondB7v160006Ev, symObjAddr: 0x1447C, symBinAddr: 0x10001A0A4, symSize: 0x24 }
  - { offsetInCU: 0x3AB3A, offset: 0x45024, size: 0x8, addend: 0x0, symName: __ZNKSt3__122__compressed_pair_elemINS_22__unordered_map_hasherINS_12basic_stringIcNS_11char_traitsIcEENS_9allocatorIcEEEENS_17__hash_value_typeIS7_NS_6vectorIjNS5_IjEEEEEENS_4hashIS7_EENS_8equal_toIS7_EELb1EEELi1ELb1EE5__getB7v160006Ev, symObjAddr: 0x144A0, symBinAddr: 0x10001A0C8, symSize: 0x14 }
  - { offsetInCU: 0x3AB5F, offset: 0x45049, size: 0x8, addend: 0x0, symName: __ZNSt3__117__compressed_pairImNS_22__unordered_map_hasherINS_12basic_stringIcNS_11char_traitsIcEENS_9allocatorIcEEEENS_17__hash_value_typeIS7_NS_6vectorIjNS5_IjEEEEEENS_4hashIS7_EENS_8equal_toIS7_EELb1EEEE6secondB7v160006Ev, symObjAddr: 0x144B4, symBinAddr: 0x10001A0DC, symSize: 0x24 }
  - { offsetInCU: 0x3AB84, offset: 0x4506E, size: 0x8, addend: 0x0, symName: __ZNSt3__122__compressed_pair_elemINS_22__unordered_map_hasherINS_12basic_stringIcNS_11char_traitsIcEENS_9allocatorIcEEEENS_17__hash_value_typeIS7_NS_6vectorIjNS5_IjEEEEEENS_4hashIS7_EENS_8equal_toIS7_EELb1EEELi1ELb1EE5__getB7v160006Ev, symObjAddr: 0x144D8, symBinAddr: 0x10001A100, symSize: 0x14 }
  - { offsetInCU: 0x3ABA9, offset: 0x45093, size: 0x8, addend: 0x0, symName: __ZNKSt3__117__compressed_pairIfNS_21__unordered_map_equalINS_12basic_stringIcNS_11char_traitsIcEENS_9allocatorIcEEEENS_17__hash_value_typeIS7_NS_6vectorIjNS5_IjEEEEEENS_8equal_toIS7_EENS_4hashIS7_EELb1EEEE6secondB7v160006Ev, symObjAddr: 0x144EC, symBinAddr: 0x10001A114, symSize: 0x24 }
  - { offsetInCU: 0x3ABCE, offset: 0x450B8, size: 0x8, addend: 0x0, symName: __ZNKSt3__122__compressed_pair_elemINS_21__unordered_map_equalINS_12basic_stringIcNS_11char_traitsIcEENS_9allocatorIcEEEENS_17__hash_value_typeIS7_NS_6vectorIjNS5_IjEEEEEENS_8equal_toIS7_EENS_4hashIS7_EELb1EEELi1ELb1EE5__getB7v160006Ev, symObjAddr: 0x14510, symBinAddr: 0x10001A138, symSize: 0x14 }
  - { offsetInCU: 0x3ABF3, offset: 0x450DD, size: 0x8, addend: 0x0, symName: __ZNSt3__117__compressed_pairIfNS_21__unordered_map_equalINS_12basic_stringIcNS_11char_traitsIcEENS_9allocatorIcEEEENS_17__hash_value_typeIS7_NS_6vectorIjNS5_IjEEEEEENS_8equal_toIS7_EENS_4hashIS7_EELb1EEEE6secondB7v160006Ev, symObjAddr: 0x14524, symBinAddr: 0x10001A14C, symSize: 0x24 }
  - { offsetInCU: 0x3AC18, offset: 0x45102, size: 0x8, addend: 0x0, symName: __ZNSt3__122__compressed_pair_elemINS_21__unordered_map_equalINS_12basic_stringIcNS_11char_traitsIcEENS_9allocatorIcEEEENS_17__hash_value_typeIS7_NS_6vectorIjNS5_IjEEEEEENS_8equal_toIS7_EENS_4hashIS7_EELb1EEELi1ELb1EE5__getB7v160006Ev, symObjAddr: 0x14548, symBinAddr: 0x10001A170, symSize: 0x14 }
  - { offsetInCU: 0x3AC3D, offset: 0x45127, size: 0x8, addend: 0x0, symName: __ZNKSt3__117__compressed_pairIfNS_21__unordered_map_equalINS_12basic_stringIcNS_11char_traitsIcEENS_9allocatorIcEEEENS_17__hash_value_typeIS7_NS_6vectorIjNS5_IjEEEEEENS_8equal_toIS7_EENS_4hashIS7_EELb1EEEE5firstB7v160006Ev, symObjAddr: 0x1455C, symBinAddr: 0x10001A184, symSize: 0x24 }
  - { offsetInCU: 0x3AC62, offset: 0x4514C, size: 0x8, addend: 0x0, symName: __ZNKSt3__122__compressed_pair_elemIfLi0ELb0EE5__getB7v160006Ev, symObjAddr: 0x14580, symBinAddr: 0x10001A1A8, symSize: 0x14 }
  - { offsetInCU: 0x3AC87, offset: 0x45171, size: 0x8, addend: 0x0, symName: __ZNSt3__117__compressed_pairIfNS_21__unordered_map_equalINS_12basic_stringIcNS_11char_traitsIcEENS_9allocatorIcEEEENS_17__hash_value_typeIS7_NS_6vectorIjNS5_IjEEEEEENS_8equal_toIS7_EENS_4hashIS7_EELb1EEEE5firstB7v160006Ev, symObjAddr: 0x14594, symBinAddr: 0x10001A1BC, symSize: 0x24 }
  - { offsetInCU: 0x3ACAC, offset: 0x45196, size: 0x8, addend: 0x0, symName: __ZNKSt3__112__hash_tableINS_17__hash_value_typeINS_12basic_stringIcNS_11char_traitsIcEENS_9allocatorIcEEEENS_6vectorIjNS5_IjEEEEEENS_22__unordered_map_hasherIS7_SB_NS_4hashIS7_EENS_8equal_toIS7_EELb1EEENS_21__unordered_map_equalIS7_SB_SG_SE_Lb1EEENS5_ISB_EEE12bucket_countB7v160006Ev, symObjAddr: 0x145B8, symBinAddr: 0x10001A1E0, symSize: 0x28 }
  - { offsetInCU: 0x3ACD1, offset: 0x451BB, size: 0x8, addend: 0x0, symName: __ZNSt3__112__hash_tableINS_17__hash_value_typeINS_12basic_stringIcNS_11char_traitsIcEENS_9allocatorIcEEEENS_6vectorIjNS5_IjEEEEEENS_22__unordered_map_hasherIS7_SB_NS_4hashIS7_EENS_8equal_toIS7_EELb1EEENS_21__unordered_map_equalIS7_SB_SG_SE_Lb1EEENS5_ISB_EEE8__detachEv, symObjAddr: 0x145E0, symBinAddr: 0x10001A208, symSize: 0xB4 }
  - { offsetInCU: 0x3AD2B, offset: 0x45215, size: 0x8, addend: 0x0, symName: __ZNKSt3__121__hash_const_iteratorIPNS_11__hash_nodeINS_17__hash_value_typeINS_12basic_stringIcNS_11char_traitsIcEENS_9allocatorIcEEEENS_6vectorIjNS6_IjEEEEEEPvEEEdeB7v160006Ev, symObjAddr: 0x146C8, symBinAddr: 0x10001A2F0, symSize: 0x2C }
  - { offsetInCU: 0x3AD50, offset: 0x4523A, size: 0x8, addend: 0x0, symName: __ZNSt3__116__hash_node_baseIPNS_11__hash_nodeINS_17__hash_value_typeINS_12basic_stringIcNS_11char_traitsIcEENS_9allocatorIcEEEENS_6vectorIjNS6_IjEEEEEEPvEEE8__upcastB7v160006Ev, symObjAddr: 0x146F4, symBinAddr: 0x10001A31C, symSize: 0x24 }
  - { offsetInCU: 0x3AD75, offset: 0x4525F, size: 0x8, addend: 0x0, symName: __ZNSt3__117__hash_value_typeINS_12basic_stringIcNS_11char_traitsIcEENS_9allocatorIcEEEENS_6vectorIjNS4_IjEEEEEaSB7v160006ERKSA_, symObjAddr: 0x14718, symBinAddr: 0x10001A340, symSize: 0x60 }
  - { offsetInCU: 0x3ADA9, offset: 0x45293, size: 0x8, addend: 0x0, symName: __ZNSt3__112__hash_tableINS_17__hash_value_typeINS_12basic_stringIcNS_11char_traitsIcEENS_9allocatorIcEEEENS_6vectorIjNS5_IjEEEEEENS_22__unordered_map_hasherIS7_SB_NS_4hashIS7_EENS_8equal_toIS7_EELb1EEENS_21__unordered_map_equalIS7_SB_SG_SE_Lb1EEENS5_ISB_EEE19__node_insert_multiEPNS_11__hash_nodeISB_PvEE, symObjAddr: 0x14778, symBinAddr: 0x10001A3A0, symSize: 0x90 }
  - { offsetInCU: 0x3ADEE, offset: 0x452D8, size: 0x8, addend: 0x0, symName: __ZNSt3__121__hash_const_iteratorIPNS_11__hash_nodeINS_17__hash_value_typeINS_12basic_stringIcNS_11char_traitsIcEENS_9allocatorIcEEEENS_6vectorIjNS6_IjEEEEEEPvEEEppB7v160006Ev, symObjAddr: 0x14808, symBinAddr: 0x10001A430, symSize: 0x20 }
  - { offsetInCU: 0x3AE13, offset: 0x452FD, size: 0x8, addend: 0x0, symName: __ZNSt3__112__hash_tableINS_17__hash_value_typeINS_12basic_stringIcNS_11char_traitsIcEENS_9allocatorIcEEEENS_6vectorIjNS5_IjEEEEEENS_22__unordered_map_hasherIS7_SB_NS_4hashIS7_EENS_8equal_toIS7_EELb1EEENS_21__unordered_map_equalIS7_SB_SG_SE_Lb1EEENS5_ISB_EEE17__deallocate_nodeEPNS_16__hash_node_baseIPNS_11__hash_nodeISB_PvEEEE, symObjAddr: 0x14828, symBinAddr: 0x10001A450, symSize: 0xA8 }
  - { offsetInCU: 0x3AE7C, offset: 0x45366, size: 0x8, addend: 0x0, symName: __ZNSt3__112__hash_tableINS_17__hash_value_typeINS_12basic_stringIcNS_11char_traitsIcEENS_9allocatorIcEEEENS_6vectorIjNS5_IjEEEEEENS_22__unordered_map_hasherIS7_SB_NS_4hashIS7_EENS_8equal_toIS7_EELb1EEENS_21__unordered_map_equalIS7_SB_SG_SE_Lb1EEENS5_ISB_EEE14__insert_multiB7v160006IRKNS_4pairIKS7_SA_EEEENS_15__hash_iteratorIPNS_11__hash_nodeISB_PvEEEEOT_, symObjAddr: 0x148D0, symBinAddr: 0x10001A4F8, symSize: 0x34 }
  - { offsetInCU: 0x3AEB9, offset: 0x453A3, size: 0x8, addend: 0x0, symName: __ZNSt3__122__hash_key_value_typesINS_17__hash_value_typeINS_12basic_stringIcNS_11char_traitsIcEENS_9allocatorIcEEEENS_6vectorIjNS5_IjEEEEEEE11__get_valueB7v160006IKSB_EENS_9enable_ifIXsr17__is_same_uncvrefIT_SB_EE5valueERKNS_4pairIKS7_SA_EEE4typeERSG_, symObjAddr: 0x14904, symBinAddr: 0x10001A52C, symSize: 0x24 }
  - { offsetInCU: 0x3AEE5, offset: 0x453CF, size: 0x8, addend: 0x0, symName: __ZNKSt3__110unique_ptrIA_PNS_16__hash_node_baseIPNS_11__hash_nodeINS_17__hash_value_typeINS_12basic_stringIcNS_11char_traitsIcEENS_9allocatorIcEEEENS_6vectorIjNS7_IjEEEEEEPvEEEENS_25__bucket_list_deallocatorINS7_ISI_EEEEE11get_deleterB7v160006Ev, symObjAddr: 0x14928, symBinAddr: 0x10001A550, symSize: 0x24 }
  - { offsetInCU: 0x3AF0A, offset: 0x453F4, size: 0x8, addend: 0x0, symName: __ZNKSt3__125__bucket_list_deallocatorINS_9allocatorIPNS_16__hash_node_baseIPNS_11__hash_nodeINS_17__hash_value_typeINS_12basic_stringIcNS_11char_traitsIcEENS1_IcEEEENS_6vectorIjNS1_IjEEEEEEPvEEEEEEE4sizeB7v160006Ev, symObjAddr: 0x1494C, symBinAddr: 0x10001A574, symSize: 0x28 }
  - { offsetInCU: 0x3AF2F, offset: 0x45419, size: 0x8, addend: 0x0, symName: __ZNKSt3__117__compressed_pairIPPNS_16__hash_node_baseIPNS_11__hash_nodeINS_17__hash_value_typeINS_12basic_stringIcNS_11char_traitsIcEENS_9allocatorIcEEEENS_6vectorIjNS7_IjEEEEEEPvEEEENS_25__bucket_list_deallocatorINS7_ISI_EEEEE6secondB7v160006Ev, symObjAddr: 0x14974, symBinAddr: 0x10001A59C, symSize: 0x28 }
  - { offsetInCU: 0x3AF54, offset: 0x4543E, size: 0x8, addend: 0x0, symName: __ZNKSt3__122__compressed_pair_elemINS_25__bucket_list_deallocatorINS_9allocatorIPNS_16__hash_node_baseIPNS_11__hash_nodeINS_17__hash_value_typeINS_12basic_stringIcNS_11char_traitsIcEENS2_IcEEEENS_6vectorIjNS2_IjEEEEEEPvEEEEEEEELi1ELb0EE5__getB7v160006Ev, symObjAddr: 0x1499C, symBinAddr: 0x10001A5C4, symSize: 0x14 }
  - { offsetInCU: 0x3AF79, offset: 0x45463, size: 0x8, addend: 0x0, symName: __ZNKSt3__117__compressed_pairImNS_9allocatorIPNS_16__hash_node_baseIPNS_11__hash_nodeINS_17__hash_value_typeINS_12basic_stringIcNS_11char_traitsIcEENS1_IcEEEENS_6vectorIjNS1_IjEEEEEEPvEEEEEEE5firstB7v160006Ev, symObjAddr: 0x149B0, symBinAddr: 0x10001A5D8, symSize: 0x24 }
  - { offsetInCU: 0x3AF9E, offset: 0x45488, size: 0x8, addend: 0x0, symName: __ZNKSt3__110unique_ptrIA_PNS_16__hash_node_baseIPNS_11__hash_nodeINS_17__hash_value_typeINS_12basic_stringIcNS_11char_traitsIcEENS_9allocatorIcEEEENS_6vectorIjNS7_IjEEEEEEPvEEEENS_25__bucket_list_deallocatorINS7_ISI_EEEEEixB7v160006Em, symObjAddr: 0x149D4, symBinAddr: 0x10001A5FC, symSize: 0x34 }
  - { offsetInCU: 0x3AFD2, offset: 0x454BC, size: 0x8, addend: 0x0, symName: __ZNSt3__112__hash_tableINS_17__hash_value_typeINS_12basic_stringIcNS_11char_traitsIcEENS_9allocatorIcEEEENS_6vectorIjNS5_IjEEEEEENS_22__unordered_map_hasherIS7_SB_NS_4hashIS7_EENS_8equal_toIS7_EELb1EEENS_21__unordered_map_equalIS7_SB_SG_SE_Lb1EEENS5_ISB_EEE4sizeB7v160006Ev, symObjAddr: 0x14A08, symBinAddr: 0x10001A630, symSize: 0x28 }
  - { offsetInCU: 0x3AFF7, offset: 0x454E1, size: 0x8, addend: 0x0, symName: __ZNSt3__117__compressed_pairINS_16__hash_node_baseIPNS_11__hash_nodeINS_17__hash_value_typeINS_12basic_stringIcNS_11char_traitsIcEENS_9allocatorIcEEEENS_6vectorIjNS7_IjEEEEEEPvEEEENS7_ISF_EEE5firstB7v160006Ev, symObjAddr: 0x14A30, symBinAddr: 0x10001A658, symSize: 0x24 }
  - { offsetInCU: 0x3B01C, offset: 0x45506, size: 0x8, addend: 0x0, symName: __ZNKSt3__117__compressed_pairIPPNS_16__hash_node_baseIPNS_11__hash_nodeINS_17__hash_value_typeINS_12basic_stringIcNS_11char_traitsIcEENS_9allocatorIcEEEENS_6vectorIjNS7_IjEEEEEEPvEEEENS_25__bucket_list_deallocatorINS7_ISI_EEEEE5firstB7v160006Ev, symObjAddr: 0x14A54, symBinAddr: 0x10001A67C, symSize: 0x24 }
  - { offsetInCU: 0x3B041, offset: 0x4552B, size: 0x8, addend: 0x0, symName: __ZNKSt3__122__compressed_pair_elemIPPNS_16__hash_node_baseIPNS_11__hash_nodeINS_17__hash_value_typeINS_12basic_stringIcNS_11char_traitsIcEENS_9allocatorIcEEEENS_6vectorIjNS7_IjEEEEEEPvEEEELi0ELb0EE5__getB7v160006Ev, symObjAddr: 0x14A78, symBinAddr: 0x10001A6A0, symSize: 0x14 }
  - { offsetInCU: 0x3B066, offset: 0x45550, size: 0x8, addend: 0x0, symName: __ZNSt3__117__compressed_pairImNS_22__unordered_map_hasherINS_12basic_stringIcNS_11char_traitsIcEENS_9allocatorIcEEEENS_17__hash_value_typeIS7_NS_6vectorIjNS5_IjEEEEEENS_4hashIS7_EENS_8equal_toIS7_EELb1EEEE5firstB7v160006Ev, symObjAddr: 0x14A8C, symBinAddr: 0x10001A6B4, symSize: 0x24 }
  - { offsetInCU: 0x3B08B, offset: 0x45575, size: 0x8, addend: 0x0, symName: __ZNSt3__122__compressed_pair_elemINS_16__hash_node_baseIPNS_11__hash_nodeINS_17__hash_value_typeINS_12basic_stringIcNS_11char_traitsIcEENS_9allocatorIcEEEENS_6vectorIjNS7_IjEEEEEEPvEEEELi0ELb0EE5__getB7v160006Ev, symObjAddr: 0x14AB0, symBinAddr: 0x10001A6D8, symSize: 0x14 }
  - { offsetInCU: 0x3B0B0, offset: 0x4559A, size: 0x8, addend: 0x0, symName: __ZNSt3__114pointer_traitsIPNS_16__hash_node_baseIPNS_11__hash_nodeINS_17__hash_value_typeINS_12basic_stringIcNS_11char_traitsIcEENS_9allocatorIcEEEENS_6vectorIjNS7_IjEEEEEEPvEEEEE10pointer_toB7v160006ERSH_, symObjAddr: 0x14AF4, symBinAddr: 0x10001A71C, symSize: 0x14 }
  - { offsetInCU: 0x3B0D3, offset: 0x455BD, size: 0x8, addend: 0x0, symName: __ZNKSt3__117__hash_value_typeINS_12basic_stringIcNS_11char_traitsIcEENS_9allocatorIcEEEENS_6vectorIjNS4_IjEEEEE11__get_valueB7v160006Ev, symObjAddr: 0x14B08, symBinAddr: 0x10001A730, symSize: 0x24 }
  - { offsetInCU: 0x3B0F8, offset: 0x455E2, size: 0x8, addend: 0x0, symName: __ZNSt3__117__hash_value_typeINS_12basic_stringIcNS_11char_traitsIcEENS_9allocatorIcEEEENS_6vectorIjNS4_IjEEEEE5__refB7v160006Ev, symObjAddr: 0x14B2C, symBinAddr: 0x10001A754, symSize: 0x44 }
  - { offsetInCU: 0x3B12C, offset: 0x45616, size: 0x8, addend: 0x0, symName: __ZNSt3__14pairIRNS_12basic_stringIcNS_11char_traitsIcEENS_9allocatorIcEEEERNS_6vectorIjNS4_IjEEEEEaSB7v160006IRKNS0_IKS6_SA_EELPv0EEERSC_OT_, symObjAddr: 0x14B70, symBinAddr: 0x10001A798, symSize: 0x5C }
  - { offsetInCU: 0x3B16F, offset: 0x45659, size: 0x8, addend: 0x0, symName: __ZNSt3__117__hash_value_typeINS_12basic_stringIcNS_11char_traitsIcEENS_9allocatorIcEEEENS_6vectorIjNS4_IjEEEEE11__get_valueB7v160006Ev, symObjAddr: 0x14C04, symBinAddr: 0x10001A82C, symSize: 0x24 }
  - { offsetInCU: 0x3B194, offset: 0x4567E, size: 0x8, addend: 0x0, symName: __ZNSt3__14pairIRNS_12basic_stringIcNS_11char_traitsIcEENS_9allocatorIcEEEERNS_6vectorIjNS4_IjEEEEEC1B7v160006ILb1ELPv0EEES7_SB_, symObjAddr: 0x14C28, symBinAddr: 0x10001A850, symSize: 0x3C }
  - { offsetInCU: 0x3B1E8, offset: 0x456D2, size: 0x8, addend: 0x0, symName: __ZNSt3__14pairIRNS_12basic_stringIcNS_11char_traitsIcEENS_9allocatorIcEEEERNS_6vectorIjNS4_IjEEEEEC2B7v160006ILb1ELPv0EEES7_SB_, symObjAddr: 0x14C9C, symBinAddr: 0x10001A8C4, symSize: 0x2C }
  - { offsetInCU: 0x3B23D, offset: 0x45727, size: 0x8, addend: 0x0, symName: __ZNSt3__16vectorIjNS_9allocatorIjEEEaSB7v160006ERKS3_, symObjAddr: 0x14D10, symBinAddr: 0x10001A938, symSize: 0x68 }
  - { offsetInCU: 0x3B273, offset: 0x4575D, size: 0x8, addend: 0x0, symName: __ZNSt3__110__get_pairILm0EE3getB7v160006IKNS_12basic_stringIcNS_11char_traitsIcEENS_9allocatorIcEEEENS_6vectorIjNS6_IjEEEEEERKT_RKNS_4pairISD_T0_EE, symObjAddr: 0x14D78, symBinAddr: 0x10001A9A0, symSize: 0x14 }
  - { offsetInCU: 0x3B2A9, offset: 0x45793, size: 0x8, addend: 0x0, symName: __ZNSt3__110__get_pairILm1EE3getB7v160006IKNS_12basic_stringIcNS_11char_traitsIcEENS_9allocatorIcEEEENS_6vectorIjNS6_IjEEEEEERKT0_RKNS_4pairIT_SD_EE, symObjAddr: 0x14D8C, symBinAddr: 0x10001A9B4, symSize: 0x18 }
  - { offsetInCU: 0x3B2DF, offset: 0x457C9, size: 0x8, addend: 0x0, symName: __ZNSt3__16vectorIjNS_9allocatorIjEEE19__copy_assign_allocB7v160006ERKS3_, symObjAddr: 0x14DA4, symBinAddr: 0x10001A9CC, symSize: 0x2C }
  - { offsetInCU: 0x3B313, offset: 0x457FD, size: 0x8, addend: 0x0, symName: __ZNSt3__16vectorIjNS_9allocatorIjEEE6assignIPjLi0EEEvT_S6_, symObjAddr: 0x14DD0, symBinAddr: 0x10001A9F8, symSize: 0x17C }
  - { offsetInCU: 0x3B3B3, offset: 0x4589D, size: 0x8, addend: 0x0, symName: __ZNSt3__16vectorIjNS_9allocatorIjEEE19__copy_assign_allocB7v160006ERKS3_NS_17integral_constantIbLb0EEE, symObjAddr: 0x14F4C, symBinAddr: 0x10001AB74, symSize: 0x14 }
  - { offsetInCU: 0x3B3F0, offset: 0x458DA, size: 0x8, addend: 0x0, symName: __ZNKSt3__16vectorIjNS_9allocatorIjEEE8capacityB7v160006Ev, symObjAddr: 0x14F8C, symBinAddr: 0x10001ABB4, symSize: 0x40 }
  - { offsetInCU: 0x3B415, offset: 0x458FF, size: 0x8, addend: 0x0, symName: __ZNKSt3__16vectorIjNS_9allocatorIjEEE4sizeB7v160006Ev, symObjAddr: 0x14FCC, symBinAddr: 0x10001ABF4, symSize: 0x28 }
  - { offsetInCU: 0x3B43A, offset: 0x45924, size: 0x8, addend: 0x0, symName: __ZNSt3__16vectorIjNS_9allocatorIjEEE18__construct_at_endIPjLi0EEEvT_S6_m, symObjAddr: 0x15084, symBinAddr: 0x10001ACAC, symSize: 0x8C }
  - { offsetInCU: 0x3B4AD, offset: 0x45997, size: 0x8, addend: 0x0, symName: __ZNSt3__16vectorIjNS_9allocatorIjEEE17__destruct_at_endB7v160006EPj, symObjAddr: 0x15110, symBinAddr: 0x10001AD38, symSize: 0x60 }
  - { offsetInCU: 0x3B4F0, offset: 0x459DA, size: 0x8, addend: 0x0, symName: __ZNSt3__16vectorIjNS_9allocatorIjEEE13__vdeallocateEv, symObjAddr: 0x15170, symBinAddr: 0x10001AD98, symSize: 0x8C }
  - { offsetInCU: 0x3B517, offset: 0x45A01, size: 0x8, addend: 0x0, symName: __ZNSt3__16vectorIjNS_9allocatorIjEEE11__vallocateB7v160006Em, symObjAddr: 0x151FC, symBinAddr: 0x10001AE24, symSize: 0xAC }
  - { offsetInCU: 0x3B55A, offset: 0x45A44, size: 0x8, addend: 0x0, symName: __ZNKSt3__16vectorIjNS_9allocatorIjEEE11__recommendB7v160006Em, symObjAddr: 0x152A8, symBinAddr: 0x10001AED0, symSize: 0xB4 }
  - { offsetInCU: 0x3B5AE, offset: 0x45A98, size: 0x8, addend: 0x0, symName: __ZNKSt3__16vectorIjNS_9allocatorIjEEE9__end_capB7v160006Ev, symObjAddr: 0x15394, symBinAddr: 0x10001AFBC, symSize: 0x28 }
  - { offsetInCU: 0x3B5D3, offset: 0x45ABD, size: 0x8, addend: 0x0, symName: __ZNKSt3__117__compressed_pairIPjNS_9allocatorIjEEE5firstB7v160006Ev, symObjAddr: 0x153BC, symBinAddr: 0x10001AFE4, symSize: 0x24 }
  - { offsetInCU: 0x3B5F8, offset: 0x45AE2, size: 0x8, addend: 0x0, symName: __ZNKSt3__122__compressed_pair_elemIPjLi0ELb0EE5__getB7v160006Ev, symObjAddr: 0x153E0, symBinAddr: 0x10001B008, symSize: 0x14 }
  - { offsetInCU: 0x3B636, offset: 0x45B20, size: 0x8, addend: 0x0, symName: __ZNKSt3__114__copy_trivialclB7v160006IjjLi0EEENS_4pairIPT_PT0_EES4_S4_S6_, symObjAddr: 0x155B8, symBinAddr: 0x10001B1E0, symSize: 0x48 }
  - { offsetInCU: 0x3B6A3, offset: 0x45B8D, size: 0x8, addend: 0x0, symName: __ZNSt3__14pairIPjS1_EC1B7v160006IRS1_S1_LPv0EEEOT_OT0_, symObjAddr: 0x15780, symBinAddr: 0x10001B3A8, symSize: 0x3C }
  - { offsetInCU: 0x3B6FF, offset: 0x45BE9, size: 0x8, addend: 0x0, symName: __ZNSt3__14pairIPjS1_EC2B7v160006IRS1_S1_LPv0EEEOT_OT0_, symObjAddr: 0x157BC, symBinAddr: 0x10001B3E4, symSize: 0x34 }
  - { offsetInCU: 0x3B75C, offset: 0x45C46, size: 0x8, addend: 0x0, symName: __ZNSt3__118__unwrap_iter_implIPjLb1EE8__unwrapB7v160006ES1_, symObjAddr: 0x157F0, symBinAddr: 0x10001B418, symSize: 0x24 }
  - { offsetInCU: 0x3B77F, offset: 0x45C69, size: 0x8, addend: 0x0, symName: __ZNSt3__14pairIPjS1_EC1B7v160006IS1_S1_LPv0EEEOT_OT0_, symObjAddr: 0x15828, symBinAddr: 0x10001B450, symSize: 0x3C }
  - { offsetInCU: 0x3B7DB, offset: 0x45CC5, size: 0x8, addend: 0x0, symName: __ZNSt3__14pairIPjS1_EC2B7v160006IS1_S1_LPv0EEEOT_OT0_, symObjAddr: 0x15864, symBinAddr: 0x10001B48C, symSize: 0x34 }
  - { offsetInCU: 0x3B838, offset: 0x45D22, size: 0x8, addend: 0x0, symName: __ZNSt3__118__unwrap_iter_implIPjLb1EE8__rewrapB7v160006ES1_S1_, symObjAddr: 0x15898, symBinAddr: 0x10001B4C0, symSize: 0x50 }
  - { offsetInCU: 0x3B882, offset: 0x45D6C, size: 0x8, addend: 0x0, symName: __ZNSt3__16vectorIjNS_9allocatorIjEEE21_ConstructTransactionC1B7v160006ERS3_m, symObjAddr: 0x158E8, symBinAddr: 0x10001B510, symSize: 0x3C }
  - { offsetInCU: 0x3B8C8, offset: 0x45DB2, size: 0x8, addend: 0x0, symName: __ZNSt3__16vectorIjNS_9allocatorIjEEE7__allocB7v160006Ev, symObjAddr: 0x15A18, symBinAddr: 0x10001B640, symSize: 0x28 }
  - { offsetInCU: 0x3B8ED, offset: 0x45DD7, size: 0x8, addend: 0x0, symName: __ZNSt3__16vectorIjNS_9allocatorIjEEE21_ConstructTransactionD1B7v160006Ev, symObjAddr: 0x15A40, symBinAddr: 0x10001B668, symSize: 0x2C }
  - { offsetInCU: 0x3B915, offset: 0x45DFF, size: 0x8, addend: 0x0, symName: __ZNSt3__16vectorIjNS_9allocatorIjEEE21_ConstructTransactionC2B7v160006ERS3_m, symObjAddr: 0x15A6C, symBinAddr: 0x10001B694, symSize: 0x44 }
  - { offsetInCU: 0x3B95C, offset: 0x45E46, size: 0x8, addend: 0x0, symName: __ZNSt3__129_AllocatorDestroyRangeReverseINS_9allocatorIjEEPjEC1B7v160006ERS2_RS3_S6_, symObjAddr: 0x15AFC, symBinAddr: 0x10001B724, symSize: 0x44 }
  - { offsetInCU: 0x3B9B1, offset: 0x45E9B, size: 0x8, addend: 0x0, symName: __ZNSt3__116allocator_traitsINS_9allocatorIjEEE9constructB7v160006IjJRjEvEEvRS2_PT_DpOT0_, symObjAddr: 0x15B40, symBinAddr: 0x10001B768, symSize: 0x34 }
  - { offsetInCU: 0x3BA0A, offset: 0x45EF4, size: 0x8, addend: 0x0, symName: __ZNSt3__128__exception_guard_exceptionsINS_29_AllocatorDestroyRangeReverseINS_9allocatorIjEEPjEEE10__completeB7v160006Ev, symObjAddr: 0x15B74, symBinAddr: 0x10001B79C, symSize: 0x1C }
  - { offsetInCU: 0x3BA2F, offset: 0x45F19, size: 0x8, addend: 0x0, symName: __ZNSt3__128__exception_guard_exceptionsINS_29_AllocatorDestroyRangeReverseINS_9allocatorIjEEPjEEED1B7v160006Ev, symObjAddr: 0x15B90, symBinAddr: 0x10001B7B8, symSize: 0x2C }
  - { offsetInCU: 0x3BA57, offset: 0x45F41, size: 0x8, addend: 0x0, symName: __ZNSt3__128__exception_guard_exceptionsINS_29_AllocatorDestroyRangeReverseINS_9allocatorIjEEPjEEEC1B7v160006ES5_, symObjAddr: 0x15BBC, symBinAddr: 0x10001B7E4, symSize: 0x34 }
  - { offsetInCU: 0x3BA8E, offset: 0x45F78, size: 0x8, addend: 0x0, symName: __ZNSt3__128__exception_guard_exceptionsINS_29_AllocatorDestroyRangeReverseINS_9allocatorIjEEPjEEEC2B7v160006ES5_, symObjAddr: 0x15BF0, symBinAddr: 0x10001B818, symSize: 0x30 }
  - { offsetInCU: 0x3BAC6, offset: 0x45FB0, size: 0x8, addend: 0x0, symName: __ZNSt3__129_AllocatorDestroyRangeReverseINS_9allocatorIjEEPjEC2B7v160006ERS2_RS3_S6_, symObjAddr: 0x15C20, symBinAddr: 0x10001B848, symSize: 0x38 }
  - { offsetInCU: 0x3BB1C, offset: 0x46006, size: 0x8, addend: 0x0, symName: __ZNSt3__19allocatorIjE9constructB7v160006IjJRjEEEvPT_DpOT0_, symObjAddr: 0x15C58, symBinAddr: 0x10001B880, symSize: 0x28 }
  - { offsetInCU: 0x3BB72, offset: 0x4605C, size: 0x8, addend: 0x0, symName: __ZNSt3__128__exception_guard_exceptionsINS_29_AllocatorDestroyRangeReverseINS_9allocatorIjEEPjEEED2B7v160006Ev, symObjAddr: 0x15C80, symBinAddr: 0x10001B8A8, symSize: 0x50 }
  - { offsetInCU: 0x3BB9A, offset: 0x46084, size: 0x8, addend: 0x0, symName: __ZNKSt3__129_AllocatorDestroyRangeReverseINS_9allocatorIjEEPjEclB7v160006Ev, symObjAddr: 0x15CD0, symBinAddr: 0x10001B8F8, symSize: 0x68 }
  - { offsetInCU: 0x3BBBF, offset: 0x460A9, size: 0x8, addend: 0x0, symName: __ZNSt3__116reverse_iteratorIPjEC1B7v160006ES1_, symObjAddr: 0x15DA8, symBinAddr: 0x10001B9D0, symSize: 0x34 }
  - { offsetInCU: 0x3BBF5, offset: 0x460DF, size: 0x8, addend: 0x0, symName: __ZNSt3__116allocator_traitsINS_9allocatorIjEEE7destroyB7v160006IjvEEvRS2_PT_, symObjAddr: 0x15E24, symBinAddr: 0x10001BA4C, symSize: 0x2C }
  - { offsetInCU: 0x3BC33, offset: 0x4611D, size: 0x8, addend: 0x0, symName: __ZNSt3__116reverse_iteratorIPjEppB7v160006Ev, symObjAddr: 0x15E74, symBinAddr: 0x10001BA9C, symSize: 0x20 }
  - { offsetInCU: 0x3BC58, offset: 0x46142, size: 0x8, addend: 0x0, symName: __ZNKSt3__116reverse_iteratorIPjE4baseB7v160006Ev, symObjAddr: 0x15E94, symBinAddr: 0x10001BABC, symSize: 0x18 }
  - { offsetInCU: 0x3BC7D, offset: 0x46167, size: 0x8, addend: 0x0, symName: __ZNSt3__19allocatorIjE7destroyB7v160006EPj, symObjAddr: 0x15EAC, symBinAddr: 0x10001BAD4, symSize: 0x14 }
  - { offsetInCU: 0x3BCB5, offset: 0x4619F, size: 0x8, addend: 0x0, symName: __ZNSt3__119__to_address_helperINS_16reverse_iteratorIPjEEvE6__callB7v160006ERKS3_, symObjAddr: 0x15EC0, symBinAddr: 0x10001BAE8, symSize: 0x38 }
  - { offsetInCU: 0x3BCD8, offset: 0x461C2, size: 0x8, addend: 0x0, symName: __ZNKSt3__116reverse_iteratorIPjEptB7v160006Ev, symObjAddr: 0x15EF8, symBinAddr: 0x10001BB20, symSize: 0x24 }
  - { offsetInCU: 0x3BCFD, offset: 0x461E7, size: 0x8, addend: 0x0, symName: __ZNKSt3__116reverse_iteratorIPjEdeB7v160006Ev, symObjAddr: 0x15F1C, symBinAddr: 0x10001BB44, symSize: 0x28 }
  - { offsetInCU: 0x3BD30, offset: 0x4621A, size: 0x8, addend: 0x0, symName: __ZNSt3__116reverse_iteratorIPjEC2B7v160006ES1_, symObjAddr: 0x15F44, symBinAddr: 0x10001BB6C, symSize: 0x28 }
  - { offsetInCU: 0x3BD67, offset: 0x46251, size: 0x8, addend: 0x0, symName: __ZNSt3__117__compressed_pairIPjNS_9allocatorIjEEE6secondB7v160006Ev, symObjAddr: 0x15F6C, symBinAddr: 0x10001BB94, symSize: 0x24 }
  - { offsetInCU: 0x3BD8C, offset: 0x46276, size: 0x8, addend: 0x0, symName: __ZNSt3__122__compressed_pair_elemINS_9allocatorIjEELi1ELb1EE5__getB7v160006Ev, symObjAddr: 0x15F90, symBinAddr: 0x10001BBB8, symSize: 0x14 }
  - { offsetInCU: 0x3BDB1, offset: 0x4629B, size: 0x8, addend: 0x0, symName: __ZNSt3__16vectorIjNS_9allocatorIjEEE21_ConstructTransactionD2B7v160006Ev, symObjAddr: 0x15FA4, symBinAddr: 0x10001BBCC, symSize: 0x20 }
  - { offsetInCU: 0x3BDDA, offset: 0x462C4, size: 0x8, addend: 0x0, symName: __ZNSt3__16vectorIjNS_9allocatorIjEEE27__invalidate_iterators_pastB7v160006EPj, symObjAddr: 0x15FC4, symBinAddr: 0x10001BBEC, symSize: 0x14 }
  - { offsetInCU: 0x3BE10, offset: 0x462FA, size: 0x8, addend: 0x0, symName: __ZNSt3__16vectorIjNS_9allocatorIjEEE22__base_destruct_at_endB7v160006EPj, symObjAddr: 0x15FD8, symBinAddr: 0x10001BC00, symSize: 0x8C }
  - { offsetInCU: 0x3BE53, offset: 0x4633D, size: 0x8, addend: 0x0, symName: __ZNKSt3__16vectorIjNS_9allocatorIjEEE17__annotate_shrinkB7v160006Em, symObjAddr: 0x16064, symBinAddr: 0x10001BC8C, symSize: 0xB4 }
  - { offsetInCU: 0x3BE87, offset: 0x46371, size: 0x8, addend: 0x0, symName: __ZNKSt3__16vectorIjNS_9allocatorIjEEE31__annotate_contiguous_containerB7v160006EPKvS5_S5_S5_, symObjAddr: 0x16118, symBinAddr: 0x10001BD40, symSize: 0x20 }
  - { offsetInCU: 0x3BEDC, offset: 0x463C6, size: 0x8, addend: 0x0, symName: __ZNKSt3__16vectorIjNS_9allocatorIjEEE4dataB7v160006Ev, symObjAddr: 0x16138, symBinAddr: 0x10001BD60, symSize: 0x28 }
  - { offsetInCU: 0x3BF01, offset: 0x463EB, size: 0x8, addend: 0x0, symName: __ZNSt3__16vectorIjNS_9allocatorIjEEE5clearB7v160006Ev, symObjAddr: 0x16160, symBinAddr: 0x10001BD88, symSize: 0x54 }
  - { offsetInCU: 0x3BF35, offset: 0x4641F, size: 0x8, addend: 0x0, symName: __ZNSt3__116allocator_traitsINS_9allocatorIjEEE10deallocateB7v160006ERS2_Pjm, symObjAddr: 0x161B4, symBinAddr: 0x10001BDDC, symSize: 0x34 }
  - { offsetInCU: 0x3BF77, offset: 0x46461, size: 0x8, addend: 0x0, symName: __ZNSt3__16vectorIjNS_9allocatorIjEEE9__end_capB7v160006Ev, symObjAddr: 0x161E8, symBinAddr: 0x10001BE10, symSize: 0x28 }
  - { offsetInCU: 0x3BF9C, offset: 0x46486, size: 0x8, addend: 0x0, symName: __ZNSt3__16vectorIjNS_9allocatorIjEEE7__clearB7v160006Ev, symObjAddr: 0x16210, symBinAddr: 0x10001BE38, symSize: 0x28 }
  - { offsetInCU: 0x3BFC1, offset: 0x464AB, size: 0x8, addend: 0x0, symName: __ZNSt3__19allocatorIjE10deallocateB7v160006EPjm, symObjAddr: 0x16238, symBinAddr: 0x10001BE60, symSize: 0x40 }
  - { offsetInCU: 0x3C002, offset: 0x464EC, size: 0x8, addend: 0x0, symName: __ZNSt3__117__compressed_pairIPjNS_9allocatorIjEEE5firstB7v160006Ev, symObjAddr: 0x16278, symBinAddr: 0x10001BEA0, symSize: 0x24 }
  - { offsetInCU: 0x3C027, offset: 0x46511, size: 0x8, addend: 0x0, symName: __ZNSt3__122__compressed_pair_elemIPjLi0ELb0EE5__getB7v160006Ev, symObjAddr: 0x1629C, symBinAddr: 0x10001BEC4, symSize: 0x14 }
  - { offsetInCU: 0x3C04C, offset: 0x46536, size: 0x8, addend: 0x0, symName: __ZNKSt3__16vectorIjNS_9allocatorIjEEE8max_sizeEv, symObjAddr: 0x162B0, symBinAddr: 0x10001BED8, symSize: 0x60 }
  - { offsetInCU: 0x3C073, offset: 0x4655D, size: 0x8, addend: 0x0, symName: __ZNKSt3__16vectorIjNS_9allocatorIjEEE20__throw_length_errorB7v160006Ev, symObjAddr: 0x16310, symBinAddr: 0x10001BF38, symSize: 0x1C }
  - { offsetInCU: 0x3C098, offset: 0x46582, size: 0x8, addend: 0x0, symName: __ZNKSt3__16vectorIjNS_9allocatorIjEEE14__annotate_newB7v160006Em, symObjAddr: 0x1636C, symBinAddr: 0x10001BF94, symSize: 0xAC }
  - { offsetInCU: 0x3C0D6, offset: 0x465C0, size: 0x8, addend: 0x0, symName: __ZNSt3__116allocator_traitsINS_9allocatorIjEEE8max_sizeB7v160006IS2_vEEmRKS2_, symObjAddr: 0x16418, symBinAddr: 0x10001C040, symSize: 0x24 }
  - { offsetInCU: 0x3C105, offset: 0x465EF, size: 0x8, addend: 0x0, symName: __ZNKSt3__16vectorIjNS_9allocatorIjEEE7__allocB7v160006Ev, symObjAddr: 0x1643C, symBinAddr: 0x10001C064, symSize: 0x28 }
  - { offsetInCU: 0x3C12A, offset: 0x46614, size: 0x8, addend: 0x0, symName: __ZNKSt3__19allocatorIjE8max_sizeB7v160006Ev, symObjAddr: 0x16464, symBinAddr: 0x10001C08C, symSize: 0x14 }
  - { offsetInCU: 0x3C14F, offset: 0x46639, size: 0x8, addend: 0x0, symName: __ZNKSt3__117__compressed_pairIPjNS_9allocatorIjEEE6secondB7v160006Ev, symObjAddr: 0x16478, symBinAddr: 0x10001C0A0, symSize: 0x24 }
  - { offsetInCU: 0x3C174, offset: 0x4665E, size: 0x8, addend: 0x0, symName: __ZNKSt3__122__compressed_pair_elemINS_9allocatorIjEELi1ELb1EE5__getB7v160006Ev, symObjAddr: 0x1649C, symBinAddr: 0x10001C0C4, symSize: 0x14 }
  - { offsetInCU: 0x3C199, offset: 0x46683, size: 0x8, addend: 0x0, symName: __ZNSt3__19allocatorIjE8allocateB7v160006Em, symObjAddr: 0x164B0, symBinAddr: 0x10001C0D8, symSize: 0x58 }
  - { offsetInCU: 0x3C1CC, offset: 0x466B6, size: 0x8, addend: 0x0, symName: __ZNKSt3__122__unordered_map_hasherINS_12basic_stringIcNS_11char_traitsIcEENS_9allocatorIcEEEENS_17__hash_value_typeIS6_NS_6vectorIjNS4_IjEEEEEENS_4hashIS6_EENS_8equal_toIS6_EELb1EEclB7v160006ERKSB_, symObjAddr: 0x16508, symBinAddr: 0x10001C130, symSize: 0x3C }
  - { offsetInCU: 0x3C200, offset: 0x466EA, size: 0x8, addend: 0x0, symName: __ZNSt3__112__hash_tableINS_17__hash_value_typeINS_12basic_stringIcNS_11char_traitsIcEENS_9allocatorIcEEEENS_6vectorIjNS5_IjEEEEEENS_22__unordered_map_hasherIS7_SB_NS_4hashIS7_EENS_8equal_toIS7_EELb1EEENS_21__unordered_map_equalIS7_SB_SG_SE_Lb1EEENS5_ISB_EEE27__node_insert_multi_prepareEmRSB_, symObjAddr: 0x16544, symBinAddr: 0x10001C16C, symSize: 0x29C }
  - { offsetInCU: 0x3C291, offset: 0x4677B, size: 0x8, addend: 0x0, symName: __ZNKSt3__116__hash_node_baseIPNS_11__hash_nodeINS_17__hash_value_typeINS_12basic_stringIcNS_11char_traitsIcEENS_9allocatorIcEEEENS_6vectorIjNS6_IjEEEEEEPvEEE6__hashB7v160006Ev, symObjAddr: 0x167E0, symBinAddr: 0x10001C408, symSize: 0x18 }
  - { offsetInCU: 0x3C2B6, offset: 0x467A0, size: 0x8, addend: 0x0, symName: __ZNSt3__112__hash_tableINS_17__hash_value_typeINS_12basic_stringIcNS_11char_traitsIcEENS_9allocatorIcEEEENS_6vectorIjNS5_IjEEEEEENS_22__unordered_map_hasherIS7_SB_NS_4hashIS7_EENS_8equal_toIS7_EELb1EEENS_21__unordered_map_equalIS7_SB_SG_SE_Lb1EEENS5_ISB_EEE27__node_insert_multi_performEPNS_11__hash_nodeISB_PvEEPNS_16__hash_node_baseISP_EE, symObjAddr: 0x167F8, symBinAddr: 0x10001C420, symSize: 0x1B8 }
  - { offsetInCU: 0x3C337, offset: 0x46821, size: 0x8, addend: 0x0, symName: __ZNSt3__116__hash_node_baseIPNS_11__hash_nodeINS_17__hash_value_typeINS_12basic_stringIcNS_11char_traitsIcEENS_9allocatorIcEEEENS_6vectorIjNS6_IjEEEEEEPvEEE5__ptrB7v160006Ev, symObjAddr: 0x169B0, symBinAddr: 0x10001C5D8, symSize: 0x24 }
  - { offsetInCU: 0x3C35C, offset: 0x46846, size: 0x8, addend: 0x0, symName: __ZNSt3__115__hash_iteratorIPNS_11__hash_nodeINS_17__hash_value_typeINS_12basic_stringIcNS_11char_traitsIcEENS_9allocatorIcEEEENS_6vectorIjNS6_IjEEEEEEPvEEEC1B7v160006EPNS_16__hash_node_baseISF_EEPKv, symObjAddr: 0x169D4, symBinAddr: 0x10001C5FC, symSize: 0x3C }
  - { offsetInCU: 0x3C3A2, offset: 0x4688C, size: 0x8, addend: 0x0, symName: __ZNSt3__112__hash_tableINS_17__hash_value_typeINS_12basic_stringIcNS_11char_traitsIcEENS_9allocatorIcEEEENS_6vectorIjNS5_IjEEEEEENS_22__unordered_map_hasherIS7_SB_NS_4hashIS7_EENS_8equal_toIS7_EELb1EEENS_21__unordered_map_equalIS7_SB_SG_SE_Lb1EEENS5_ISB_EEE14__rehash_multiB7v160006Em, symObjAddr: 0x16A10, symBinAddr: 0x10001C638, symSize: 0x2C }
  - { offsetInCU: 0x3C3D6, offset: 0x468C0, size: 0x8, addend: 0x0, symName: __ZNKSt3__121__unordered_map_equalINS_12basic_stringIcNS_11char_traitsIcEENS_9allocatorIcEEEENS_17__hash_value_typeIS6_NS_6vectorIjNS4_IjEEEEEENS_8equal_toIS6_EENS_4hashIS6_EELb1EEclB7v160006ERKSB_SI_, symObjAddr: 0x16A3C, symBinAddr: 0x10001C664, symSize: 0x54 }
  - { offsetInCU: 0x3C419, offset: 0x46903, size: 0x8, addend: 0x0, symName: __ZNSt3__112__hash_tableINS_17__hash_value_typeINS_12basic_stringIcNS_11char_traitsIcEENS_9allocatorIcEEEENS_6vectorIjNS5_IjEEEEEENS_22__unordered_map_hasherIS7_SB_NS_4hashIS7_EENS_8equal_toIS7_EELb1EEENS_21__unordered_map_equalIS7_SB_SG_SE_Lb1EEENS5_ISB_EEE8__rehashILb0EEEvm, symObjAddr: 0x16A90, symBinAddr: 0x10001C6B8, symSize: 0x1A8 }
  - { offsetInCU: 0x3C468, offset: 0x46952, size: 0x8, addend: 0x0, symName: __ZNSt3__112__hash_tableINS_17__hash_value_typeINS_12basic_stringIcNS_11char_traitsIcEENS_9allocatorIcEEEENS_6vectorIjNS5_IjEEEEEENS_22__unordered_map_hasherIS7_SB_NS_4hashIS7_EENS_8equal_toIS7_EELb1EEENS_21__unordered_map_equalIS7_SB_SG_SE_Lb1EEENS5_ISB_EEE11__do_rehashILb0EEEvm, symObjAddr: 0x16C38, symBinAddr: 0x10001C860, symSize: 0x318 }
  - { offsetInCU: 0x3C54E, offset: 0x46A38, size: 0x8, addend: 0x0, symName: __ZNSt3__110unique_ptrIA_PNS_16__hash_node_baseIPNS_11__hash_nodeINS_17__hash_value_typeINS_12basic_stringIcNS_11char_traitsIcEENS_9allocatorIcEEEENS_6vectorIjNS7_IjEEEEEEPvEEEENS_25__bucket_list_deallocatorINS7_ISI_EEEEE11get_deleterB7v160006Ev, symObjAddr: 0x16F60, symBinAddr: 0x10001CB88, symSize: 0x24 }
  - { offsetInCU: 0x3C573, offset: 0x46A5D, size: 0x8, addend: 0x0, symName: __ZNSt3__125__bucket_list_deallocatorINS_9allocatorIPNS_16__hash_node_baseIPNS_11__hash_nodeINS_17__hash_value_typeINS_12basic_stringIcNS_11char_traitsIcEENS1_IcEEEENS_6vectorIjNS1_IjEEEEEEPvEEEEEEE7__allocB7v160006Ev, symObjAddr: 0x16F84, symBinAddr: 0x10001CBAC, symSize: 0x24 }
  - { offsetInCU: 0x3C598, offset: 0x46A82, size: 0x8, addend: 0x0, symName: __ZNSt3__110unique_ptrIA_PNS_16__hash_node_baseIPNS_11__hash_nodeINS_17__hash_value_typeINS_12basic_stringIcNS_11char_traitsIcEENS_9allocatorIcEEEENS_6vectorIjNS7_IjEEEEEEPvEEEENS_25__bucket_list_deallocatorINS7_ISI_EEEEE5resetB7v160006IPSI_EENS_9enable_ifIXsr28_CheckArrayPointerConversionIT_EE5valueEvE4typeESR_, symObjAddr: 0x16FA8, symBinAddr: 0x10001CBD0, symSize: 0x78 }
  - { offsetInCU: 0x3C5E4, offset: 0x46ACE, size: 0x8, addend: 0x0, symName: __ZNSt3__116allocator_traitsINS_9allocatorIPNS_16__hash_node_baseIPNS_11__hash_nodeINS_17__hash_value_typeINS_12basic_stringIcNS_11char_traitsIcEENS1_IcEEEENS_6vectorIjNS1_IjEEEEEEPvEEEEEEE8allocateB7v160006ERSJ_m, symObjAddr: 0x17020, symBinAddr: 0x10001CC48, symSize: 0x2C }
  - { offsetInCU: 0x3C617, offset: 0x46B01, size: 0x8, addend: 0x0, symName: __ZNSt3__125__bucket_list_deallocatorINS_9allocatorIPNS_16__hash_node_baseIPNS_11__hash_nodeINS_17__hash_value_typeINS_12basic_stringIcNS_11char_traitsIcEENS1_IcEEEENS_6vectorIjNS1_IjEEEEEEPvEEEEEEE4sizeB7v160006Ev, symObjAddr: 0x1704C, symBinAddr: 0x10001CC74, symSize: 0x24 }
  - { offsetInCU: 0x3C63C, offset: 0x46B26, size: 0x8, addend: 0x0, symName: __ZNSt3__117__compressed_pairIPPNS_16__hash_node_baseIPNS_11__hash_nodeINS_17__hash_value_typeINS_12basic_stringIcNS_11char_traitsIcEENS_9allocatorIcEEEENS_6vectorIjNS7_IjEEEEEEPvEEEENS_25__bucket_list_deallocatorINS7_ISI_EEEEE6secondB7v160006Ev, symObjAddr: 0x17070, symBinAddr: 0x10001CC98, symSize: 0x28 }
  - { offsetInCU: 0x3C661, offset: 0x46B4B, size: 0x8, addend: 0x0, symName: __ZNSt3__122__compressed_pair_elemINS_25__bucket_list_deallocatorINS_9allocatorIPNS_16__hash_node_baseIPNS_11__hash_nodeINS_17__hash_value_typeINS_12basic_stringIcNS_11char_traitsIcEENS2_IcEEEENS_6vectorIjNS2_IjEEEEEEPvEEEEEEEELi1ELb0EE5__getB7v160006Ev, symObjAddr: 0x17098, symBinAddr: 0x10001CCC0, symSize: 0x14 }
  - { offsetInCU: 0x3C686, offset: 0x46B70, size: 0x8, addend: 0x0, symName: __ZNSt3__117__compressed_pairImNS_9allocatorIPNS_16__hash_node_baseIPNS_11__hash_nodeINS_17__hash_value_typeINS_12basic_stringIcNS_11char_traitsIcEENS1_IcEEEENS_6vectorIjNS1_IjEEEEEEPvEEEEEEE6secondB7v160006Ev, symObjAddr: 0x170AC, symBinAddr: 0x10001CCD4, symSize: 0x24 }
  - { offsetInCU: 0x3C6AB, offset: 0x46B95, size: 0x8, addend: 0x0, symName: __ZNSt3__122__compressed_pair_elemINS_9allocatorIPNS_16__hash_node_baseIPNS_11__hash_nodeINS_17__hash_value_typeINS_12basic_stringIcNS_11char_traitsIcEENS1_IcEEEENS_6vectorIjNS1_IjEEEEEEPvEEEEEELi1ELb1EE5__getB7v160006Ev, symObjAddr: 0x170D0, symBinAddr: 0x10001CCF8, symSize: 0x14 }
  - { offsetInCU: 0x3C6D0, offset: 0x46BBA, size: 0x8, addend: 0x0, symName: __ZNSt3__117__compressed_pairIPPNS_16__hash_node_baseIPNS_11__hash_nodeINS_17__hash_value_typeINS_12basic_stringIcNS_11char_traitsIcEENS_9allocatorIcEEEENS_6vectorIjNS7_IjEEEEEEPvEEEENS_25__bucket_list_deallocatorINS7_ISI_EEEEE5firstB7v160006Ev, symObjAddr: 0x170E4, symBinAddr: 0x10001CD0C, symSize: 0x24 }
  - { offsetInCU: 0x3C6F5, offset: 0x46BDF, size: 0x8, addend: 0x0, symName: __ZNSt3__125__bucket_list_deallocatorINS_9allocatorIPNS_16__hash_node_baseIPNS_11__hash_nodeINS_17__hash_value_typeINS_12basic_stringIcNS_11char_traitsIcEENS1_IcEEEENS_6vectorIjNS1_IjEEEEEEPvEEEEEEEclB7v160006EPSI_, symObjAddr: 0x17108, symBinAddr: 0x10001CD30, symSize: 0x58 }
  - { offsetInCU: 0x3C729, offset: 0x46C13, size: 0x8, addend: 0x0, symName: __ZNSt3__122__compressed_pair_elemIPPNS_16__hash_node_baseIPNS_11__hash_nodeINS_17__hash_value_typeINS_12basic_stringIcNS_11char_traitsIcEENS_9allocatorIcEEEENS_6vectorIjNS7_IjEEEEEEPvEEEELi0ELb0EE5__getB7v160006Ev, symObjAddr: 0x17160, symBinAddr: 0x10001CD88, symSize: 0x14 }
  - { offsetInCU: 0x3C74E, offset: 0x46C38, size: 0x8, addend: 0x0, symName: __ZNSt3__116allocator_traitsINS_9allocatorIPNS_16__hash_node_baseIPNS_11__hash_nodeINS_17__hash_value_typeINS_12basic_stringIcNS_11char_traitsIcEENS1_IcEEEENS_6vectorIjNS1_IjEEEEEEPvEEEEEEE10deallocateB7v160006ERSJ_PSI_m, symObjAddr: 0x17174, symBinAddr: 0x10001CD9C, symSize: 0x34 }
  - { offsetInCU: 0x3C790, offset: 0x46C7A, size: 0x8, addend: 0x0, symName: __ZNSt3__19allocatorIPNS_16__hash_node_baseIPNS_11__hash_nodeINS_17__hash_value_typeINS_12basic_stringIcNS_11char_traitsIcEENS0_IcEEEENS_6vectorIjNS0_IjEEEEEEPvEEEEE10deallocateB7v160006EPSH_m, symObjAddr: 0x171A8, symBinAddr: 0x10001CDD0, symSize: 0x40 }
  - { offsetInCU: 0x3C7D1, offset: 0x46CBB, size: 0x8, addend: 0x0, symName: __ZNSt3__19allocatorIPNS_16__hash_node_baseIPNS_11__hash_nodeINS_17__hash_value_typeINS_12basic_stringIcNS_11char_traitsIcEENS0_IcEEEENS_6vectorIjNS0_IjEEEEEEPvEEEEE8allocateB7v160006Em, symObjAddr: 0x171E8, symBinAddr: 0x10001CE10, symSize: 0x58 }
  - { offsetInCU: 0x3C80E, offset: 0x46CF8, size: 0x8, addend: 0x0, symName: __ZNSt3__116allocator_traitsINS_9allocatorIPNS_16__hash_node_baseIPNS_11__hash_nodeINS_17__hash_value_typeINS_12basic_stringIcNS_11char_traitsIcEENS1_IcEEEENS_6vectorIjNS1_IjEEEEEEPvEEEEEEE8max_sizeB7v160006ISJ_vEEmRKSJ_, symObjAddr: 0x17240, symBinAddr: 0x10001CE68, symSize: 0x24 }
  - { offsetInCU: 0x3C83D, offset: 0x46D27, size: 0x8, addend: 0x0, symName: __ZNKSt3__19allocatorIPNS_16__hash_node_baseIPNS_11__hash_nodeINS_17__hash_value_typeINS_12basic_stringIcNS_11char_traitsIcEENS0_IcEEEENS_6vectorIjNS0_IjEEEEEEPvEEEEE8max_sizeB7v160006Ev, symObjAddr: 0x17264, symBinAddr: 0x10001CE8C, symSize: 0x14 }
  - { offsetInCU: 0x3C862, offset: 0x46D4C, size: 0x8, addend: 0x0, symName: __ZNSt3__117__compressed_pairImNS_9allocatorIPNS_16__hash_node_baseIPNS_11__hash_nodeINS_17__hash_value_typeINS_12basic_stringIcNS_11char_traitsIcEENS1_IcEEEENS_6vectorIjNS1_IjEEEEEEPvEEEEEEE5firstB7v160006Ev, symObjAddr: 0x17278, symBinAddr: 0x10001CEA0, symSize: 0x24 }
  - { offsetInCU: 0x3C887, offset: 0x46D71, size: 0x8, addend: 0x0, symName: __ZNSt3__115__hash_iteratorIPNS_11__hash_nodeINS_17__hash_value_typeINS_12basic_stringIcNS_11char_traitsIcEENS_9allocatorIcEEEENS_6vectorIjNS6_IjEEEEEEPvEEEC2B7v160006EPNS_16__hash_node_baseISF_EEPKv, symObjAddr: 0x1729C, symBinAddr: 0x10001CEC4, symSize: 0x24 }
  - { offsetInCU: 0x3C8CE, offset: 0x46DB8, size: 0x8, addend: 0x0, symName: __ZNSt3__112__hash_tableINS_17__hash_value_typeINS_12basic_stringIcNS_11char_traitsIcEENS_9allocatorIcEEEENS_6vectorIjNS5_IjEEEEEENS_22__unordered_map_hasherIS7_SB_NS_4hashIS7_EENS_8equal_toIS7_EELb1EEENS_21__unordered_map_equalIS7_SB_SG_SE_Lb1EEENS5_ISB_EEE12__node_allocB7v160006Ev, symObjAddr: 0x172C0, symBinAddr: 0x10001CEE8, symSize: 0x28 }
  - { offsetInCU: 0x3C8F3, offset: 0x46DDD, size: 0x8, addend: 0x0, symName: __ZNSt3__116allocator_traitsINS_9allocatorINS_11__hash_nodeINS_17__hash_value_typeINS_12basic_stringIcNS_11char_traitsIcEENS1_IcEEEENS_6vectorIjNS1_IjEEEEEEPvEEEEE7destroyB7v160006INS_4pairIKS8_SB_EEvvEEvRSF_PT_, symObjAddr: 0x172E8, symBinAddr: 0x10001CF10, symSize: 0x28 }
  - { offsetInCU: 0x3C930, offset: 0x46E1A, size: 0x8, addend: 0x0, symName: __ZNSt3__122__hash_key_value_typesINS_17__hash_value_typeINS_12basic_stringIcNS_11char_traitsIcEENS_9allocatorIcEEEENS_6vectorIjNS5_IjEEEEEEE9__get_ptrB7v160006ERSB_, symObjAddr: 0x17310, symBinAddr: 0x10001CF38, symSize: 0x24 }
  - { offsetInCU: 0x3C953, offset: 0x46E3D, size: 0x8, addend: 0x0, symName: __ZNSt3__116allocator_traitsINS_9allocatorINS_11__hash_nodeINS_17__hash_value_typeINS_12basic_stringIcNS_11char_traitsIcEENS1_IcEEEENS_6vectorIjNS1_IjEEEEEEPvEEEEE10deallocateB7v160006ERSF_PSE_m, symObjAddr: 0x17334, symBinAddr: 0x10001CF5C, symSize: 0x34 }
  - { offsetInCU: 0x3C995, offset: 0x46E7F, size: 0x8, addend: 0x0, symName: __ZNSt3__117__compressed_pairINS_16__hash_node_baseIPNS_11__hash_nodeINS_17__hash_value_typeINS_12basic_stringIcNS_11char_traitsIcEENS_9allocatorIcEEEENS_6vectorIjNS7_IjEEEEEEPvEEEENS7_ISF_EEE6secondB7v160006Ev, symObjAddr: 0x17368, symBinAddr: 0x10001CF90, symSize: 0x24 }
  - { offsetInCU: 0x3C9BA, offset: 0x46EA4, size: 0x8, addend: 0x0, symName: __ZNSt3__122__compressed_pair_elemINS_9allocatorINS_11__hash_nodeINS_17__hash_value_typeINS_12basic_stringIcNS_11char_traitsIcEENS1_IcEEEENS_6vectorIjNS1_IjEEEEEEPvEEEELi1ELb1EE5__getB7v160006Ev, symObjAddr: 0x1738C, symBinAddr: 0x10001CFB4, symSize: 0x14 }
  - { offsetInCU: 0x3C9DF, offset: 0x46EC9, size: 0x8, addend: 0x0, symName: __ZNSt3__14pairIKNS_12basic_stringIcNS_11char_traitsIcEENS_9allocatorIcEEEENS_6vectorIjNS4_IjEEEEED1Ev, symObjAddr: 0x173A0, symBinAddr: 0x10001CFC8, symSize: 0x2C }
  - { offsetInCU: 0x3CA0A, offset: 0x46EF4, size: 0x8, addend: 0x0, symName: __ZNSt3__14pairIKNS_12basic_stringIcNS_11char_traitsIcEENS_9allocatorIcEEEENS_6vectorIjNS4_IjEEEEED2Ev, symObjAddr: 0x173CC, symBinAddr: 0x10001CFF4, symSize: 0x38 }
  - { offsetInCU: 0x3CA35, offset: 0x46F1F, size: 0x8, addend: 0x0, symName: __ZNSt3__16vectorIjNS_9allocatorIjEEED1B7v160006Ev, symObjAddr: 0x17404, symBinAddr: 0x10001D02C, symSize: 0x2C }
  - { offsetInCU: 0x3CA5D, offset: 0x46F47, size: 0x8, addend: 0x0, symName: __ZNSt3__16vectorIjNS_9allocatorIjEEED2B7v160006Ev, symObjAddr: 0x17430, symBinAddr: 0x10001D058, symSize: 0x44 }
  - { offsetInCU: 0x3CA85, offset: 0x46F6F, size: 0x8, addend: 0x0, symName: __ZNSt3__16vectorIjNS_9allocatorIjEEE16__destroy_vectorC1ERS3_, symObjAddr: 0x17474, symBinAddr: 0x10001D09C, symSize: 0x34 }
  - { offsetInCU: 0x3CABC, offset: 0x46FA6, size: 0x8, addend: 0x0, symName: __ZNSt3__16vectorIjNS_9allocatorIjEEE16__destroy_vectorclB7v160006Ev, symObjAddr: 0x174A8, symBinAddr: 0x10001D0D0, symSize: 0x9C }
  - { offsetInCU: 0x3CAE1, offset: 0x46FCB, size: 0x8, addend: 0x0, symName: __ZNSt3__16vectorIjNS_9allocatorIjEEE16__destroy_vectorC2ERS3_, symObjAddr: 0x17544, symBinAddr: 0x10001D16C, symSize: 0x20 }
  - { offsetInCU: 0x3CB19, offset: 0x47003, size: 0x8, addend: 0x0, symName: __ZNKSt3__16vectorIjNS_9allocatorIjEEE17__annotate_deleteB7v160006Ev, symObjAddr: 0x17564, symBinAddr: 0x10001D18C, symSize: 0xB8 }
  - { offsetInCU: 0x3CB3E, offset: 0x47028, size: 0x8, addend: 0x0, symName: __ZNSt3__19allocatorINS_11__hash_nodeINS_17__hash_value_typeINS_12basic_stringIcNS_11char_traitsIcEENS0_IcEEEENS_6vectorIjNS0_IjEEEEEEPvEEE10deallocateB7v160006EPSD_m, symObjAddr: 0x1762C, symBinAddr: 0x10001D254, symSize: 0x40 }
  - { offsetInCU: 0x3CB7F, offset: 0x47069, size: 0x8, addend: 0x0, symName: __ZNSt3__112__hash_tableINS_17__hash_value_typeINS_12basic_stringIcNS_11char_traitsIcEENS_9allocatorIcEEEENS_6vectorIjNS5_IjEEEEEENS_22__unordered_map_hasherIS7_SB_NS_4hashIS7_EENS_8equal_toIS7_EELb1EEENS_21__unordered_map_equalIS7_SB_SG_SE_Lb1EEENS5_ISB_EEE15__emplace_multiIJRKNS_4pairIKS7_SA_EEEEENS_15__hash_iteratorIPNS_11__hash_nodeISB_PvEEEEDpOT_, symObjAddr: 0x1766C, symBinAddr: 0x10001D294, symSize: 0x94 }
  - { offsetInCU: 0x3CBDF, offset: 0x470C9, size: 0x8, addend: 0x0, symName: __ZNSt3__112__hash_tableINS_17__hash_value_typeINS_12basic_stringIcNS_11char_traitsIcEENS_9allocatorIcEEEENS_6vectorIjNS5_IjEEEEEENS_22__unordered_map_hasherIS7_SB_NS_4hashIS7_EENS_8equal_toIS7_EELb1EEENS_21__unordered_map_equalIS7_SB_SG_SE_Lb1EEENS5_ISB_EEE16__construct_nodeIJRKNS_4pairIKS7_SA_EEEEENS_10unique_ptrINS_11__hash_nodeISB_PvEENS_22__hash_node_destructorINS5_ISV_EEEEEEDpOT_, symObjAddr: 0x17700, symBinAddr: 0x10001D328, symSize: 0x160 }
  - { offsetInCU: 0x3CC40, offset: 0x4712A, size: 0x8, addend: 0x0, symName: __ZNKSt3__110unique_ptrINS_11__hash_nodeINS_17__hash_value_typeINS_12basic_stringIcNS_11char_traitsIcEENS_9allocatorIcEEEENS_6vectorIjNS6_IjEEEEEEPvEENS_22__hash_node_destructorINS6_ISE_EEEEE3getB7v160006Ev, symObjAddr: 0x17860, symBinAddr: 0x10001D488, symSize: 0x28 }
  - { offsetInCU: 0x3CC65, offset: 0x4714F, size: 0x8, addend: 0x0, symName: __ZNSt3__110unique_ptrINS_11__hash_nodeINS_17__hash_value_typeINS_12basic_stringIcNS_11char_traitsIcEENS_9allocatorIcEEEENS_6vectorIjNS6_IjEEEEEEPvEENS_22__hash_node_destructorINS6_ISE_EEEEE7releaseB7v160006Ev, symObjAddr: 0x17888, symBinAddr: 0x10001D4B0, symSize: 0x44 }
  - { offsetInCU: 0x3CC99, offset: 0x47183, size: 0x8, addend: 0x0, symName: __ZNSt3__110unique_ptrINS_11__hash_nodeINS_17__hash_value_typeINS_12basic_stringIcNS_11char_traitsIcEENS_9allocatorIcEEEENS_6vectorIjNS6_IjEEEEEEPvEENS_22__hash_node_destructorINS6_ISE_EEEEED1B7v160006Ev, symObjAddr: 0x178CC, symBinAddr: 0x10001D4F4, symSize: 0x2C }
  - { offsetInCU: 0x3CCC1, offset: 0x471AB, size: 0x8, addend: 0x0, symName: __ZNSt3__116allocator_traitsINS_9allocatorINS_11__hash_nodeINS_17__hash_value_typeINS_12basic_stringIcNS_11char_traitsIcEENS1_IcEEEENS_6vectorIjNS1_IjEEEEEEPvEEEEE8allocateB7v160006ERSF_m, symObjAddr: 0x178F8, symBinAddr: 0x10001D520, symSize: 0x2C }
  - { offsetInCU: 0x3CCF4, offset: 0x471DE, size: 0x8, addend: 0x0, symName: __ZNSt3__122__hash_node_destructorINS_9allocatorINS_11__hash_nodeINS_17__hash_value_typeINS_12basic_stringIcNS_11char_traitsIcEENS1_IcEEEENS_6vectorIjNS1_IjEEEEEEPvEEEEEC1B7v160006ERSF_b, symObjAddr: 0x17924, symBinAddr: 0x10001D54C, symSize: 0x48 }
  - { offsetInCU: 0x3CD3F, offset: 0x47229, size: 0x8, addend: 0x0, symName: __ZNSt3__110unique_ptrINS_11__hash_nodeINS_17__hash_value_typeINS_12basic_stringIcNS_11char_traitsIcEENS_9allocatorIcEEEENS_6vectorIjNS6_IjEEEEEEPvEENS_22__hash_node_destructorINS6_ISE_EEEEEC1B7v160006ILb1EvEEPSE_NS_16__dependent_typeINS_27__unique_ptr_deleter_sfinaeISH_EEXT_EE20__good_rval_ref_typeE, symObjAddr: 0x1796C, symBinAddr: 0x10001D594, symSize: 0x3C }
  - { offsetInCU: 0x3CD8F, offset: 0x47279, size: 0x8, addend: 0x0, symName: __ZNSt3__116allocator_traitsINS_9allocatorINS_11__hash_nodeINS_17__hash_value_typeINS_12basic_stringIcNS_11char_traitsIcEENS1_IcEEEENS_6vectorIjNS1_IjEEEEEEPvEEEEE9constructB7v160006INS_4pairIKS8_SB_EEJRKSK_EvEEvRSF_PT_DpOT0_, symObjAddr: 0x179A8, symBinAddr: 0x10001D5D0, symSize: 0x34 }
  - { offsetInCU: 0x3CDE8, offset: 0x472D2, size: 0x8, addend: 0x0, symName: __ZNKSt3__110unique_ptrINS_11__hash_nodeINS_17__hash_value_typeINS_12basic_stringIcNS_11char_traitsIcEENS_9allocatorIcEEEENS_6vectorIjNS6_IjEEEEEEPvEENS_22__hash_node_destructorINS6_ISE_EEEEEptB7v160006Ev, symObjAddr: 0x179DC, symBinAddr: 0x10001D604, symSize: 0x28 }
  - { offsetInCU: 0x3CE0D, offset: 0x472F7, size: 0x8, addend: 0x0, symName: __ZNSt3__110unique_ptrINS_11__hash_nodeINS_17__hash_value_typeINS_12basic_stringIcNS_11char_traitsIcEENS_9allocatorIcEEEENS_6vectorIjNS6_IjEEEEEEPvEENS_22__hash_node_destructorINS6_ISE_EEEEE11get_deleterB7v160006Ev, symObjAddr: 0x17A04, symBinAddr: 0x10001D62C, symSize: 0x24 }
  - { offsetInCU: 0x3CE32, offset: 0x4731C, size: 0x8, addend: 0x0, symName: __ZNSt3__19allocatorINS_11__hash_nodeINS_17__hash_value_typeINS_12basic_stringIcNS_11char_traitsIcEENS0_IcEEEENS_6vectorIjNS0_IjEEEEEEPvEEE8allocateB7v160006Em, symObjAddr: 0x17A28, symBinAddr: 0x10001D650, symSize: 0x58 }
  - { offsetInCU: 0x3CE6F, offset: 0x47359, size: 0x8, addend: 0x0, symName: __ZNSt3__116allocator_traitsINS_9allocatorINS_11__hash_nodeINS_17__hash_value_typeINS_12basic_stringIcNS_11char_traitsIcEENS1_IcEEEENS_6vectorIjNS1_IjEEEEEEPvEEEEE8max_sizeB7v160006ISF_vEEmRKSF_, symObjAddr: 0x17A80, symBinAddr: 0x10001D6A8, symSize: 0x24 }
  - { offsetInCU: 0x3CE9E, offset: 0x47388, size: 0x8, addend: 0x0, symName: __ZNKSt3__19allocatorINS_11__hash_nodeINS_17__hash_value_typeINS_12basic_stringIcNS_11char_traitsIcEENS0_IcEEEENS_6vectorIjNS0_IjEEEEEEPvEEE8max_sizeB7v160006Ev, symObjAddr: 0x17AA4, symBinAddr: 0x10001D6CC, symSize: 0x14 }
  - { offsetInCU: 0x3CEC3, offset: 0x473AD, size: 0x8, addend: 0x0, symName: __ZNSt3__122__hash_node_destructorINS_9allocatorINS_11__hash_nodeINS_17__hash_value_typeINS_12basic_stringIcNS_11char_traitsIcEENS1_IcEEEENS_6vectorIjNS1_IjEEEEEEPvEEEEEC2B7v160006ERSF_b, symObjAddr: 0x17AB8, symBinAddr: 0x10001D6E0, symSize: 0x38 }
  - { offsetInCU: 0x3CF0A, offset: 0x473F4, size: 0x8, addend: 0x0, symName: __ZNSt3__110unique_ptrINS_11__hash_nodeINS_17__hash_value_typeINS_12basic_stringIcNS_11char_traitsIcEENS_9allocatorIcEEEENS_6vectorIjNS6_IjEEEEEEPvEENS_22__hash_node_destructorINS6_ISE_EEEEEC2B7v160006ILb1EvEEPSE_NS_16__dependent_typeINS_27__unique_ptr_deleter_sfinaeISH_EEXT_EE20__good_rval_ref_typeE, symObjAddr: 0x17AF0, symBinAddr: 0x10001D718, symSize: 0x48 }
  - { offsetInCU: 0x3CF5A, offset: 0x47444, size: 0x8, addend: 0x0, symName: __ZNSt3__117__compressed_pairIPNS_11__hash_nodeINS_17__hash_value_typeINS_12basic_stringIcNS_11char_traitsIcEENS_9allocatorIcEEEENS_6vectorIjNS6_IjEEEEEEPvEENS_22__hash_node_destructorINS6_ISE_EEEEEC1B7v160006IRSF_SI_EEOT_OT0_, symObjAddr: 0x17B38, symBinAddr: 0x10001D760, symSize: 0x3C }
  - { offsetInCU: 0x3CFB0, offset: 0x4749A, size: 0x8, addend: 0x0, symName: __ZNSt3__117__compressed_pairIPNS_11__hash_nodeINS_17__hash_value_typeINS_12basic_stringIcNS_11char_traitsIcEENS_9allocatorIcEEEENS_6vectorIjNS6_IjEEEEEEPvEENS_22__hash_node_destructorINS6_ISE_EEEEEC2B7v160006IRSF_SI_EEOT_OT0_, symObjAddr: 0x17B74, symBinAddr: 0x10001D79C, symSize: 0x48 }
  - { offsetInCU: 0x3D006, offset: 0x474F0, size: 0x8, addend: 0x0, symName: __ZNSt3__122__compressed_pair_elemIPNS_11__hash_nodeINS_17__hash_value_typeINS_12basic_stringIcNS_11char_traitsIcEENS_9allocatorIcEEEENS_6vectorIjNS6_IjEEEEEEPvEELi0ELb0EEC2B7v160006IRSF_vEEOT_, symObjAddr: 0x17BBC, symBinAddr: 0x10001D7E4, symSize: 0x24 }
  - { offsetInCU: 0x3D048, offset: 0x47532, size: 0x8, addend: 0x0, symName: __ZNSt3__122__compressed_pair_elemINS_22__hash_node_destructorINS_9allocatorINS_11__hash_nodeINS_17__hash_value_typeINS_12basic_stringIcNS_11char_traitsIcEENS2_IcEEEENS_6vectorIjNS2_IjEEEEEEPvEEEEEELi1ELb0EEC2B7v160006ISH_vEEOT_, symObjAddr: 0x17BE0, symBinAddr: 0x10001D808, symSize: 0x24 }
  - { offsetInCU: 0x3D08A, offset: 0x47574, size: 0x8, addend: 0x0, symName: __ZNSt3__19allocatorINS_11__hash_nodeINS_17__hash_value_typeINS_12basic_stringIcNS_11char_traitsIcEENS0_IcEEEENS_6vectorIjNS0_IjEEEEEEPvEEE9constructB7v160006INS_4pairIKS7_SA_EEJRKSI_EEEvPT_DpOT0_, symObjAddr: 0x17C04, symBinAddr: 0x10001D82C, symSize: 0x30 }
  - { offsetInCU: 0x3D0E0, offset: 0x475CA, size: 0x8, addend: 0x0, symName: __ZNSt3__14pairIKNS_12basic_stringIcNS_11char_traitsIcEENS_9allocatorIcEEEENS_6vectorIjNS4_IjEEEEEC1ERKSB_, symObjAddr: 0x17C34, symBinAddr: 0x10001D85C, symSize: 0x34 }
  - { offsetInCU: 0x3D113, offset: 0x475FD, size: 0x8, addend: 0x0, symName: __ZNSt3__14pairIKNS_12basic_stringIcNS_11char_traitsIcEENS_9allocatorIcEEEENS_6vectorIjNS4_IjEEEEEC2ERKSB_, symObjAddr: 0x17C68, symBinAddr: 0x10001D890, symSize: 0x70 }
  - { offsetInCU: 0x3D146, offset: 0x47630, size: 0x8, addend: 0x0, symName: __ZNSt3__16vectorIjNS_9allocatorIjEEEC1ERKS3_, symObjAddr: 0x17CD8, symBinAddr: 0x10001D900, symSize: 0x34 }
  - { offsetInCU: 0x3D180, offset: 0x4766A, size: 0x8, addend: 0x0, symName: __ZNSt3__16vectorIjNS_9allocatorIjEEEC2ERKS3_, symObjAddr: 0x17D0C, symBinAddr: 0x10001D934, symSize: 0x114 }
  - { offsetInCU: 0x3D1DE, offset: 0x476C8, size: 0x8, addend: 0x0, symName: __ZNSt3__116allocator_traitsINS_9allocatorIjEEE37select_on_container_copy_constructionB7v160006IS2_vvEES2_RKS2_, symObjAddr: 0x17E20, symBinAddr: 0x10001DA48, symSize: 0x10 }
  - { offsetInCU: 0x3D214, offset: 0x476FE, size: 0x8, addend: 0x0, symName: __ZNSt3__117__compressed_pairIPjNS_9allocatorIjEEEC1B7v160006IDnS3_EEOT_OT0_, symObjAddr: 0x17E30, symBinAddr: 0x10001DA58, symSize: 0x3C }
  - { offsetInCU: 0x3D26A, offset: 0x47754, size: 0x8, addend: 0x0, symName: __ZNSt3__128__exception_guard_exceptionsINS_6vectorIjNS_9allocatorIjEEE16__destroy_vectorEE10__completeB7v160006Ev, symObjAddr: 0x17EBC, symBinAddr: 0x10001DAE4, symSize: 0x1C }
  - { offsetInCU: 0x3D28F, offset: 0x47779, size: 0x8, addend: 0x0, symName: __ZNSt3__128__exception_guard_exceptionsINS_6vectorIjNS_9allocatorIjEEE16__destroy_vectorEED1B7v160006Ev, symObjAddr: 0x17ED8, symBinAddr: 0x10001DB00, symSize: 0x2C }
  - { offsetInCU: 0x3D2B7, offset: 0x477A1, size: 0x8, addend: 0x0, symName: __ZNSt3__117__compressed_pairIPjNS_9allocatorIjEEEC2B7v160006IDnS3_EEOT_OT0_, symObjAddr: 0x17F04, symBinAddr: 0x10001DB2C, symSize: 0x44 }
  - { offsetInCU: 0x3D30D, offset: 0x477F7, size: 0x8, addend: 0x0, symName: __ZNSt3__122__compressed_pair_elemIPjLi0ELb0EEC2B7v160006IDnvEEOT_, symObjAddr: 0x17F48, symBinAddr: 0x10001DB70, symSize: 0x1C }
  - { offsetInCU: 0x3D34F, offset: 0x47839, size: 0x8, addend: 0x0, symName: __ZNSt3__122__compressed_pair_elemINS_9allocatorIjEELi1ELb1EEC2B7v160006IS2_vEEOT_, symObjAddr: 0x17F64, symBinAddr: 0x10001DB8C, symSize: 0x18 }
  - { offsetInCU: 0x3D391, offset: 0x4787B, size: 0x8, addend: 0x0, symName: __ZNSt3__128__exception_guard_exceptionsINS_6vectorIjNS_9allocatorIjEEE16__destroy_vectorEEC1B7v160006ES5_, symObjAddr: 0x17F7C, symBinAddr: 0x10001DBA4, symSize: 0x34 }
  - { offsetInCU: 0x3D3C7, offset: 0x478B1, size: 0x8, addend: 0x0, symName: __ZNSt3__128__exception_guard_exceptionsINS_6vectorIjNS_9allocatorIjEEE16__destroy_vectorEEC2B7v160006ES5_, symObjAddr: 0x17FB0, symBinAddr: 0x10001DBD8, symSize: 0x24 }
  - { offsetInCU: 0x3D3FE, offset: 0x478E8, size: 0x8, addend: 0x0, symName: __ZNSt3__128__exception_guard_exceptionsINS_6vectorIjNS_9allocatorIjEEE16__destroy_vectorEED2B7v160006Ev, symObjAddr: 0x17FD4, symBinAddr: 0x10001DBFC, symSize: 0x50 }
  - { offsetInCU: 0x3D426, offset: 0x47910, size: 0x8, addend: 0x0, symName: __ZNKSt3__117__compressed_pairIPNS_11__hash_nodeINS_17__hash_value_typeINS_12basic_stringIcNS_11char_traitsIcEENS_9allocatorIcEEEENS_6vectorIjNS6_IjEEEEEEPvEENS_22__hash_node_destructorINS6_ISE_EEEEE5firstB7v160006Ev, symObjAddr: 0x18024, symBinAddr: 0x10001DC4C, symSize: 0x24 }
  - { offsetInCU: 0x3D44B, offset: 0x47935, size: 0x8, addend: 0x0, symName: __ZNKSt3__122__compressed_pair_elemIPNS_11__hash_nodeINS_17__hash_value_typeINS_12basic_stringIcNS_11char_traitsIcEENS_9allocatorIcEEEENS_6vectorIjNS6_IjEEEEEEPvEELi0ELb0EE5__getB7v160006Ev, symObjAddr: 0x18048, symBinAddr: 0x10001DC70, symSize: 0x14 }
  - { offsetInCU: 0x3D470, offset: 0x4795A, size: 0x8, addend: 0x0, symName: __ZNSt3__117__compressed_pairIPNS_11__hash_nodeINS_17__hash_value_typeINS_12basic_stringIcNS_11char_traitsIcEENS_9allocatorIcEEEENS_6vectorIjNS6_IjEEEEEEPvEENS_22__hash_node_destructorINS6_ISE_EEEEE6secondB7v160006Ev, symObjAddr: 0x1805C, symBinAddr: 0x10001DC84, symSize: 0x28 }
  - { offsetInCU: 0x3D495, offset: 0x4797F, size: 0x8, addend: 0x0, symName: __ZNSt3__122__compressed_pair_elemINS_22__hash_node_destructorINS_9allocatorINS_11__hash_nodeINS_17__hash_value_typeINS_12basic_stringIcNS_11char_traitsIcEENS2_IcEEEENS_6vectorIjNS2_IjEEEEEEPvEEEEEELi1ELb0EE5__getB7v160006Ev, symObjAddr: 0x18084, symBinAddr: 0x10001DCAC, symSize: 0x14 }
  - { offsetInCU: 0x3D4BA, offset: 0x479A4, size: 0x8, addend: 0x0, symName: __ZNSt3__117__compressed_pairIPNS_11__hash_nodeINS_17__hash_value_typeINS_12basic_stringIcNS_11char_traitsIcEENS_9allocatorIcEEEENS_6vectorIjNS6_IjEEEEEEPvEENS_22__hash_node_destructorINS6_ISE_EEEEE5firstB7v160006Ev, symObjAddr: 0x18098, symBinAddr: 0x10001DCC0, symSize: 0x24 }
  - { offsetInCU: 0x3D4DF, offset: 0x479C9, size: 0x8, addend: 0x0, symName: __ZNSt3__122__compressed_pair_elemIPNS_11__hash_nodeINS_17__hash_value_typeINS_12basic_stringIcNS_11char_traitsIcEENS_9allocatorIcEEEENS_6vectorIjNS6_IjEEEEEEPvEELi0ELb0EE5__getB7v160006Ev, symObjAddr: 0x180BC, symBinAddr: 0x10001DCE4, symSize: 0x14 }
  - { offsetInCU: 0x3D504, offset: 0x479EE, size: 0x8, addend: 0x0, symName: __ZNSt3__110unique_ptrINS_11__hash_nodeINS_17__hash_value_typeINS_12basic_stringIcNS_11char_traitsIcEENS_9allocatorIcEEEENS_6vectorIjNS6_IjEEEEEEPvEENS_22__hash_node_destructorINS6_ISE_EEEEED2B7v160006Ev, symObjAddr: 0x180D0, symBinAddr: 0x10001DCF8, symSize: 0x30 }
  - { offsetInCU: 0x3D52C, offset: 0x47A16, size: 0x8, addend: 0x0, symName: __ZNSt3__110unique_ptrINS_11__hash_nodeINS_17__hash_value_typeINS_12basic_stringIcNS_11char_traitsIcEENS_9allocatorIcEEEENS_6vectorIjNS6_IjEEEEEEPvEENS_22__hash_node_destructorINS6_ISE_EEEEE5resetB7v160006EPSE_, symObjAddr: 0x18100, symBinAddr: 0x10001DD28, symSize: 0x78 }
  - { offsetInCU: 0x3D56F, offset: 0x47A59, size: 0x8, addend: 0x0, symName: __ZNSt3__122__hash_node_destructorINS_9allocatorINS_11__hash_nodeINS_17__hash_value_typeINS_12basic_stringIcNS_11char_traitsIcEENS1_IcEEEENS_6vectorIjNS1_IjEEEEEEPvEEEEEclB7v160006EPSE_, symObjAddr: 0x18178, symBinAddr: 0x10001DDA0, symSize: 0x88 }
  - { offsetInCU: 0x3D5A3, offset: 0x47A8D, size: 0x8, addend: 0x0, symName: __ZNKSt3__117__compressed_pairINS_16__hash_node_baseIPNS_11__hash_nodeINS_17__hash_value_typeINS_12basic_stringIcNS_11char_traitsIcEENS_9allocatorIcEEEENS_6vectorIjNS7_IjEEEEEEPvEEEENS7_ISF_EEE5firstB7v160006Ev, symObjAddr: 0x18200, symBinAddr: 0x10001DE28, symSize: 0x24 }
  - { offsetInCU: 0x3D5C8, offset: 0x47AB2, size: 0x8, addend: 0x0, symName: __ZNSt3__121__hash_const_iteratorIPNS_11__hash_nodeINS_17__hash_value_typeINS_12basic_stringIcNS_11char_traitsIcEENS_9allocatorIcEEEENS_6vectorIjNS6_IjEEEEEEPvEEEC1B7v160006EPNS_16__hash_node_baseISF_EEPKv, symObjAddr: 0x18224, symBinAddr: 0x10001DE4C, symSize: 0x3C }
  - { offsetInCU: 0x3D60E, offset: 0x47AF8, size: 0x8, addend: 0x0, symName: __ZNKSt3__122__compressed_pair_elemINS_16__hash_node_baseIPNS_11__hash_nodeINS_17__hash_value_typeINS_12basic_stringIcNS_11char_traitsIcEENS_9allocatorIcEEEENS_6vectorIjNS7_IjEEEEEEPvEEEELi0ELb0EE5__getB7v160006Ev, symObjAddr: 0x18260, symBinAddr: 0x10001DE88, symSize: 0x14 }
  - { offsetInCU: 0x3D633, offset: 0x47B1D, size: 0x8, addend: 0x0, symName: __ZNSt3__121__hash_const_iteratorIPNS_11__hash_nodeINS_17__hash_value_typeINS_12basic_stringIcNS_11char_traitsIcEENS_9allocatorIcEEEENS_6vectorIjNS6_IjEEEEEEPvEEEC2B7v160006EPNS_16__hash_node_baseISF_EEPKv, symObjAddr: 0x18274, symBinAddr: 0x10001DE9C, symSize: 0x24 }
  - { offsetInCU: 0x3D67A, offset: 0x47B64, size: 0x8, addend: 0x0, symName: __ZNSt3__16__treeINS_12__value_typeINS_7variantIJidbNS_12basic_stringIcNS_11char_traitsIcEENS_9allocatorIcEEEEEEENS_6vectorIjNS6_IjEEEEEENS_19__map_value_compareIS9_SD_NS_4lessIS9_EELb1EEENS6_ISD_EEEaSERKSJ_, symObjAddr: 0x18298, symBinAddr: 0x10001DEC0, symSize: 0x8C }
  - { offsetInCU: 0x3D6B0, offset: 0x47B9A, size: 0x8, addend: 0x0, symName: __ZNKSt3__16__treeINS_12__value_typeINS_7variantIJidbNS_12basic_stringIcNS_11char_traitsIcEENS_9allocatorIcEEEEEEENS_6vectorIjNS6_IjEEEEEENS_19__map_value_compareIS9_SD_NS_4lessIS9_EELb1EEENS6_ISD_EEE10value_compB7v160006Ev, symObjAddr: 0x18324, symBinAddr: 0x10001DF4C, symSize: 0x28 }
  - { offsetInCU: 0x3D6D5, offset: 0x47BBF, size: 0x8, addend: 0x0, symName: __ZNSt3__16__treeINS_12__value_typeINS_7variantIJidbNS_12basic_stringIcNS_11char_traitsIcEENS_9allocatorIcEEEEEEENS_6vectorIjNS6_IjEEEEEENS_19__map_value_compareIS9_SD_NS_4lessIS9_EELb1EEENS6_ISD_EEE10value_compB7v160006Ev, symObjAddr: 0x1834C, symBinAddr: 0x10001DF74, symSize: 0x28 }
  - { offsetInCU: 0x3D6FA, offset: 0x47BE4, size: 0x8, addend: 0x0, symName: __ZNSt3__16__treeINS_12__value_typeINS_7variantIJidbNS_12basic_stringIcNS_11char_traitsIcEENS_9allocatorIcEEEEEEENS_6vectorIjNS6_IjEEEEEENS_19__map_value_compareIS9_SD_NS_4lessIS9_EELb1EEENS6_ISD_EEE19__copy_assign_allocB7v160006ERKSJ_, symObjAddr: 0x18374, symBinAddr: 0x10001DF9C, symSize: 0x2C }
  - { offsetInCU: 0x3D72E, offset: 0x47C18, size: 0x8, addend: 0x0, symName: __ZNSt3__16__treeINS_12__value_typeINS_7variantIJidbNS_12basic_stringIcNS_11char_traitsIcEENS_9allocatorIcEEEEEEENS_6vectorIjNS6_IjEEEEEENS_19__map_value_compareIS9_SD_NS_4lessIS9_EELb1EEENS6_ISD_EEE14__assign_multiINS_21__tree_const_iteratorISD_PNS_11__tree_nodeISD_PvEElEEEEvT_SR_, symObjAddr: 0x183A0, symBinAddr: 0x10001DFC8, symSize: 0x178 }
  - { offsetInCU: 0x3D791, offset: 0x47C7B, size: 0x8, addend: 0x0, symName: __ZNKSt3__16__treeINS_12__value_typeINS_7variantIJidbNS_12basic_stringIcNS_11char_traitsIcEENS_9allocatorIcEEEEEEENS_6vectorIjNS6_IjEEEEEENS_19__map_value_compareIS9_SD_NS_4lessIS9_EELb1EEENS6_ISD_EEE5beginB7v160006Ev, symObjAddr: 0x18518, symBinAddr: 0x10001E140, symSize: 0x34 }
  - { offsetInCU: 0x3D7B6, offset: 0x47CA0, size: 0x8, addend: 0x0, symName: __ZNKSt3__16__treeINS_12__value_typeINS_7variantIJidbNS_12basic_stringIcNS_11char_traitsIcEENS_9allocatorIcEEEEEEENS_6vectorIjNS6_IjEEEEEENS_19__map_value_compareIS9_SD_NS_4lessIS9_EELb1EEENS6_ISD_EEE3endB7v160006Ev, symObjAddr: 0x1854C, symBinAddr: 0x10001E174, symSize: 0x34 }
  - { offsetInCU: 0x3D7DB, offset: 0x47CC5, size: 0x8, addend: 0x0, symName: __ZNKSt3__117__compressed_pairImNS_19__map_value_compareINS_7variantIJidbNS_12basic_stringIcNS_11char_traitsIcEENS_9allocatorIcEEEEEEENS_12__value_typeIS9_NS_6vectorIjNS6_IjEEEEEENS_4lessIS9_EELb1EEEE6secondB7v160006Ev, symObjAddr: 0x18580, symBinAddr: 0x10001E1A8, symSize: 0x24 }
  - { offsetInCU: 0x3D800, offset: 0x47CEA, size: 0x8, addend: 0x0, symName: __ZNKSt3__122__compressed_pair_elemINS_19__map_value_compareINS_7variantIJidbNS_12basic_stringIcNS_11char_traitsIcEENS_9allocatorIcEEEEEEENS_12__value_typeIS9_NS_6vectorIjNS6_IjEEEEEENS_4lessIS9_EELb1EEELi1ELb1EE5__getB7v160006Ev, symObjAddr: 0x185A4, symBinAddr: 0x10001E1CC, symSize: 0x14 }
  - { offsetInCU: 0x3D825, offset: 0x47D0F, size: 0x8, addend: 0x0, symName: __ZNSt3__117__compressed_pairImNS_19__map_value_compareINS_7variantIJidbNS_12basic_stringIcNS_11char_traitsIcEENS_9allocatorIcEEEEEEENS_12__value_typeIS9_NS_6vectorIjNS6_IjEEEEEENS_4lessIS9_EELb1EEEE6secondB7v160006Ev, symObjAddr: 0x185B8, symBinAddr: 0x10001E1E0, symSize: 0x24 }
  - { offsetInCU: 0x3D84A, offset: 0x47D34, size: 0x8, addend: 0x0, symName: __ZNSt3__122__compressed_pair_elemINS_19__map_value_compareINS_7variantIJidbNS_12basic_stringIcNS_11char_traitsIcEENS_9allocatorIcEEEEEEENS_12__value_typeIS9_NS_6vectorIjNS6_IjEEEEEENS_4lessIS9_EELb1EEELi1ELb1EE5__getB7v160006Ev, symObjAddr: 0x185DC, symBinAddr: 0x10001E204, symSize: 0x14 }
  - { offsetInCU: 0x3D86F, offset: 0x47D59, size: 0x8, addend: 0x0, symName: __ZNSt3__16__treeINS_12__value_typeINS_7variantIJidbNS_12basic_stringIcNS_11char_traitsIcEENS_9allocatorIcEEEEEEENS_6vectorIjNS6_IjEEEEEENS_19__map_value_compareIS9_SD_NS_4lessIS9_EELb1EEENS6_ISD_EEE19__copy_assign_allocB7v160006ERKSJ_NS_17integral_constantIbLb0EEE, symObjAddr: 0x185F0, symBinAddr: 0x10001E218, symSize: 0x14 }
  - { offsetInCU: 0x3D8AC, offset: 0x47D96, size: 0x8, addend: 0x0, symName: __ZNSt3__16__treeINS_12__value_typeINS_7variantIJidbNS_12basic_stringIcNS_11char_traitsIcEENS_9allocatorIcEEEEEEENS_6vectorIjNS6_IjEEEEEENS_19__map_value_compareIS9_SD_NS_4lessIS9_EELb1EEENS6_ISD_EEE4sizeB7v160006Ev, symObjAddr: 0x18604, symBinAddr: 0x10001E22C, symSize: 0x28 }
  - { offsetInCU: 0x3D8EF, offset: 0x47DD9, size: 0x8, addend: 0x0, symName: __ZNSt3__16__treeINS_12__value_typeINS_7variantIJidbNS_12basic_stringIcNS_11char_traitsIcEENS_9allocatorIcEEEEEEENS_6vectorIjNS6_IjEEEEEENS_19__map_value_compareIS9_SD_NS_4lessIS9_EELb1EEENS6_ISD_EEE18_DetachedTreeCacheC1B7v160006EPSJ_, symObjAddr: 0x1862C, symBinAddr: 0x10001E254, symSize: 0x34 }
  - { offsetInCU: 0x3D926, offset: 0x47E10, size: 0x8, addend: 0x0, symName: __ZNKSt3__16__treeINS_12__value_typeINS_7variantIJidbNS_12basic_stringIcNS_11char_traitsIcEENS_9allocatorIcEEEEEEENS_6vectorIjNS6_IjEEEEEENS_19__map_value_compareIS9_SD_NS_4lessIS9_EELb1EEENS6_ISD_EEE18_DetachedTreeCache5__getB7v160006Ev, symObjAddr: 0x18660, symBinAddr: 0x10001E288, symSize: 0x18 }
  - { offsetInCU: 0x3D94B, offset: 0x47E35, size: 0x8, addend: 0x0, symName: __ZNKSt3__121__tree_const_iteratorINS_12__value_typeINS_7variantIJidbNS_12basic_stringIcNS_11char_traitsIcEENS_9allocatorIcEEEEEEENS_6vectorIjNS6_IjEEEEEEPNS_11__tree_nodeISD_PvEElEdeB7v160006Ev, symObjAddr: 0x186AC, symBinAddr: 0x10001E2D4, symSize: 0x28 }
  - { offsetInCU: 0x3D970, offset: 0x47E5A, size: 0x8, addend: 0x0, symName: __ZNSt3__112__value_typeINS_7variantIJidbNS_12basic_stringIcNS_11char_traitsIcEENS_9allocatorIcEEEEEEENS_6vectorIjNS5_IjEEEEEaSB7v160006ERKSC_, symObjAddr: 0x186D4, symBinAddr: 0x10001E2FC, symSize: 0x60 }
  - { offsetInCU: 0x3D9A4, offset: 0x47E8E, size: 0x8, addend: 0x0, symName: __ZNSt3__16__treeINS_12__value_typeINS_7variantIJidbNS_12basic_stringIcNS_11char_traitsIcEENS_9allocatorIcEEEEEEENS_6vectorIjNS6_IjEEEEEENS_19__map_value_compareIS9_SD_NS_4lessIS9_EELb1EEENS6_ISD_EEE19__node_insert_multiEPNS_11__tree_nodeISD_PvEE, symObjAddr: 0x18734, symBinAddr: 0x10001E35C, symSize: 0x70 }
  - { offsetInCU: 0x3D9F8, offset: 0x47EE2, size: 0x8, addend: 0x0, symName: __ZNSt3__16__treeINS_12__value_typeINS_7variantIJidbNS_12basic_stringIcNS_11char_traitsIcEENS_9allocatorIcEEEEEEENS_6vectorIjNS6_IjEEEEEENS_19__map_value_compareIS9_SD_NS_4lessIS9_EELb1EEENS6_ISD_EEE18_DetachedTreeCache9__advanceB7v160006Ev, symObjAddr: 0x187A4, symBinAddr: 0x10001E3CC, symSize: 0x58 }
  - { offsetInCU: 0x3DA1D, offset: 0x47F07, size: 0x8, addend: 0x0, symName: __ZNSt3__121__tree_const_iteratorINS_12__value_typeINS_7variantIJidbNS_12basic_stringIcNS_11char_traitsIcEENS_9allocatorIcEEEEEEENS_6vectorIjNS6_IjEEEEEEPNS_11__tree_nodeISD_PvEElEppB7v160006Ev, symObjAddr: 0x187FC, symBinAddr: 0x10001E424, symSize: 0x38 }
  - { offsetInCU: 0x3DA42, offset: 0x47F2C, size: 0x8, addend: 0x0, symName: __ZNSt3__16__treeINS_12__value_typeINS_7variantIJidbNS_12basic_stringIcNS_11char_traitsIcEENS_9allocatorIcEEEEEEENS_6vectorIjNS6_IjEEEEEENS_19__map_value_compareIS9_SD_NS_4lessIS9_EELb1EEENS6_ISD_EEE18_DetachedTreeCacheD1B7v160006Ev, symObjAddr: 0x18834, symBinAddr: 0x10001E45C, symSize: 0x2C }
  - { offsetInCU: 0x3DA6A, offset: 0x47F54, size: 0x8, addend: 0x0, symName: __ZNSt3__16__treeINS_12__value_typeINS_7variantIJidbNS_12basic_stringIcNS_11char_traitsIcEENS_9allocatorIcEEEEEEENS_6vectorIjNS6_IjEEEEEENS_19__map_value_compareIS9_SD_NS_4lessIS9_EELb1EEENS6_ISD_EEE14__insert_multiB7v160006IRKNS_4pairIKS9_SC_EEEENS_15__tree_iteratorISD_PNS_11__tree_nodeISD_PvEElEEOT_, symObjAddr: 0x18860, symBinAddr: 0x10001E488, symSize: 0x34 }
  - { offsetInCU: 0x3DAA7, offset: 0x47F91, size: 0x8, addend: 0x0, symName: __ZNSt3__122__tree_key_value_typesINS_12__value_typeINS_7variantIJidbNS_12basic_stringIcNS_11char_traitsIcEENS_9allocatorIcEEEEEEENS_6vectorIjNS6_IjEEEEEEE11__get_valueB7v160006ERKSD_, symObjAddr: 0x18894, symBinAddr: 0x10001E4BC, symSize: 0x24 }
  - { offsetInCU: 0x3DACB, offset: 0x47FB5, size: 0x8, addend: 0x0, symName: __ZNSt3__117__compressed_pairImNS_19__map_value_compareINS_7variantIJidbNS_12basic_stringIcNS_11char_traitsIcEENS_9allocatorIcEEEEEEENS_12__value_typeIS9_NS_6vectorIjNS6_IjEEEEEENS_4lessIS9_EELb1EEEE5firstB7v160006Ev, symObjAddr: 0x188B8, symBinAddr: 0x10001E4E0, symSize: 0x24 }
  - { offsetInCU: 0x3DAF0, offset: 0x47FDA, size: 0x8, addend: 0x0, symName: __ZNSt3__16__treeINS_12__value_typeINS_7variantIJidbNS_12basic_stringIcNS_11char_traitsIcEENS_9allocatorIcEEEEEEENS_6vectorIjNS6_IjEEEEEENS_19__map_value_compareIS9_SD_NS_4lessIS9_EELb1EEENS6_ISD_EEE18_DetachedTreeCacheC2B7v160006EPSJ_, symObjAddr: 0x188DC, symBinAddr: 0x10001E504, symSize: 0x4C }
  - { offsetInCU: 0x3DB27, offset: 0x48011, size: 0x8, addend: 0x0, symName: __ZNSt3__16__treeINS_12__value_typeINS_7variantIJidbNS_12basic_stringIcNS_11char_traitsIcEENS_9allocatorIcEEEEEEENS_6vectorIjNS6_IjEEEEEENS_19__map_value_compareIS9_SD_NS_4lessIS9_EELb1EEENS6_ISD_EEE18_DetachedTreeCache18__detach_from_treeEPSJ_, symObjAddr: 0x18928, symBinAddr: 0x10001E550, symSize: 0xA0 }
  - { offsetInCU: 0x3DB5C, offset: 0x48046, size: 0x8, addend: 0x0, symName: __ZNKSt3__121__tree_const_iteratorINS_12__value_typeINS_7variantIJidbNS_12basic_stringIcNS_11char_traitsIcEENS_9allocatorIcEEEEEEENS_6vectorIjNS6_IjEEEEEEPNS_11__tree_nodeISD_PvEElE8__get_npB7v160006Ev, symObjAddr: 0x189F8, symBinAddr: 0x10001E620, symSize: 0x18 }
  - { offsetInCU: 0x3DB81, offset: 0x4806B, size: 0x8, addend: 0x0, symName: __ZNKSt3__112__value_typeINS_7variantIJidbNS_12basic_stringIcNS_11char_traitsIcEENS_9allocatorIcEEEEEEENS_6vectorIjNS5_IjEEEEE11__get_valueB7v160006Ev, symObjAddr: 0x18A10, symBinAddr: 0x10001E638, symSize: 0x24 }
  - { offsetInCU: 0x3DBA6, offset: 0x48090, size: 0x8, addend: 0x0, symName: __ZNSt3__112__value_typeINS_7variantIJidbNS_12basic_stringIcNS_11char_traitsIcEENS_9allocatorIcEEEEEEENS_6vectorIjNS5_IjEEEEE5__refB7v160006Ev, symObjAddr: 0x18A34, symBinAddr: 0x10001E65C, symSize: 0x44 }
  - { offsetInCU: 0x3DBDA, offset: 0x480C4, size: 0x8, addend: 0x0, symName: __ZNSt3__14pairIRNS_7variantIJidbNS_12basic_stringIcNS_11char_traitsIcEENS_9allocatorIcEEEEEEERNS_6vectorIjNS5_IjEEEEEaSB7v160006IRKNS0_IKS8_SC_EELPv0EEERSE_OT_, symObjAddr: 0x18A78, symBinAddr: 0x10001E6A0, symSize: 0x5C }
  - { offsetInCU: 0x3DC1D, offset: 0x48107, size: 0x8, addend: 0x0, symName: __ZNSt3__112__value_typeINS_7variantIJidbNS_12basic_stringIcNS_11char_traitsIcEENS_9allocatorIcEEEEEEENS_6vectorIjNS5_IjEEEEE11__get_valueB7v160006Ev, symObjAddr: 0x18B0C, symBinAddr: 0x10001E734, symSize: 0x24 }
  - { offsetInCU: 0x3DC42, offset: 0x4812C, size: 0x8, addend: 0x0, symName: __ZNSt3__14pairIRNS_7variantIJidbNS_12basic_stringIcNS_11char_traitsIcEENS_9allocatorIcEEEEEEERNS_6vectorIjNS5_IjEEEEEC1B7v160006ILb1ELPv0EEES9_SD_, symObjAddr: 0x18B30, symBinAddr: 0x10001E758, symSize: 0x3C }
  - { offsetInCU: 0x3DC96, offset: 0x48180, size: 0x8, addend: 0x0, symName: __ZNSt3__14pairIRNS_7variantIJidbNS_12basic_stringIcNS_11char_traitsIcEENS_9allocatorIcEEEEEEERNS_6vectorIjNS5_IjEEEEEC2B7v160006ILb1ELPv0EEES9_SD_, symObjAddr: 0x18BA4, symBinAddr: 0x10001E7CC, symSize: 0x2C }
  - { offsetInCU: 0x3DCEB, offset: 0x481D5, size: 0x8, addend: 0x0, symName: __ZNSt3__110__get_pairILm0EE3getB7v160006IKNS_7variantIJidbNS_12basic_stringIcNS_11char_traitsIcEENS_9allocatorIcEEEEEEENS_6vectorIjNS7_IjEEEEEERKT_RKNS_4pairISF_T0_EE, symObjAddr: 0x18C18, symBinAddr: 0x10001E840, symSize: 0x14 }
  - { offsetInCU: 0x3DD21, offset: 0x4820B, size: 0x8, addend: 0x0, symName: __ZNSt3__110__get_pairILm1EE3getB7v160006IKNS_7variantIJidbNS_12basic_stringIcNS_11char_traitsIcEENS_9allocatorIcEEEEEEENS_6vectorIjNS7_IjEEEEEERKT0_RKNS_4pairIT_SF_EE, symObjAddr: 0x18C2C, symBinAddr: 0x10001E854, symSize: 0x18 }
  - { offsetInCU: 0x3DD57, offset: 0x48241, size: 0x8, addend: 0x0, symName: __ZNSt3__16__treeINS_12__value_typeINS_7variantIJidbNS_12basic_stringIcNS_11char_traitsIcEENS_9allocatorIcEEEEEEENS_6vectorIjNS6_IjEEEEEENS_19__map_value_compareIS9_SD_NS_4lessIS9_EELb1EEENS6_ISD_EEE16__find_leaf_highERPNS_15__tree_end_nodeIPNS_16__tree_node_baseIPvEEEERKS9_, symObjAddr: 0x18C44, symBinAddr: 0x10001E86C, symSize: 0x124 }
  - { offsetInCU: 0x3DDAB, offset: 0x48295, size: 0x8, addend: 0x0, symName: __ZNSt3__122__tree_key_value_typesINS_12__value_typeINS_7variantIJidbNS_12basic_stringIcNS_11char_traitsIcEENS_9allocatorIcEEEEEEENS_6vectorIjNS6_IjEEEEEEE9__get_keyB7v160006ERKSD_, symObjAddr: 0x18D68, symBinAddr: 0x10001E990, symSize: 0x24 }
  - { offsetInCU: 0x3DDCF, offset: 0x482B9, size: 0x8, addend: 0x0, symName: __ZNSt3__16__treeINS_12__value_typeINS_7variantIJidbNS_12basic_stringIcNS_11char_traitsIcEENS_9allocatorIcEEEEEEENS_6vectorIjNS6_IjEEEEEENS_19__map_value_compareIS9_SD_NS_4lessIS9_EELb1EEENS6_ISD_EEE16__insert_node_atEPNS_15__tree_end_nodeIPNS_16__tree_node_baseIPvEEEERSO_SO_, symObjAddr: 0x18D8C, symBinAddr: 0x10001E9B4, symSize: 0xCC }
  - { offsetInCU: 0x3DE23, offset: 0x4830D, size: 0x8, addend: 0x0, symName: __ZNSt3__115__tree_iteratorINS_12__value_typeINS_7variantIJidbNS_12basic_stringIcNS_11char_traitsIcEENS_9allocatorIcEEEEEEENS_6vectorIjNS6_IjEEEEEEPNS_11__tree_nodeISD_PvEElEC1B7v160006ESH_, symObjAddr: 0x18E58, symBinAddr: 0x10001EA80, symSize: 0x34 }
  - { offsetInCU: 0x3DE5A, offset: 0x48344, size: 0x8, addend: 0x0, symName: __ZNKSt3__16__treeINS_12__value_typeINS_7variantIJidbNS_12basic_stringIcNS_11char_traitsIcEENS_9allocatorIcEEEEEEENS_6vectorIjNS6_IjEEEEEENS_19__map_value_compareIS9_SD_NS_4lessIS9_EELb1EEENS6_ISD_EEE6__rootB7v160006Ev, symObjAddr: 0x18E8C, symBinAddr: 0x10001EAB4, symSize: 0x28 }
  - { offsetInCU: 0x3DE7F, offset: 0x48369, size: 0x8, addend: 0x0, symName: __ZNKSt3__119__map_value_compareINS_7variantIJidbNS_12basic_stringIcNS_11char_traitsIcEENS_9allocatorIcEEEEEEENS_12__value_typeIS8_NS_6vectorIjNS5_IjEEEEEENS_4lessIS8_EELb1EEclB7v160006ERKS8_RKSD_, symObjAddr: 0x18EB4, symBinAddr: 0x10001EADC, symSize: 0x50 }
  - { offsetInCU: 0x3DEC2, offset: 0x483AC, size: 0x8, addend: 0x0, symName: __ZNKSt3__16__treeINS_12__value_typeINS_7variantIJidbNS_12basic_stringIcNS_11char_traitsIcEENS_9allocatorIcEEEEEEENS_6vectorIjNS6_IjEEEEEENS_19__map_value_compareIS9_SD_NS_4lessIS9_EELb1EEENS6_ISD_EEE10__end_nodeB7v160006Ev, symObjAddr: 0x18F04, symBinAddr: 0x10001EB2C, symSize: 0x2C }
  - { offsetInCU: 0x3DEE7, offset: 0x483D1, size: 0x8, addend: 0x0, symName: __ZNKSt3__117__compressed_pairINS_15__tree_end_nodeIPNS_16__tree_node_baseIPvEEEENS_9allocatorINS_11__tree_nodeINS_12__value_typeINS_7variantIJidbNS_12basic_stringIcNS_11char_traitsIcEENS7_IcEEEEEEENS_6vectorIjNS7_IjEEEEEES3_EEEEE5firstB7v160006Ev, symObjAddr: 0x18F30, symBinAddr: 0x10001EB58, symSize: 0x24 }
  - { offsetInCU: 0x3DF0C, offset: 0x483F6, size: 0x8, addend: 0x0, symName: __ZNKSt3__122__compressed_pair_elemINS_15__tree_end_nodeIPNS_16__tree_node_baseIPvEEEELi0ELb0EE5__getB7v160006Ev, symObjAddr: 0x18F54, symBinAddr: 0x10001EB7C, symSize: 0x14 }
  - { offsetInCU: 0x3DF31, offset: 0x4841B, size: 0x8, addend: 0x0, symName: __ZNKSt3__14lessINS_7variantIJidbNS_12basic_stringIcNS_11char_traitsIcEENS_9allocatorIcEEEEEEEEclB7v160006ERKS8_SB_, symObjAddr: 0x18F68, symBinAddr: 0x10001EB90, symSize: 0x34 }
  - { offsetInCU: 0x3DF74, offset: 0x4845E, size: 0x8, addend: 0x0, symName: __ZNKSt3__17variantIJidbNS_12basic_stringIcNS_11char_traitsIcEENS_9allocatorIcEEEEEE22valueless_by_exceptionB7v160006Ev, symObjAddr: 0x190B4, symBinAddr: 0x10001ECDC, symSize: 0x28 }
  - { offsetInCU: 0x3DF99, offset: 0x48483, size: 0x8, addend: 0x0, symName: __ZNKSt3__17variantIJidbNS_12basic_stringIcNS_11char_traitsIcEENS_9allocatorIcEEEEEE5indexB7v160006Ev, symObjAddr: 0x190DC, symBinAddr: 0x10001ED04, symSize: 0x24 }
  - { offsetInCU: 0x3DFBE, offset: 0x484A8, size: 0x8, addend: 0x0, symName: __ZNSt3__116__variant_detail12__visitation9__variant16__visit_value_atB7v160006INS_17__convert_to_boolINS_4lessIvEEEEJRKNS_7variantIJidbNS_12basic_stringIcNS_11char_traitsIcEENS_9allocatorIcEEEEEEESH_EEEDcmOT_DpOT0_, symObjAddr: 0x19100, symBinAddr: 0x10001ED28, symSize: 0x58 }
  - { offsetInCU: 0x3E02E, offset: 0x48518, size: 0x8, addend: 0x0, symName: __ZNSt3__116__variant_detail12__visitation9__variant14__visit_alt_atB7v160006INS2_15__value_visitorINS_17__convert_to_boolINS_4lessIvEEEEEEJRKNS_7variantIJidbNS_12basic_stringIcNS_11char_traitsIcEENS_9allocatorIcEEEEEEESJ_EEEDcmOT_DpOT0_, symObjAddr: 0x19158, symBinAddr: 0x10001ED80, symSize: 0x40 }
  - { offsetInCU: 0x3E099, offset: 0x48583, size: 0x8, addend: 0x0, symName: __ZNSt3__116__variant_detail12__visitation9__variant20__make_value_visitorB7v160006INS_17__convert_to_boolINS_4lessIvEEEEEEDaOT_, symObjAddr: 0x19198, symBinAddr: 0x10001EDC0, symSize: 0x1C }
  - { offsetInCU: 0x3E0C6, offset: 0x485B0, size: 0x8, addend: 0x0, symName: __ZNSt3__116__variant_detail12__visitation6__base14__visit_alt_atB7v160006INS1_9__variant15__value_visitorINS_17__convert_to_boolINS_4lessIvEEEEEEJRKNS0_6__implIJidbNS_12basic_stringIcNS_11char_traitsIcEENS_9allocatorIcEEEEEEESK_EEEDcmOT_DpOT0_, symObjAddr: 0x191B4, symBinAddr: 0x10001EDDC, symSize: 0x88 }
  - { offsetInCU: 0x3E140, offset: 0x4862A, size: 0x8, addend: 0x0, symName: __ZNSt3__116__variant_detail12__visitation6__base12__dispatcherIJLm0ELm0EEE10__dispatchB7v160006IONS1_9__variant15__value_visitorINS_17__convert_to_boolINS_4lessIvEEEEEEJRKNS0_6__baseILNS0_6_TraitE1EJidbNS_12basic_stringIcNS_11char_traitsIcEENS_9allocatorIcEEEEEEESO_EEEDcT_DpT0_, symObjAddr: 0x1923C, symBinAddr: 0x10001EE64, symSize: 0x54 }
  - { offsetInCU: 0x3E19C, offset: 0x48686, size: 0x8, addend: 0x0, symName: __ZNSt3__116__variant_detail12__visitation6__base12__dispatcherIJLm1ELm1EEE10__dispatchB7v160006IONS1_9__variant15__value_visitorINS_17__convert_to_boolINS_4lessIvEEEEEEJRKNS0_6__baseILNS0_6_TraitE1EJidbNS_12basic_stringIcNS_11char_traitsIcEENS_9allocatorIcEEEEEEESO_EEEDcT_DpT0_, symObjAddr: 0x19290, symBinAddr: 0x10001EEB8, symSize: 0x54 }
  - { offsetInCU: 0x3E1F8, offset: 0x486E2, size: 0x8, addend: 0x0, symName: __ZNSt3__116__variant_detail12__visitation6__base12__dispatcherIJLm2ELm2EEE10__dispatchB7v160006IONS1_9__variant15__value_visitorINS_17__convert_to_boolINS_4lessIvEEEEEEJRKNS0_6__baseILNS0_6_TraitE1EJidbNS_12basic_stringIcNS_11char_traitsIcEENS_9allocatorIcEEEEEEESO_EEEDcT_DpT0_, symObjAddr: 0x192E4, symBinAddr: 0x10001EF0C, symSize: 0x54 }
  - { offsetInCU: 0x3E254, offset: 0x4873E, size: 0x8, addend: 0x0, symName: __ZNSt3__116__variant_detail12__visitation6__base12__dispatcherIJLm3ELm3EEE10__dispatchB7v160006IONS1_9__variant15__value_visitorINS_17__convert_to_boolINS_4lessIvEEEEEEJRKNS0_6__baseILNS0_6_TraitE1EJidbNS_12basic_stringIcNS_11char_traitsIcEENS_9allocatorIcEEEEEEESO_EEEDcT_DpT0_, symObjAddr: 0x19338, symBinAddr: 0x10001EF60, symSize: 0x54 }
  - { offsetInCU: 0x3E2EA, offset: 0x487D4, size: 0x8, addend: 0x0, symName: __ZNKSt3__18__farrayIPFbONS_16__variant_detail12__visitation9__variant15__value_visitorINS_17__convert_to_boolINS_4lessIvEEEEEERKNS1_6__baseILNS1_6_TraitE1EJidbNS_12basic_stringIcNS_11char_traitsIcEENS_9allocatorIcEEEEEEESL_ELm4EEixB7v160006Em, symObjAddr: 0x1938C, symBinAddr: 0x10001EFB4, symSize: 0x20 }
  - { offsetInCU: 0x3E328, offset: 0x48812, size: 0x8, addend: 0x0, symName: __ZNKSt3__116__variant_detail12__visitation9__variant15__value_visitorINS_17__convert_to_boolINS_4lessIvEEEEEclB7v160006IJRKNS0_5__altILm0EiEESD_EEEDcDpOT_, symObjAddr: 0x193E4, symBinAddr: 0x10001F00C, symSize: 0x48 }
  - { offsetInCU: 0x3E37C, offset: 0x48866, size: 0x8, addend: 0x0, symName: __ZNSt3__116__variant_detail12__visitation9__variant36__std_visit_exhaustive_visitor_checkINS_17__convert_to_boolINS_4lessIvEEEEJRKiS9_EEEvv, symObjAddr: 0x1942C, symBinAddr: 0x10001F054, symSize: 0x4 }
  - { offsetInCU: 0x3E3B5, offset: 0x4889F, size: 0x8, addend: 0x0, symName: __ZNKSt3__117__convert_to_boolINS_4lessIvEEEclB7v160006IRKiS6_EEbOT_OT0_, symObjAddr: 0x19468, symBinAddr: 0x10001F090, symSize: 0x38 }
  - { offsetInCU: 0x3E414, offset: 0x488FE, size: 0x8, addend: 0x0, symName: __ZNKSt3__14lessIvEclB7v160006IRKiS4_EEDTltclsr3stdE7forwardIT_Efp_Eclsr3stdE7forwardIT0_Efp0_EEOS5_OS6_, symObjAddr: 0x194A0, symBinAddr: 0x10001F0C8, symSize: 0x34 }
  - { offsetInCU: 0x3E469, offset: 0x48953, size: 0x8, addend: 0x0, symName: __ZNKSt3__116__variant_detail12__visitation9__variant15__value_visitorINS_17__convert_to_boolINS_4lessIvEEEEEclB7v160006IJRKNS0_5__altILm1EdEESD_EEEDcDpOT_, symObjAddr: 0x1950C, symBinAddr: 0x10001F134, symSize: 0x48 }
  - { offsetInCU: 0x3E4BD, offset: 0x489A7, size: 0x8, addend: 0x0, symName: __ZNSt3__116__variant_detail12__visitation9__variant36__std_visit_exhaustive_visitor_checkINS_17__convert_to_boolINS_4lessIvEEEEJRKdS9_EEEvv, symObjAddr: 0x19554, symBinAddr: 0x10001F17C, symSize: 0x4 }
  - { offsetInCU: 0x3E4EC, offset: 0x489D6, size: 0x8, addend: 0x0, symName: __ZNKSt3__117__convert_to_boolINS_4lessIvEEEclB7v160006IRKdS6_EEbOT_OT0_, symObjAddr: 0x19590, symBinAddr: 0x10001F1B8, symSize: 0x38 }
  - { offsetInCU: 0x3E541, offset: 0x48A2B, size: 0x8, addend: 0x0, symName: __ZNKSt3__14lessIvEclB7v160006IRKdS4_EEDTltclsr3stdE7forwardIT_Efp_Eclsr3stdE7forwardIT0_Efp0_EEOS5_OS6_, symObjAddr: 0x195C8, symBinAddr: 0x10001F1F0, symSize: 0x34 }
  - { offsetInCU: 0x3E596, offset: 0x48A80, size: 0x8, addend: 0x0, symName: __ZNKSt3__116__variant_detail12__visitation9__variant15__value_visitorINS_17__convert_to_boolINS_4lessIvEEEEEclB7v160006IJRKNS0_5__altILm2EbEESD_EEEDcDpOT_, symObjAddr: 0x19634, symBinAddr: 0x10001F25C, symSize: 0x48 }
  - { offsetInCU: 0x3E5EA, offset: 0x48AD4, size: 0x8, addend: 0x0, symName: __ZNSt3__116__variant_detail12__visitation9__variant36__std_visit_exhaustive_visitor_checkINS_17__convert_to_boolINS_4lessIvEEEEJRKbS9_EEEvv, symObjAddr: 0x1967C, symBinAddr: 0x10001F2A4, symSize: 0x4 }
  - { offsetInCU: 0x3E619, offset: 0x48B03, size: 0x8, addend: 0x0, symName: __ZNKSt3__117__convert_to_boolINS_4lessIvEEEclB7v160006IRKbS6_EEbOT_OT0_, symObjAddr: 0x196B8, symBinAddr: 0x10001F2E0, symSize: 0x38 }
  - { offsetInCU: 0x3E66E, offset: 0x48B58, size: 0x8, addend: 0x0, symName: __ZNKSt3__14lessIvEclB7v160006IRKbS4_EEDTltclsr3stdE7forwardIT_Efp_Eclsr3stdE7forwardIT0_Efp0_EEOS5_OS6_, symObjAddr: 0x196F0, symBinAddr: 0x10001F318, symSize: 0x3C }
  - { offsetInCU: 0x3E6C3, offset: 0x48BAD, size: 0x8, addend: 0x0, symName: __ZNKSt3__116__variant_detail12__visitation9__variant15__value_visitorINS_17__convert_to_boolINS_4lessIvEEEEEclB7v160006IJRKNS0_5__altILm3ENS_12basic_stringIcNS_11char_traitsIcEENS_9allocatorIcEEEEEESJ_EEEDcDpOT_, symObjAddr: 0x19764, symBinAddr: 0x10001F38C, symSize: 0x48 }
  - { offsetInCU: 0x3E717, offset: 0x48C01, size: 0x8, addend: 0x0, symName: __ZNSt3__116__variant_detail12__visitation9__variant36__std_visit_exhaustive_visitor_checkINS_17__convert_to_boolINS_4lessIvEEEEJRKNS_12basic_stringIcNS_11char_traitsIcEENS_9allocatorIcEEEESF_EEEvv, symObjAddr: 0x197AC, symBinAddr: 0x10001F3D4, symSize: 0x4 }
  - { offsetInCU: 0x3E746, offset: 0x48C30, size: 0x8, addend: 0x0, symName: __ZNKSt3__117__convert_to_boolINS_4lessIvEEEclB7v160006IRKNS_12basic_stringIcNS_11char_traitsIcEENS_9allocatorIcEEEESC_EEbOT_OT0_, symObjAddr: 0x197E8, symBinAddr: 0x10001F410, symSize: 0x38 }
  - { offsetInCU: 0x3E79B, offset: 0x48C85, size: 0x8, addend: 0x0, symName: __ZNKSt3__14lessIvEclB7v160006IRKNS_12basic_stringIcNS_11char_traitsIcEENS_9allocatorIcEEEESA_EEDTltclsr3stdE7forwardIT_Efp_Eclsr3stdE7forwardIT0_Efp0_EEOSB_OSC_, symObjAddr: 0x19820, symBinAddr: 0x10001F448, symSize: 0x34 }
  - { offsetInCU: 0x3E7F0, offset: 0x48CDA, size: 0x8, addend: 0x0, symName: __ZNKSt3__116__tree_node_baseIPvE15__parent_unsafeB7v160006Ev, symObjAddr: 0x19E3C, symBinAddr: 0x10001F7A8, symSize: 0x18 }
  - { offsetInCU: 0x3E815, offset: 0x48CFF, size: 0x8, addend: 0x0, symName: __ZNSt3__116__tree_node_baseIPvE12__set_parentB7v160006EPS2_, symObjAddr: 0x1A024, symBinAddr: 0x10001F990, symSize: 0x20 }
  - { offsetInCU: 0x3E849, offset: 0x48D33, size: 0x8, addend: 0x0, symName: __ZNSt3__115__tree_iteratorINS_12__value_typeINS_7variantIJidbNS_12basic_stringIcNS_11char_traitsIcEENS_9allocatorIcEEEEEEENS_6vectorIjNS6_IjEEEEEEPNS_11__tree_nodeISD_PvEElEC2B7v160006ESH_, symObjAddr: 0x1A044, symBinAddr: 0x10001F9B0, symSize: 0x20 }
  - { offsetInCU: 0x3E881, offset: 0x48D6B, size: 0x8, addend: 0x0, symName: __ZNSt3__16__treeINS_12__value_typeINS_7variantIJidbNS_12basic_stringIcNS_11char_traitsIcEENS_9allocatorIcEEEEEEENS_6vectorIjNS6_IjEEEEEENS_19__map_value_compareIS9_SD_NS_4lessIS9_EELb1EEENS6_ISD_EEE18_DetachedTreeCache13__detach_nextEPNS_11__tree_nodeISD_PvEE, symObjAddr: 0x1A064, symBinAddr: 0x10001F9D0, symSize: 0xF0 }
  - { offsetInCU: 0x3E8A7, offset: 0x48D91, size: 0x8, addend: 0x0, symName: __ZNSt3__16__treeINS_12__value_typeINS_7variantIJidbNS_12basic_stringIcNS_11char_traitsIcEENS_9allocatorIcEEEEEEENS_6vectorIjNS6_IjEEEEEENS_19__map_value_compareIS9_SD_NS_4lessIS9_EELb1EEENS6_ISD_EEE18_DetachedTreeCacheD2B7v160006Ev, symObjAddr: 0x1A284, symBinAddr: 0x10001FBF0, symSize: 0x9C }
  - { offsetInCU: 0x3E8CF, offset: 0x48DB9, size: 0x8, addend: 0x0, symName: __ZNSt3__16__treeINS_12__value_typeINS_7variantIJidbNS_12basic_stringIcNS_11char_traitsIcEENS_9allocatorIcEEEEEEENS_6vectorIjNS6_IjEEEEEENS_19__map_value_compareIS9_SD_NS_4lessIS9_EELb1EEENS6_ISD_EEE7destroyEPNS_11__tree_nodeISD_PvEE, symObjAddr: 0x1A320, symBinAddr: 0x10001FC8C, symSize: 0xAC }
  - { offsetInCU: 0x3E91A, offset: 0x48E04, size: 0x8, addend: 0x0, symName: __ZNSt3__16__treeINS_12__value_typeINS_7variantIJidbNS_12basic_stringIcNS_11char_traitsIcEENS_9allocatorIcEEEEEEENS_6vectorIjNS6_IjEEEEEENS_19__map_value_compareIS9_SD_NS_4lessIS9_EELb1EEENS6_ISD_EEE12__node_allocB7v160006Ev, symObjAddr: 0x1A3CC, symBinAddr: 0x10001FD38, symSize: 0x28 }
  - { offsetInCU: 0x3E93F, offset: 0x48E29, size: 0x8, addend: 0x0, symName: __ZNSt3__116allocator_traitsINS_9allocatorINS_11__tree_nodeINS_12__value_typeINS_7variantIJidbNS_12basic_stringIcNS_11char_traitsIcEENS1_IcEEEEEEENS_6vectorIjNS1_IjEEEEEEPvEEEEE7destroyB7v160006INS_4pairIKSA_SD_EEvvEEvRSH_PT_, symObjAddr: 0x1A3F4, symBinAddr: 0x10001FD60, symSize: 0x28 }
  - { offsetInCU: 0x3E97C, offset: 0x48E66, size: 0x8, addend: 0x0, symName: __ZNSt3__122__tree_key_value_typesINS_12__value_typeINS_7variantIJidbNS_12basic_stringIcNS_11char_traitsIcEENS_9allocatorIcEEEEEEENS_6vectorIjNS6_IjEEEEEEE9__get_ptrB7v160006ERSD_, symObjAddr: 0x1A41C, symBinAddr: 0x10001FD88, symSize: 0x24 }
  - { offsetInCU: 0x3E9A0, offset: 0x48E8A, size: 0x8, addend: 0x0, symName: __ZNSt3__116allocator_traitsINS_9allocatorINS_11__tree_nodeINS_12__value_typeINS_7variantIJidbNS_12basic_stringIcNS_11char_traitsIcEENS1_IcEEEEEEENS_6vectorIjNS1_IjEEEEEEPvEEEEE10deallocateB7v160006ERSH_PSG_m, symObjAddr: 0x1A440, symBinAddr: 0x10001FDAC, symSize: 0x34 }
  - { offsetInCU: 0x3E9E2, offset: 0x48ECC, size: 0x8, addend: 0x0, symName: __ZNSt3__117__compressed_pairINS_15__tree_end_nodeIPNS_16__tree_node_baseIPvEEEENS_9allocatorINS_11__tree_nodeINS_12__value_typeINS_7variantIJidbNS_12basic_stringIcNS_11char_traitsIcEENS7_IcEEEEEEENS_6vectorIjNS7_IjEEEEEES3_EEEEE6secondB7v160006Ev, symObjAddr: 0x1A474, symBinAddr: 0x10001FDE0, symSize: 0x24 }
  - { offsetInCU: 0x3EA07, offset: 0x48EF1, size: 0x8, addend: 0x0, symName: __ZNSt3__122__compressed_pair_elemINS_9allocatorINS_11__tree_nodeINS_12__value_typeINS_7variantIJidbNS_12basic_stringIcNS_11char_traitsIcEENS1_IcEEEEEEENS_6vectorIjNS1_IjEEEEEEPvEEEELi1ELb1EE5__getB7v160006Ev, symObjAddr: 0x1A498, symBinAddr: 0x10001FE04, symSize: 0x14 }
  - { offsetInCU: 0x3EA2C, offset: 0x48F16, size: 0x8, addend: 0x0, symName: __ZNSt3__14pairIKNS_7variantIJidbNS_12basic_stringIcNS_11char_traitsIcEENS_9allocatorIcEEEEEEENS_6vectorIjNS5_IjEEEEED1Ev, symObjAddr: 0x1A4AC, symBinAddr: 0x10001FE18, symSize: 0x2C }
  - { offsetInCU: 0x3EA57, offset: 0x48F41, size: 0x8, addend: 0x0, symName: __ZNSt3__14pairIKNS_7variantIJidbNS_12basic_stringIcNS_11char_traitsIcEENS_9allocatorIcEEEEEEENS_6vectorIjNS5_IjEEEEED2Ev, symObjAddr: 0x1A4D8, symBinAddr: 0x10001FE44, symSize: 0x38 }
  - { offsetInCU: 0x3EA82, offset: 0x48F6C, size: 0x8, addend: 0x0, symName: __ZNSt3__19allocatorINS_11__tree_nodeINS_12__value_typeINS_7variantIJidbNS_12basic_stringIcNS_11char_traitsIcEENS0_IcEEEEEEENS_6vectorIjNS0_IjEEEEEEPvEEE10deallocateB7v160006EPSF_m, symObjAddr: 0x1A510, symBinAddr: 0x10001FE7C, symSize: 0x44 }
  - { offsetInCU: 0x3EAC3, offset: 0x48FAD, size: 0x8, addend: 0x0, symName: __ZNSt3__16__treeINS_12__value_typeINS_7variantIJidbNS_12basic_stringIcNS_11char_traitsIcEENS_9allocatorIcEEEEEEENS_6vectorIjNS6_IjEEEEEENS_19__map_value_compareIS9_SD_NS_4lessIS9_EELb1EEENS6_ISD_EEE15__emplace_multiIJRKNS_4pairIKS9_SC_EEEEENS_15__tree_iteratorISD_PNS_11__tree_nodeISD_PvEElEEDpOT_, symObjAddr: 0x1A554, symBinAddr: 0x10001FEC0, symSize: 0xD8 }
  - { offsetInCU: 0x3EB33, offset: 0x4901D, size: 0x8, addend: 0x0, symName: __ZNSt3__16__treeINS_12__value_typeINS_7variantIJidbNS_12basic_stringIcNS_11char_traitsIcEENS_9allocatorIcEEEEEEENS_6vectorIjNS6_IjEEEEEENS_19__map_value_compareIS9_SD_NS_4lessIS9_EELb1EEENS6_ISD_EEE16__construct_nodeIJRKNS_4pairIKS9_SC_EEEEENS_10unique_ptrINS_11__tree_nodeISD_PvEENS_22__tree_node_destructorINS6_IST_EEEEEEDpOT_, symObjAddr: 0x1A62C, symBinAddr: 0x10001FF98, symSize: 0x108 }
  - { offsetInCU: 0x3EB94, offset: 0x4907E, size: 0x8, addend: 0x0, symName: __ZNKSt3__110unique_ptrINS_11__tree_nodeINS_12__value_typeINS_7variantIJidbNS_12basic_stringIcNS_11char_traitsIcEENS_9allocatorIcEEEEEEENS_6vectorIjNS7_IjEEEEEEPvEENS_22__tree_node_destructorINS7_ISG_EEEEEptB7v160006Ev, symObjAddr: 0x1A734, symBinAddr: 0x1000200A0, symSize: 0x28 }
  - { offsetInCU: 0x3EBB9, offset: 0x490A3, size: 0x8, addend: 0x0, symName: __ZNKSt3__110unique_ptrINS_11__tree_nodeINS_12__value_typeINS_7variantIJidbNS_12basic_stringIcNS_11char_traitsIcEENS_9allocatorIcEEEEEEENS_6vectorIjNS7_IjEEEEEEPvEENS_22__tree_node_destructorINS7_ISG_EEEEE3getB7v160006Ev, symObjAddr: 0x1A75C, symBinAddr: 0x1000200C8, symSize: 0x28 }
  - { offsetInCU: 0x3EBDE, offset: 0x490C8, size: 0x8, addend: 0x0, symName: __ZNSt3__110unique_ptrINS_11__tree_nodeINS_12__value_typeINS_7variantIJidbNS_12basic_stringIcNS_11char_traitsIcEENS_9allocatorIcEEEEEEENS_6vectorIjNS7_IjEEEEEEPvEENS_22__tree_node_destructorINS7_ISG_EEEEE7releaseB7v160006Ev, symObjAddr: 0x1A784, symBinAddr: 0x1000200F0, symSize: 0x44 }
  - { offsetInCU: 0x3EC12, offset: 0x490FC, size: 0x8, addend: 0x0, symName: __ZNSt3__110unique_ptrINS_11__tree_nodeINS_12__value_typeINS_7variantIJidbNS_12basic_stringIcNS_11char_traitsIcEENS_9allocatorIcEEEEEEENS_6vectorIjNS7_IjEEEEEEPvEENS_22__tree_node_destructorINS7_ISG_EEEEED1B7v160006Ev, symObjAddr: 0x1A7C8, symBinAddr: 0x100020134, symSize: 0x2C }
  - { offsetInCU: 0x3EC3A, offset: 0x49124, size: 0x8, addend: 0x0, symName: __ZNSt3__116allocator_traitsINS_9allocatorINS_11__tree_nodeINS_12__value_typeINS_7variantIJidbNS_12basic_stringIcNS_11char_traitsIcEENS1_IcEEEEEEENS_6vectorIjNS1_IjEEEEEEPvEEEEE8allocateB7v160006ERSH_m, symObjAddr: 0x1A7F4, symBinAddr: 0x100020160, symSize: 0x2C }
  - { offsetInCU: 0x3EC6D, offset: 0x49157, size: 0x8, addend: 0x0, symName: __ZNSt3__122__tree_node_destructorINS_9allocatorINS_11__tree_nodeINS_12__value_typeINS_7variantIJidbNS_12basic_stringIcNS_11char_traitsIcEENS1_IcEEEEEEENS_6vectorIjNS1_IjEEEEEEPvEEEEEC1B7v160006ERSH_b, symObjAddr: 0x1A820, symBinAddr: 0x10002018C, symSize: 0x48 }
  - { offsetInCU: 0x3ECB8, offset: 0x491A2, size: 0x8, addend: 0x0, symName: __ZNSt3__110unique_ptrINS_11__tree_nodeINS_12__value_typeINS_7variantIJidbNS_12basic_stringIcNS_11char_traitsIcEENS_9allocatorIcEEEEEEENS_6vectorIjNS7_IjEEEEEEPvEENS_22__tree_node_destructorINS7_ISG_EEEEEC1B7v160006ILb1EvEEPSG_NS_16__dependent_typeINS_27__unique_ptr_deleter_sfinaeISJ_EEXT_EE20__good_rval_ref_typeE, symObjAddr: 0x1A868, symBinAddr: 0x1000201D4, symSize: 0x3C }
  - { offsetInCU: 0x3ED08, offset: 0x491F2, size: 0x8, addend: 0x0, symName: __ZNSt3__116allocator_traitsINS_9allocatorINS_11__tree_nodeINS_12__value_typeINS_7variantIJidbNS_12basic_stringIcNS_11char_traitsIcEENS1_IcEEEEEEENS_6vectorIjNS1_IjEEEEEEPvEEEEE9constructB7v160006INS_4pairIKSA_SD_EEJRKSM_EvEEvRSH_PT_DpOT0_, symObjAddr: 0x1A8A4, symBinAddr: 0x100020210, symSize: 0x34 }
  - { offsetInCU: 0x3ED61, offset: 0x4924B, size: 0x8, addend: 0x0, symName: __ZNSt3__110unique_ptrINS_11__tree_nodeINS_12__value_typeINS_7variantIJidbNS_12basic_stringIcNS_11char_traitsIcEENS_9allocatorIcEEEEEEENS_6vectorIjNS7_IjEEEEEEPvEENS_22__tree_node_destructorINS7_ISG_EEEEE11get_deleterB7v160006Ev, symObjAddr: 0x1A8D8, symBinAddr: 0x100020244, symSize: 0x24 }
  - { offsetInCU: 0x3ED86, offset: 0x49270, size: 0x8, addend: 0x0, symName: __ZNSt3__19allocatorINS_11__tree_nodeINS_12__value_typeINS_7variantIJidbNS_12basic_stringIcNS_11char_traitsIcEENS0_IcEEEEEEENS_6vectorIjNS0_IjEEEEEEPvEEE8allocateB7v160006Em, symObjAddr: 0x1A8FC, symBinAddr: 0x100020268, symSize: 0x5C }
  - { offsetInCU: 0x3EDC3, offset: 0x492AD, size: 0x8, addend: 0x0, symName: __ZNSt3__116allocator_traitsINS_9allocatorINS_11__tree_nodeINS_12__value_typeINS_7variantIJidbNS_12basic_stringIcNS_11char_traitsIcEENS1_IcEEEEEEENS_6vectorIjNS1_IjEEEEEEPvEEEEE8max_sizeB7v160006ISH_vEEmRKSH_, symObjAddr: 0x1A958, symBinAddr: 0x1000202C4, symSize: 0x24 }
  - { offsetInCU: 0x3EDF2, offset: 0x492DC, size: 0x8, addend: 0x0, symName: __ZNKSt3__19allocatorINS_11__tree_nodeINS_12__value_typeINS_7variantIJidbNS_12basic_stringIcNS_11char_traitsIcEENS0_IcEEEEEEENS_6vectorIjNS0_IjEEEEEEPvEEE8max_sizeB7v160006Ev, symObjAddr: 0x1A97C, symBinAddr: 0x1000202E8, symSize: 0x20 }
  - { offsetInCU: 0x3EE17, offset: 0x49301, size: 0x8, addend: 0x0, symName: __ZNSt3__122__tree_node_destructorINS_9allocatorINS_11__tree_nodeINS_12__value_typeINS_7variantIJidbNS_12basic_stringIcNS_11char_traitsIcEENS1_IcEEEEEEENS_6vectorIjNS1_IjEEEEEEPvEEEEEC2B7v160006ERSH_b, symObjAddr: 0x1A99C, symBinAddr: 0x100020308, symSize: 0x38 }
  - { offsetInCU: 0x3EE5E, offset: 0x49348, size: 0x8, addend: 0x0, symName: __ZNSt3__110unique_ptrINS_11__tree_nodeINS_12__value_typeINS_7variantIJidbNS_12basic_stringIcNS_11char_traitsIcEENS_9allocatorIcEEEEEEENS_6vectorIjNS7_IjEEEEEEPvEENS_22__tree_node_destructorINS7_ISG_EEEEEC2B7v160006ILb1EvEEPSG_NS_16__dependent_typeINS_27__unique_ptr_deleter_sfinaeISJ_EEXT_EE20__good_rval_ref_typeE, symObjAddr: 0x1A9D4, symBinAddr: 0x100020340, symSize: 0x48 }
  - { offsetInCU: 0x3EEAE, offset: 0x49398, size: 0x8, addend: 0x0, symName: __ZNSt3__117__compressed_pairIPNS_11__tree_nodeINS_12__value_typeINS_7variantIJidbNS_12basic_stringIcNS_11char_traitsIcEENS_9allocatorIcEEEEEEENS_6vectorIjNS7_IjEEEEEEPvEENS_22__tree_node_destructorINS7_ISG_EEEEEC1B7v160006IRSH_SK_EEOT_OT0_, symObjAddr: 0x1AA1C, symBinAddr: 0x100020388, symSize: 0x3C }
  - { offsetInCU: 0x3EF04, offset: 0x493EE, size: 0x8, addend: 0x0, symName: __ZNSt3__117__compressed_pairIPNS_11__tree_nodeINS_12__value_typeINS_7variantIJidbNS_12basic_stringIcNS_11char_traitsIcEENS_9allocatorIcEEEEEEENS_6vectorIjNS7_IjEEEEEEPvEENS_22__tree_node_destructorINS7_ISG_EEEEEC2B7v160006IRSH_SK_EEOT_OT0_, symObjAddr: 0x1AA58, symBinAddr: 0x1000203C4, symSize: 0x48 }
  - { offsetInCU: 0x3EF5A, offset: 0x49444, size: 0x8, addend: 0x0, symName: __ZNSt3__122__compressed_pair_elemIPNS_11__tree_nodeINS_12__value_typeINS_7variantIJidbNS_12basic_stringIcNS_11char_traitsIcEENS_9allocatorIcEEEEEEENS_6vectorIjNS7_IjEEEEEEPvEELi0ELb0EEC2B7v160006IRSH_vEEOT_, symObjAddr: 0x1AAA0, symBinAddr: 0x10002040C, symSize: 0x24 }
  - { offsetInCU: 0x3EF9C, offset: 0x49486, size: 0x8, addend: 0x0, symName: __ZNSt3__122__compressed_pair_elemINS_22__tree_node_destructorINS_9allocatorINS_11__tree_nodeINS_12__value_typeINS_7variantIJidbNS_12basic_stringIcNS_11char_traitsIcEENS2_IcEEEEEEENS_6vectorIjNS2_IjEEEEEEPvEEEEEELi1ELb0EEC2B7v160006ISJ_vEEOT_, symObjAddr: 0x1AAC4, symBinAddr: 0x100020430, symSize: 0x24 }
  - { offsetInCU: 0x3EFDE, offset: 0x494C8, size: 0x8, addend: 0x0, symName: __ZNSt3__19allocatorINS_11__tree_nodeINS_12__value_typeINS_7variantIJidbNS_12basic_stringIcNS_11char_traitsIcEENS0_IcEEEEEEENS_6vectorIjNS0_IjEEEEEEPvEEE9constructB7v160006INS_4pairIKS9_SC_EEJRKSK_EEEvPT_DpOT0_, symObjAddr: 0x1AAE8, symBinAddr: 0x100020454, symSize: 0x30 }
  - { offsetInCU: 0x3F034, offset: 0x4951E, size: 0x8, addend: 0x0, symName: __ZNSt3__14pairIKNS_7variantIJidbNS_12basic_stringIcNS_11char_traitsIcEENS_9allocatorIcEEEEEEENS_6vectorIjNS5_IjEEEEEC1ERKSD_, symObjAddr: 0x1AB18, symBinAddr: 0x100020484, symSize: 0x34 }
  - { offsetInCU: 0x3F067, offset: 0x49551, size: 0x8, addend: 0x0, symName: __ZNSt3__14pairIKNS_7variantIJidbNS_12basic_stringIcNS_11char_traitsIcEENS_9allocatorIcEEEEEEENS_6vectorIjNS5_IjEEEEEC2ERKSD_, symObjAddr: 0x1AB4C, symBinAddr: 0x1000204B8, symSize: 0x70 }
  - { offsetInCU: 0x3F09A, offset: 0x49584, size: 0x8, addend: 0x0, symName: __ZNSt3__117__compressed_pairIPNS_11__tree_nodeINS_12__value_typeINS_7variantIJidbNS_12basic_stringIcNS_11char_traitsIcEENS_9allocatorIcEEEEEEENS_6vectorIjNS7_IjEEEEEEPvEENS_22__tree_node_destructorINS7_ISG_EEEEE6secondB7v160006Ev, symObjAddr: 0x1ABBC, symBinAddr: 0x100020528, symSize: 0x28 }
  - { offsetInCU: 0x3F0BF, offset: 0x495A9, size: 0x8, addend: 0x0, symName: __ZNSt3__122__compressed_pair_elemINS_22__tree_node_destructorINS_9allocatorINS_11__tree_nodeINS_12__value_typeINS_7variantIJidbNS_12basic_stringIcNS_11char_traitsIcEENS2_IcEEEEEEENS_6vectorIjNS2_IjEEEEEEPvEEEEEELi1ELb0EE5__getB7v160006Ev, symObjAddr: 0x1ABE4, symBinAddr: 0x100020550, symSize: 0x14 }
  - { offsetInCU: 0x3F0E4, offset: 0x495CE, size: 0x8, addend: 0x0, symName: __ZNKSt3__117__compressed_pairIPNS_11__tree_nodeINS_12__value_typeINS_7variantIJidbNS_12basic_stringIcNS_11char_traitsIcEENS_9allocatorIcEEEEEEENS_6vectorIjNS7_IjEEEEEEPvEENS_22__tree_node_destructorINS7_ISG_EEEEE5firstB7v160006Ev, symObjAddr: 0x1ABF8, symBinAddr: 0x100020564, symSize: 0x24 }
  - { offsetInCU: 0x3F109, offset: 0x495F3, size: 0x8, addend: 0x0, symName: __ZNKSt3__122__compressed_pair_elemIPNS_11__tree_nodeINS_12__value_typeINS_7variantIJidbNS_12basic_stringIcNS_11char_traitsIcEENS_9allocatorIcEEEEEEENS_6vectorIjNS7_IjEEEEEEPvEELi0ELb0EE5__getB7v160006Ev, symObjAddr: 0x1AC1C, symBinAddr: 0x100020588, symSize: 0x14 }
  - { offsetInCU: 0x3F12E, offset: 0x49618, size: 0x8, addend: 0x0, symName: __ZNSt3__117__compressed_pairIPNS_11__tree_nodeINS_12__value_typeINS_7variantIJidbNS_12basic_stringIcNS_11char_traitsIcEENS_9allocatorIcEEEEEEENS_6vectorIjNS7_IjEEEEEEPvEENS_22__tree_node_destructorINS7_ISG_EEEEE5firstB7v160006Ev, symObjAddr: 0x1AC30, symBinAddr: 0x10002059C, symSize: 0x24 }
  - { offsetInCU: 0x3F153, offset: 0x4963D, size: 0x8, addend: 0x0, symName: __ZNSt3__122__compressed_pair_elemIPNS_11__tree_nodeINS_12__value_typeINS_7variantIJidbNS_12basic_stringIcNS_11char_traitsIcEENS_9allocatorIcEEEEEEENS_6vectorIjNS7_IjEEEEEEPvEELi0ELb0EE5__getB7v160006Ev, symObjAddr: 0x1AC54, symBinAddr: 0x1000205C0, symSize: 0x14 }
  - { offsetInCU: 0x3F178, offset: 0x49662, size: 0x8, addend: 0x0, symName: __ZNSt3__110unique_ptrINS_11__tree_nodeINS_12__value_typeINS_7variantIJidbNS_12basic_stringIcNS_11char_traitsIcEENS_9allocatorIcEEEEEEENS_6vectorIjNS7_IjEEEEEEPvEENS_22__tree_node_destructorINS7_ISG_EEEEED2B7v160006Ev, symObjAddr: 0x1AC68, symBinAddr: 0x1000205D4, symSize: 0x30 }
  - { offsetInCU: 0x3F1A0, offset: 0x4968A, size: 0x8, addend: 0x0, symName: __ZNSt3__110unique_ptrINS_11__tree_nodeINS_12__value_typeINS_7variantIJidbNS_12basic_stringIcNS_11char_traitsIcEENS_9allocatorIcEEEEEEENS_6vectorIjNS7_IjEEEEEEPvEENS_22__tree_node_destructorINS7_ISG_EEEEE5resetB7v160006EPSG_, symObjAddr: 0x1AC98, symBinAddr: 0x100020604, symSize: 0x78 }
  - { offsetInCU: 0x3F1E3, offset: 0x496CD, size: 0x8, addend: 0x0, symName: __ZNSt3__122__tree_node_destructorINS_9allocatorINS_11__tree_nodeINS_12__value_typeINS_7variantIJidbNS_12basic_stringIcNS_11char_traitsIcEENS1_IcEEEEEEENS_6vectorIjNS1_IjEEEEEEPvEEEEEclB7v160006EPSG_, symObjAddr: 0x1AD10, symBinAddr: 0x10002067C, symSize: 0x88 }
  - { offsetInCU: 0x3F217, offset: 0x49701, size: 0x8, addend: 0x0, symName: __ZNKSt3__16__treeINS_12__value_typeINS_7variantIJidbNS_12basic_stringIcNS_11char_traitsIcEENS_9allocatorIcEEEEEEENS_6vectorIjNS6_IjEEEEEENS_19__map_value_compareIS9_SD_NS_4lessIS9_EELb1EEENS6_ISD_EEE12__begin_nodeB7v160006Ev, symObjAddr: 0x1AD98, symBinAddr: 0x100020704, symSize: 0x14 }
  - { offsetInCU: 0x3F23C, offset: 0x49726, size: 0x8, addend: 0x0, symName: __ZNSt3__121__tree_const_iteratorINS_12__value_typeINS_7variantIJidbNS_12basic_stringIcNS_11char_traitsIcEENS_9allocatorIcEEEEEEENS_6vectorIjNS6_IjEEEEEEPNS_11__tree_nodeISD_PvEElEC1B7v160006EPNS_15__tree_end_nodeIPNS_16__tree_node_baseISF_EEEE, symObjAddr: 0x1ADAC, symBinAddr: 0x100020718, symSize: 0x34 }
  - { offsetInCU: 0x3F273, offset: 0x4975D, size: 0x8, addend: 0x0, symName: __ZNSt3__121__tree_const_iteratorINS_12__value_typeINS_7variantIJidbNS_12basic_stringIcNS_11char_traitsIcEENS_9allocatorIcEEEEEEENS_6vectorIjNS6_IjEEEEEEPNS_11__tree_nodeISD_PvEElEC2B7v160006EPNS_15__tree_end_nodeIPNS_16__tree_node_baseISF_EEEE, symObjAddr: 0x1ADE0, symBinAddr: 0x10002074C, symSize: 0x20 }
  - { offsetInCU: 0x3F2C9, offset: 0x497B3, size: 0x8, addend: 0x0, symName: __ZNSt3__16vectorINS_12basic_stringIcNS_11char_traitsIcEENS_9allocatorIcEEEENS4_IS6_EEE11__make_iterB7v160006EPS6_, symObjAddr: 0x1B588, symBinAddr: 0x10002076C, symSize: 0x34 }
  - { offsetInCU: 0x3F2FD, offset: 0x497E7, size: 0x8, addend: 0x0, symName: __ZNSt3__111__wrap_iterIPNS_12basic_stringIcNS_11char_traitsIcEENS_9allocatorIcEEEEEC1B7v160006EPKvS7_, symObjAddr: 0x1B5BC, symBinAddr: 0x1000207A0, symSize: 0x3C }
  - { offsetInCU: 0x3F341, offset: 0x4982B, size: 0x8, addend: 0x0, symName: __ZNSt3__111__wrap_iterIPNS_12basic_stringIcNS_11char_traitsIcEENS_9allocatorIcEEEEEC2B7v160006EPKvS7_, symObjAddr: 0x1B5F8, symBinAddr: 0x1000207DC, symSize: 0x24 }
  - { offsetInCU: 0x3F386, offset: 0x49870, size: 0x8, addend: 0x0, symName: __ZNKSt3__111__wrap_iterIPNS_12basic_stringIcNS_11char_traitsIcEENS_9allocatorIcEEEEE4baseB7v160006Ev, symObjAddr: 0x1B664, symBinAddr: 0x100020848, symSize: 0x18 }
  - { offsetInCU: 0x3F3AB, offset: 0x49895, size: 0x8, addend: 0x0, symName: __ZN5TableD2Ev, symObjAddr: 0x1B67C, symBinAddr: 0x100020860, symSize: 0x84 }
  - { offsetInCU: 0x3F3D6, offset: 0x498C0, size: 0x8, addend: 0x0, symName: __ZNSt3__13mapINS_7variantIJidbNS_12basic_stringIcNS_11char_traitsIcEENS_9allocatorIcEEEEEEENS_6vectorIjNS5_IjEEEENS_4lessIS8_EENS5_INS_4pairIKS8_SB_EEEEED1B7v160006Ev, symObjAddr: 0x1B700, symBinAddr: 0x1000208E4, symSize: 0x2C }
  - { offsetInCU: 0x3F3FE, offset: 0x498E8, size: 0x8, addend: 0x0, symName: __ZNSt3__113unordered_mapINS_12basic_stringIcNS_11char_traitsIcEENS_9allocatorIcEEEENS_6vectorIjNS4_IjEEEENS_4hashIS6_EENS_8equal_toIS6_EENS4_INS_4pairIKS6_S9_EEEEED1B7v160006Ev, symObjAddr: 0x1B72C, symBinAddr: 0x100020910, symSize: 0x2C }
  - { offsetInCU: 0x3F426, offset: 0x49910, size: 0x8, addend: 0x0, symName: __ZNSt3__16vectorINS0_INS_7variantIJidbNS_12basic_stringIcNS_11char_traitsIcEENS_9allocatorIcEEEEEEENS5_IS8_EEEENS5_ISA_EEED1B7v160006Ev, symObjAddr: 0x1B758, symBinAddr: 0x10002093C, symSize: 0x2C }
  - { offsetInCU: 0x3F44E, offset: 0x49938, size: 0x8, addend: 0x0, symName: __ZNSt3__16vectorI10ColumnTypeNS_9allocatorIS1_EEED1B7v160006Ev, symObjAddr: 0x1B784, symBinAddr: 0x100020968, symSize: 0x2C }
  - { offsetInCU: 0x3F476, offset: 0x49960, size: 0x8, addend: 0x0, symName: __ZNSt3__16vectorINS_12basic_stringIcNS_11char_traitsIcEENS_9allocatorIcEEEENS4_IS6_EEED1B7v160006Ev, symObjAddr: 0x1B7B0, symBinAddr: 0x100020994, symSize: 0x2C }
  - { offsetInCU: 0x3F49E, offset: 0x49988, size: 0x8, addend: 0x0, symName: __ZNSt3__13mapINS_7variantIJidbNS_12basic_stringIcNS_11char_traitsIcEENS_9allocatorIcEEEEEEENS_6vectorIjNS5_IjEEEENS_4lessIS8_EENS5_INS_4pairIKS8_SB_EEEEED2B7v160006Ev, symObjAddr: 0x1B7DC, symBinAddr: 0x1000209C0, symSize: 0x2C }
  - { offsetInCU: 0x3F4C6, offset: 0x499B0, size: 0x8, addend: 0x0, symName: __ZNSt3__16__treeINS_12__value_typeINS_7variantIJidbNS_12basic_stringIcNS_11char_traitsIcEENS_9allocatorIcEEEEEEENS_6vectorIjNS6_IjEEEEEENS_19__map_value_compareIS9_SD_NS_4lessIS9_EELb1EEENS6_ISD_EEED1Ev, symObjAddr: 0x1B808, symBinAddr: 0x1000209EC, symSize: 0x2C }
  - { offsetInCU: 0x3F4F1, offset: 0x499DB, size: 0x8, addend: 0x0, symName: __ZNSt3__16__treeINS_12__value_typeINS_7variantIJidbNS_12basic_stringIcNS_11char_traitsIcEENS_9allocatorIcEEEEEEENS_6vectorIjNS6_IjEEEEEENS_19__map_value_compareIS9_SD_NS_4lessIS9_EELb1EEENS6_ISD_EEED2Ev, symObjAddr: 0x1B834, symBinAddr: 0x100020A18, symSize: 0x38 }
  - { offsetInCU: 0x3F51C, offset: 0x49A06, size: 0x8, addend: 0x0, symName: __ZNSt3__113unordered_mapINS_12basic_stringIcNS_11char_traitsIcEENS_9allocatorIcEEEENS_6vectorIjNS4_IjEEEENS_4hashIS6_EENS_8equal_toIS6_EENS4_INS_4pairIKS6_S9_EEEEED2B7v160006Ev, symObjAddr: 0x1B86C, symBinAddr: 0x100020A50, symSize: 0x2C }
  - { offsetInCU: 0x3F544, offset: 0x49A2E, size: 0x8, addend: 0x0, symName: __ZNSt3__112__hash_tableINS_17__hash_value_typeINS_12basic_stringIcNS_11char_traitsIcEENS_9allocatorIcEEEENS_6vectorIjNS5_IjEEEEEENS_22__unordered_map_hasherIS7_SB_NS_4hashIS7_EENS_8equal_toIS7_EELb1EEENS_21__unordered_map_equalIS7_SB_SG_SE_Lb1EEENS5_ISB_EEED1Ev, symObjAddr: 0x1B898, symBinAddr: 0x100020A7C, symSize: 0x2C }
  - { offsetInCU: 0x3F56F, offset: 0x49A59, size: 0x8, addend: 0x0, symName: __ZNSt3__112__hash_tableINS_17__hash_value_typeINS_12basic_stringIcNS_11char_traitsIcEENS_9allocatorIcEEEENS_6vectorIjNS5_IjEEEEEENS_22__unordered_map_hasherIS7_SB_NS_4hashIS7_EENS_8equal_toIS7_EELb1EEENS_21__unordered_map_equalIS7_SB_SG_SE_Lb1EEENS5_ISB_EEED2Ev, symObjAddr: 0x1B8C4, symBinAddr: 0x100020AA8, symSize: 0x58 }
  - { offsetInCU: 0x3F59A, offset: 0x49A84, size: 0x8, addend: 0x0, symName: __ZNSt3__110unique_ptrIA_PNS_16__hash_node_baseIPNS_11__hash_nodeINS_17__hash_value_typeINS_12basic_stringIcNS_11char_traitsIcEENS_9allocatorIcEEEENS_6vectorIjNS7_IjEEEEEEPvEEEENS_25__bucket_list_deallocatorINS7_ISI_EEEEED1B7v160006Ev, symObjAddr: 0x1B92C, symBinAddr: 0x100020B10, symSize: 0x2C }
  - { offsetInCU: 0x3F5C2, offset: 0x49AAC, size: 0x8, addend: 0x0, symName: __ZNSt3__110unique_ptrIA_PNS_16__hash_node_baseIPNS_11__hash_nodeINS_17__hash_value_typeINS_12basic_stringIcNS_11char_traitsIcEENS_9allocatorIcEEEENS_6vectorIjNS7_IjEEEEEEPvEEEENS_25__bucket_list_deallocatorINS7_ISI_EEEEED2B7v160006Ev, symObjAddr: 0x1B958, symBinAddr: 0x100020B3C, symSize: 0x30 }
  - { offsetInCU: 0x3F5EA, offset: 0x49AD4, size: 0x8, addend: 0x0, symName: __ZNSt3__110unique_ptrIA_PNS_16__hash_node_baseIPNS_11__hash_nodeINS_17__hash_value_typeINS_12basic_stringIcNS_11char_traitsIcEENS_9allocatorIcEEEENS_6vectorIjNS7_IjEEEEEEPvEEEENS_25__bucket_list_deallocatorINS7_ISI_EEEEE5resetB7v160006EDn, symObjAddr: 0x1B988, symBinAddr: 0x100020B6C, symSize: 0x6C }
  - { offsetInCU: 0x3F62A, offset: 0x49B14, size: 0x8, addend: 0x0, symName: __ZNSt3__16vectorINS0_INS_7variantIJidbNS_12basic_stringIcNS_11char_traitsIcEENS_9allocatorIcEEEEEEENS5_IS8_EEEENS5_ISA_EEED2B7v160006Ev, symObjAddr: 0x1B9F4, symBinAddr: 0x100020BD8, symSize: 0x44 }
  - { offsetInCU: 0x3F652, offset: 0x49B3C, size: 0x8, addend: 0x0, symName: __ZNSt3__16vectorINS0_INS_7variantIJidbNS_12basic_stringIcNS_11char_traitsIcEENS_9allocatorIcEEEEEEENS5_IS8_EEEENS5_ISA_EEE16__destroy_vectorC1ERSC_, symObjAddr: 0x1BA38, symBinAddr: 0x100020C1C, symSize: 0x34 }
  - { offsetInCU: 0x3F689, offset: 0x49B73, size: 0x8, addend: 0x0, symName: __ZNSt3__16vectorINS0_INS_7variantIJidbNS_12basic_stringIcNS_11char_traitsIcEENS_9allocatorIcEEEEEEENS5_IS8_EEEENS5_ISA_EEE16__destroy_vectorclB7v160006Ev, symObjAddr: 0x1BA6C, symBinAddr: 0x100020C50, symSize: 0x9C }
  - { offsetInCU: 0x3F6AE, offset: 0x49B98, size: 0x8, addend: 0x0, symName: __ZNSt3__16vectorINS0_INS_7variantIJidbNS_12basic_stringIcNS_11char_traitsIcEENS_9allocatorIcEEEEEEENS5_IS8_EEEENS5_ISA_EEE16__destroy_vectorC2ERSC_, symObjAddr: 0x1BB08, symBinAddr: 0x100020CEC, symSize: 0x20 }
  - { offsetInCU: 0x3F6E6, offset: 0x49BD0, size: 0x8, addend: 0x0, symName: __ZNKSt3__16vectorINS0_INS_7variantIJidbNS_12basic_stringIcNS_11char_traitsIcEENS_9allocatorIcEEEEEEENS5_IS8_EEEENS5_ISA_EEE17__annotate_deleteB7v160006Ev, symObjAddr: 0x1BB28, symBinAddr: 0x100020D0C, symSize: 0xD4 }
  - { offsetInCU: 0x3F70B, offset: 0x49BF5, size: 0x8, addend: 0x0, symName: __ZNSt3__16vectorI10ColumnTypeNS_9allocatorIS1_EEED2B7v160006Ev, symObjAddr: 0x1BC0C, symBinAddr: 0x100020DF0, symSize: 0x44 }
  - { offsetInCU: 0x3F733, offset: 0x49C1D, size: 0x8, addend: 0x0, symName: __ZNSt3__16vectorI10ColumnTypeNS_9allocatorIS1_EEE16__destroy_vectorC1ERS4_, symObjAddr: 0x1BC50, symBinAddr: 0x100020E34, symSize: 0x34 }
  - { offsetInCU: 0x3F76A, offset: 0x49C54, size: 0x8, addend: 0x0, symName: __ZNSt3__16vectorI10ColumnTypeNS_9allocatorIS1_EEE16__destroy_vectorclB7v160006Ev, symObjAddr: 0x1BC84, symBinAddr: 0x100020E68, symSize: 0x9C }
  - { offsetInCU: 0x3F78F, offset: 0x49C79, size: 0x8, addend: 0x0, symName: __ZNSt3__16vectorI10ColumnTypeNS_9allocatorIS1_EEE16__destroy_vectorC2ERS4_, symObjAddr: 0x1BD20, symBinAddr: 0x100020F04, symSize: 0x20 }
  - { offsetInCU: 0x3F7C7, offset: 0x49CB1, size: 0x8, addend: 0x0, symName: __ZNSt3__16vectorINS_12basic_stringIcNS_11char_traitsIcEENS_9allocatorIcEEEENS4_IS6_EEED2B7v160006Ev, symObjAddr: 0x1BD50, symBinAddr: 0x100020F34, symSize: 0x44 }
  - { offsetInCU: 0x3F7EF, offset: 0x49CD9, size: 0x8, addend: 0x0, symName: __ZNSt3__16vectorINS_12basic_stringIcNS_11char_traitsIcEENS_9allocatorIcEEEENS4_IS6_EEE16__destroy_vectorC1ERS8_, symObjAddr: 0x1BD94, symBinAddr: 0x100020F78, symSize: 0x34 }
  - { offsetInCU: 0x3F826, offset: 0x49D10, size: 0x8, addend: 0x0, symName: __ZNSt3__16vectorINS_12basic_stringIcNS_11char_traitsIcEENS_9allocatorIcEEEENS4_IS6_EEE16__destroy_vectorclB7v160006Ev, symObjAddr: 0x1BDC8, symBinAddr: 0x100020FAC, symSize: 0x9C }
  - { offsetInCU: 0x3F84B, offset: 0x49D35, size: 0x8, addend: 0x0, symName: __ZNSt3__16vectorINS_12basic_stringIcNS_11char_traitsIcEENS_9allocatorIcEEEENS4_IS6_EEE16__destroy_vectorC2ERS8_, symObjAddr: 0x1BE64, symBinAddr: 0x100021048, symSize: 0x20 }
  - { offsetInCU: 0x3F883, offset: 0x49D6D, size: 0x8, addend: 0x0, symName: __ZNSt3__111char_traitsIcE2eqEcc, symObjAddr: 0x1C0C8, symBinAddr: 0x1000212AC, symSize: 0x28 }
  - { offsetInCU: 0x3F8B4, offset: 0x49D9E, size: 0x8, addend: 0x0, symName: __ZNSt3__113unordered_mapINS_12basic_stringIcNS_11char_traitsIcEENS_9allocatorIcEEEE5TableNS_4hashIS6_EENS_8equal_toIS6_EENS4_INS_4pairIKS6_S7_EEEEE5eraseB7v160006ERSD_, symObjAddr: 0x1C120, symBinAddr: 0x100021304, symSize: 0x2C }
  - { offsetInCU: 0x3F8E8, offset: 0x49DD2, size: 0x8, addend: 0x0, symName: __ZNSt3__112__hash_tableINS_17__hash_value_typeINS_12basic_stringIcNS_11char_traitsIcEENS_9allocatorIcEEEE5TableEENS_22__unordered_map_hasherIS7_S9_NS_4hashIS7_EENS_8equal_toIS7_EELb1EEENS_21__unordered_map_equalIS7_S9_SE_SC_Lb1EEENS5_IS9_EEE14__erase_uniqueIS7_EEmRKT_, symObjAddr: 0x1C180, symBinAddr: 0x100021364, symSize: 0x98 }
  - { offsetInCU: 0x3F936, offset: 0x49E20, size: 0x8, addend: 0x0, symName: __ZNSt3__112__hash_tableINS_17__hash_value_typeINS_12basic_stringIcNS_11char_traitsIcEENS_9allocatorIcEEEE5TableEENS_22__unordered_map_hasherIS7_S9_NS_4hashIS7_EENS_8equal_toIS7_EELb1EEENS_21__unordered_map_equalIS7_S9_SE_SC_Lb1EEENS5_IS9_EEE5eraseENS_21__hash_const_iteratorIPNS_11__hash_nodeIS9_PvEEEE, symObjAddr: 0x1C218, symBinAddr: 0x1000213FC, symSize: 0x70 }
  - { offsetInCU: 0x3F98A, offset: 0x49E74, size: 0x8, addend: 0x0, symName: __ZNSt3__121__hash_const_iteratorIPNS_11__hash_nodeINS_17__hash_value_typeINS_12basic_stringIcNS_11char_traitsIcEENS_9allocatorIcEEEE5TableEEPvEEEC1B7v160006ERKNS_15__hash_iteratorISD_EE, symObjAddr: 0x1C288, symBinAddr: 0x10002146C, symSize: 0x34 }
  - { offsetInCU: 0x3F9C1, offset: 0x49EAB, size: 0x8, addend: 0x0, symName: __ZNSt3__115__hash_iteratorIPNS_11__hash_nodeINS_17__hash_value_typeINS_12basic_stringIcNS_11char_traitsIcEENS_9allocatorIcEEEE5TableEEPvEEEppB7v160006Ev, symObjAddr: 0x1C2BC, symBinAddr: 0x1000214A0, symSize: 0x20 }
  - { offsetInCU: 0x3F9E6, offset: 0x49ED0, size: 0x8, addend: 0x0, symName: __ZNSt3__112__hash_tableINS_17__hash_value_typeINS_12basic_stringIcNS_11char_traitsIcEENS_9allocatorIcEEEE5TableEENS_22__unordered_map_hasherIS7_S9_NS_4hashIS7_EENS_8equal_toIS7_EELb1EEENS_21__unordered_map_equalIS7_S9_SE_SC_Lb1EEENS5_IS9_EEE6removeENS_21__hash_const_iteratorIPNS_11__hash_nodeIS9_PvEEEE, symObjAddr: 0x1C2DC, symBinAddr: 0x1000214C0, symSize: 0x220 }
  - { offsetInCU: 0x3FA77, offset: 0x49F61, size: 0x8, addend: 0x0, symName: __ZNSt3__121__hash_const_iteratorIPNS_11__hash_nodeINS_17__hash_value_typeINS_12basic_stringIcNS_11char_traitsIcEENS_9allocatorIcEEEE5TableEEPvEEEC2B7v160006ERKNS_15__hash_iteratorISD_EE, symObjAddr: 0x1C4FC, symBinAddr: 0x1000216E0, symSize: 0x24 }
  - { offsetInCU: 0x3FAAF, offset: 0x49F99, size: 0x8, addend: 0x0, symName: __ZNSt3__16vectorINS0_INS_7variantIJidbNS_12basic_stringIcNS_11char_traitsIcEENS_9allocatorIcEEEEEEENS5_IS8_EEEENS5_ISA_EEE7reserveEm, symObjAddr: 0x1C520, symBinAddr: 0x100021704, symSize: 0xE8 }
  - { offsetInCU: 0x3FB0A, offset: 0x49FF4, size: 0x8, addend: 0x0, symName: __ZNSt3__16vectorINS_7variantIJidbNS_12basic_stringIcNS_11char_traitsIcEENS_9allocatorIcEEEEEEENS5_IS8_EEEC1B7v160006Ev, symObjAddr: 0x1C608, symBinAddr: 0x1000217EC, symSize: 0x2C }
  - { offsetInCU: 0x3FB32, offset: 0x4A01C, size: 0x8, addend: 0x0, symName: __ZNSt3__16vectorINS_7variantIJidbNS_12basic_stringIcNS_11char_traitsIcEENS_9allocatorIcEEEEEEENS5_IS8_EEE12emplace_backIJRS7_EEERS8_DpOT_, symObjAddr: 0x1C634, symBinAddr: 0x100021818, symSize: 0x74 }
  - { offsetInCU: 0x3FB74, offset: 0x4A05E, size: 0x8, addend: 0x0, symName: __ZNSt3__16vectorINS_7variantIJidbNS_12basic_stringIcNS_11char_traitsIcEENS_9allocatorIcEEEEEEENS5_IS8_EEE12emplace_backIJRdEEERS8_DpOT_, symObjAddr: 0x1C6A8, symBinAddr: 0x10002188C, symSize: 0x74 }
  - { offsetInCU: 0x3FBB6, offset: 0x4A0A0, size: 0x8, addend: 0x0, symName: __ZNSt3__16vectorINS_7variantIJidbNS_12basic_stringIcNS_11char_traitsIcEENS_9allocatorIcEEEEEEENS5_IS8_EEE12emplace_backIJRiEEERS8_DpOT_, symObjAddr: 0x1C71C, symBinAddr: 0x100021900, symSize: 0x74 }
  - { offsetInCU: 0x3FBF8, offset: 0x4A0E2, size: 0x8, addend: 0x0, symName: __ZNSt3__16vectorINS_7variantIJidbNS_12basic_stringIcNS_11char_traitsIcEENS_9allocatorIcEEEEEEENS5_IS8_EEE12emplace_backIJRbEEERS8_DpOT_, symObjAddr: 0x1C790, symBinAddr: 0x100021974, symSize: 0x74 }
  - { offsetInCU: 0x3FC3A, offset: 0x4A124, size: 0x8, addend: 0x0, symName: __ZNSt3__16vectorINS0_INS_7variantIJidbNS_12basic_stringIcNS_11char_traitsIcEENS_9allocatorIcEEEEEEENS5_IS8_EEEENS5_ISA_EEE9push_backB7v160006ERKSA_, symObjAddr: 0x1C804, symBinAddr: 0x1000219E8, symSize: 0x6C }
  - { offsetInCU: 0x3FC70, offset: 0x4A15A, size: 0x8, addend: 0x0, symName: __ZNSt3__114__split_bufferINS_6vectorINS_7variantIJidbNS_12basic_stringIcNS_11char_traitsIcEENS_9allocatorIcEEEEEEENS6_IS9_EEEERNS6_ISB_EEEC1EmmSD_, symObjAddr: 0x1C870, symBinAddr: 0x100021A54, symSize: 0x44 }
  - { offsetInCU: 0x3FCC5, offset: 0x4A1AF, size: 0x8, addend: 0x0, symName: __ZNSt3__114__split_bufferINS_6vectorINS_7variantIJidbNS_12basic_stringIcNS_11char_traitsIcEENS_9allocatorIcEEEEEEENS6_IS9_EEEERNS6_ISB_EEED1Ev, symObjAddr: 0x1C9CC, symBinAddr: 0x100021BB0, symSize: 0x2C }
  - { offsetInCU: 0x3FCF0, offset: 0x4A1DA, size: 0x8, addend: 0x0, symName: __ZNSt3__114__split_bufferINS_6vectorINS_7variantIJidbNS_12basic_stringIcNS_11char_traitsIcEENS_9allocatorIcEEEEEEENS6_IS9_EEEERNS6_ISB_EEEC2EmmSD_, symObjAddr: 0x1C9F8, symBinAddr: 0x100021BDC, symSize: 0xE0 }
  - { offsetInCU: 0x3FD63, offset: 0x4A24D, size: 0x8, addend: 0x0, symName: __ZNSt3__117__compressed_pairIPNS_6vectorINS_7variantIJidbNS_12basic_stringIcNS_11char_traitsIcEENS_9allocatorIcEEEEEEENS6_IS9_EEEERNS6_ISB_EEEC1B7v160006IDnSE_EEOT_OT0_, symObjAddr: 0x1CAD8, symBinAddr: 0x100021CBC, symSize: 0x3C }
  - { offsetInCU: 0x3FDB9, offset: 0x4A2A3, size: 0x8, addend: 0x0, symName: __ZNSt3__114__split_bufferINS_6vectorINS_7variantIJidbNS_12basic_stringIcNS_11char_traitsIcEENS_9allocatorIcEEEEEEENS6_IS9_EEEERNS6_ISB_EEE7__allocB7v160006Ev, symObjAddr: 0x1CB14, symBinAddr: 0x100021CF8, symSize: 0x28 }
  - { offsetInCU: 0x3FDDE, offset: 0x4A2C8, size: 0x8, addend: 0x0, symName: __ZNSt3__114__split_bufferINS_6vectorINS_7variantIJidbNS_12basic_stringIcNS_11char_traitsIcEENS_9allocatorIcEEEEEEENS6_IS9_EEEERNS6_ISB_EEE9__end_capB7v160006Ev, symObjAddr: 0x1CB3C, symBinAddr: 0x100021D20, symSize: 0x28 }
  - { offsetInCU: 0x3FE03, offset: 0x4A2ED, size: 0x8, addend: 0x0, symName: __ZNSt3__117__compressed_pairIPNS_6vectorINS_7variantIJidbNS_12basic_stringIcNS_11char_traitsIcEENS_9allocatorIcEEEEEEENS6_IS9_EEEERNS6_ISB_EEEC2B7v160006IDnSE_EEOT_OT0_, symObjAddr: 0x1CB64, symBinAddr: 0x100021D48, symSize: 0x48 }
  - { offsetInCU: 0x3FE59, offset: 0x4A343, size: 0x8, addend: 0x0, symName: __ZNSt3__122__compressed_pair_elemIRNS_9allocatorINS_6vectorINS_7variantIJidbNS_12basic_stringIcNS_11char_traitsIcEENS1_IcEEEEEEENS1_IS9_EEEEEELi1ELb0EEC2B7v160006ISD_vEEOT_, symObjAddr: 0x1CBAC, symBinAddr: 0x100021D90, symSize: 0x20 }
  - { offsetInCU: 0x3FE9B, offset: 0x4A385, size: 0x8, addend: 0x0, symName: __ZNSt3__117__compressed_pairIPNS_6vectorINS_7variantIJidbNS_12basic_stringIcNS_11char_traitsIcEENS_9allocatorIcEEEEEEENS6_IS9_EEEERNS6_ISB_EEE6secondB7v160006Ev, symObjAddr: 0x1CBCC, symBinAddr: 0x100021DB0, symSize: 0x28 }
  - { offsetInCU: 0x3FEC0, offset: 0x4A3AA, size: 0x8, addend: 0x0, symName: __ZNSt3__122__compressed_pair_elemIRNS_9allocatorINS_6vectorINS_7variantIJidbNS_12basic_stringIcNS_11char_traitsIcEENS1_IcEEEEEEENS1_IS9_EEEEEELi1ELb0EE5__getB7v160006Ev, symObjAddr: 0x1CBF4, symBinAddr: 0x100021DD8, symSize: 0x18 }
  - { offsetInCU: 0x3FEE5, offset: 0x4A3CF, size: 0x8, addend: 0x0, symName: __ZNSt3__117__compressed_pairIPNS_6vectorINS_7variantIJidbNS_12basic_stringIcNS_11char_traitsIcEENS_9allocatorIcEEEEEEENS6_IS9_EEEERNS6_ISB_EEE5firstB7v160006Ev, symObjAddr: 0x1CC0C, symBinAddr: 0x100021DF0, symSize: 0x24 }
  - { offsetInCU: 0x3FF0A, offset: 0x4A3F4, size: 0x8, addend: 0x0, symName: __ZNSt3__129_AllocatorDestroyRangeReverseINS_9allocatorINS_6vectorINS_7variantIJidbNS_12basic_stringIcNS_11char_traitsIcEENS1_IcEEEEEEENS1_IS9_EEEEEENS_16reverse_iteratorIPSB_EEEC1B7v160006ERSC_RSF_SI_, symObjAddr: 0x1CDD4, symBinAddr: 0x100021FB8, symSize: 0x44 }
  - { offsetInCU: 0x3FF5F, offset: 0x4A449, size: 0x8, addend: 0x0, symName: __ZNSt3__116allocator_traitsINS_9allocatorINS_6vectorINS_7variantIJidbNS_12basic_stringIcNS_11char_traitsIcEENS1_IcEEEEEEENS1_IS9_EEEEEEE9constructB7v160006ISB_JSB_EvEEvRSC_PT_DpOT0_, symObjAddr: 0x1CE18, symBinAddr: 0x100021FFC, symSize: 0x34 }
  - { offsetInCU: 0x3FFB8, offset: 0x4A4A2, size: 0x8, addend: 0x0, symName: __ZNSt3__128__exception_guard_exceptionsINS_29_AllocatorDestroyRangeReverseINS_9allocatorINS_6vectorINS_7variantIJidbNS_12basic_stringIcNS_11char_traitsIcEENS2_IcEEEEEEENS2_ISA_EEEEEENS_16reverse_iteratorIPSC_EEEEE10__completeB7v160006Ev, symObjAddr: 0x1CE4C, symBinAddr: 0x100022030, symSize: 0x1C }
  - { offsetInCU: 0x3FFDD, offset: 0x4A4C7, size: 0x8, addend: 0x0, symName: __ZNSt3__128__exception_guard_exceptionsINS_29_AllocatorDestroyRangeReverseINS_9allocatorINS_6vectorINS_7variantIJidbNS_12basic_stringIcNS_11char_traitsIcEENS2_IcEEEEEEENS2_ISA_EEEEEENS_16reverse_iteratorIPSC_EEEEED1B7v160006Ev, symObjAddr: 0x1CE68, symBinAddr: 0x10002204C, symSize: 0x2C }
  - { offsetInCU: 0x40005, offset: 0x4A4EF, size: 0x8, addend: 0x0, symName: __ZNSt3__128__exception_guard_exceptionsINS_29_AllocatorDestroyRangeReverseINS_9allocatorINS_6vectorINS_7variantIJidbNS_12basic_stringIcNS_11char_traitsIcEENS2_IcEEEEEEENS2_ISA_EEEEEENS_16reverse_iteratorIPSC_EEEEEC1B7v160006ESH_, symObjAddr: 0x1CE94, symBinAddr: 0x100022078, symSize: 0x34 }
